
whitewhale.elf:     file format elf32-avr32

Sections:
Idx Name          Size      VMA       LMA       File off  Algn
  0 .reset        00002004  80000000  80000000  00000400  2**2
                  CONTENTS, ALLOC, LOAD, READONLY, CODE
  1 .rela.got     00000000  80002004  80002004  00002404  2**2
                  CONTENTS, ALLOC, LOAD, READONLY, DATA
  2 .init         0000001a  80002004  80002004  00002404  2**2
                  CONTENTS, ALLOC, LOAD, READONLY, CODE
  3 .text         00007174  80002020  80002020  00002420  2**2
                  CONTENTS, ALLOC, LOAD, READONLY, CODE
  4 .exception    00000200  80009200  80009200  00009600  2**9
                  CONTENTS, ALLOC, LOAD, READONLY, CODE
  5 .fini         00000018  80009400  80009400  00009800  2**2
                  CONTENTS, ALLOC, LOAD, READONLY, CODE
  6 .rodata       00000604  80009418  80009418  00009818  2**2
                  CONTENTS, ALLOC, LOAD, READONLY, DATA
  7 .lalign       00000004  80009a1c  80009a1c  00009e1c  2**0
                  ALLOC
  8 .dalign       00000004  00000004  00000004  00000000  2**0
                  ALLOC
  9 .ctors        00000008  00000008  80009a20  0000a008  2**2
                  CONTENTS, ALLOC, LOAD, DATA
 10 .dtors        00000008  00000010  80009a28  0000a010  2**2
                  CONTENTS, ALLOC, LOAD, DATA
 11 .jcr          00000004  00000018  80009a30  0000a018  2**2
                  CONTENTS, ALLOC, LOAD, DATA
 12 .got          00000000  0000001c  80009a34  0000a01c  2**2
                  CONTENTS, ALLOC, LOAD, DATA
 13 .data         00000528  0000001c  80009a34  0000a01c  2**2
                  CONTENTS, ALLOC, LOAD, DATA
 14 .bss          0000175c  00000564  00000564  00000000  2**2
                  ALLOC
 15 .heap         00005340  00001cc0  00001cc0  00000000  2**0
                  ALLOC
 16 .comment      00000028  00000000  00000000  0000a544  2**0
                  CONTENTS, READONLY
 17 .debug_aranges 00001010  00000000  00000000  0000a56c  2**0
                  CONTENTS, READONLY, DEBUGGING
 18 .debug_pubnames 000024cb  00000000  00000000  0000b57c  2**0
                  CONTENTS, READONLY, DEBUGGING
 19 .debug_info   000290e3  00000000  00000000  0000da47  2**0
                  CONTENTS, READONLY, DEBUGGING
 20 .debug_abbrev 00004e83  00000000  00000000  00036b2a  2**0
                  CONTENTS, READONLY, DEBUGGING
 21 .debug_line   0001307c  00000000  00000000  0003b9ad  2**0
                  CONTENTS, READONLY, DEBUGGING
 22 .debug_frame  00002ba0  00000000  00000000  0004ea2c  2**2
                  CONTENTS, READONLY, DEBUGGING
 23 .debug_str    00008bd7  00000000  00000000  000515cc  2**0
                  CONTENTS, READONLY, DEBUGGING
 24 .debug_loc    00006fae  00000000  00000000  0005a1a3  2**0
                  CONTENTS, READONLY, DEBUGGING
 25 .debug_macinfo 010f7953  00000000  00000000  00061151  2**0
                  CONTENTS, READONLY, DEBUGGING
 26 .stack        00001000  00007000  00007000  00000000  2**0
                  ALLOC
 27 .flash_nvram  00007a6c  80030000  80009f5c  0000a800  2**2
                  ALLOC
 28 .debug_ranges 00001638  00000000  00000000  01158aa4  2**0
                  CONTENTS, READONLY, DEBUGGING

Disassembly of section .reset:

80000000 <_trampoline>:
80000000:	e0 8f 10 00 	bral	80002000 <program_start>
	...

80002000 <program_start>:
80002000:	fe cf ff e0 	sub	pc,pc,-32

Disassembly of section .init:

80002004 <_init>:
80002004:	eb cd 40 40 	pushm	r6,lr
80002008:	48 26       	lddpc	r6,80002010 <_init+0xc>
8000200a:	1e 26       	rsub	r6,pc
8000200c:	c0 48       	rjmp	80002014 <_init+0x10>
8000200e:	d7 03       	nop
80002010:	80 00       	ld.sh	r0,r0[0x0]
80002012:	1f ee       	ld.ub	lr,pc[0x6]
80002014:	c5 4c       	rcall	800020bc <frame_dummy>
80002016:	e0 a0 38 b5 	rcall	80009180 <__do_global_ctors_aux>
8000201a:	e3 cd 80 40 	ldm	sp++,r6,pc

Disassembly of section .text:

80002020 <_stext>:
80002020:	30 07       	mov	r7,0
80002022:	e0 6a 80 00 	mov	r10,32768
80002026:	5b fa       	cp.w	r10,-1
80002028:	f4 0d 17 10 	movne	sp,r10
8000202c:	fe cb 86 0c 	sub	r11,pc,-31220
80002030:	30 8c       	mov	r12,8
80002032:	18 3b       	cp.w	r11,r12
80002034:	c0 70       	breq	80002042 <_stext+0x22>
80002036:	e0 6a 05 48 	mov	r10,1352
8000203a:	b7 09       	ld.d	r8,r11++
8000203c:	b9 28       	st.d	r12++,r8
8000203e:	14 3c       	cp.w	r12,r10
80002040:	cf d5       	brlt	8000203a <_stext+0x1a>
80002042:	e0 6a 1c c0 	mov	r10,7360
80002046:	e0 6c 05 48 	mov	r12,1352
8000204a:	30 08       	mov	r8,0
8000204c:	30 09       	mov	r9,0
8000204e:	b9 28       	st.d	r12++,r8
80002050:	14 3c       	cp.w	r12,r10
80002052:	cf e5       	brlt	8000204e <_stext+0x2e>
80002054:	e0 a0 36 a9 	rcall	80008da6 <_init_startup>
80002058:	fe cc 8c 58 	sub	r12,pc,-29608
8000205c:	e0 a0 33 60 	rcall	8000871c <atexit>
80002060:	cd 2f       	rcall	80002004 <_init>
80002062:	1a 9c       	mov	r12,sp
80002064:	30 0b       	mov	r11,0
80002066:	e0 a0 36 a1 	rcall	80008da8 <_init_argv>
8000206a:	5b fc       	cp.w	r12,-1
8000206c:	f9 bc 00 00 	moveq	r12,0
80002070:	f9 ba 00 00 	moveq	r10,0
80002074:	14 1d       	sub	sp,r10
80002076:	e0 a0 11 71 	rcall	80004358 <main>
8000207a:	e0 a0 33 59 	rcall	8000872c <exit>
8000207e:	d7 03       	nop

80002080 <__do_global_dtors_aux>:
80002080:	d4 21       	pushm	r4-r7,lr
80002082:	e0 68 05 64 	mov	r8,1380
80002086:	11 89       	ld.ub	r9,r8[0x0]
80002088:	30 08       	mov	r8,0
8000208a:	f0 09 18 00 	cp.b	r9,r8
8000208e:	c1 61       	brne	800020ba <__do_global_dtors_aux+0x3a>
80002090:	31 08       	mov	r8,16
80002092:	31 46       	mov	r6,20
80002094:	10 95       	mov	r5,r8
80002096:	10 16       	sub	r6,r8
80002098:	e0 67 05 68 	mov	r7,1384
8000209c:	a3 46       	asr	r6,0x2
8000209e:	20 16       	sub	r6,1
800020a0:	c0 68       	rjmp	800020ac <__do_global_dtors_aux+0x2c>
800020a2:	2f f8       	sub	r8,-1
800020a4:	8f 08       	st.w	r7[0x0],r8
800020a6:	ea 08 03 28 	ld.w	r8,r5[r8<<0x2]
800020aa:	5d 18       	icall	r8
800020ac:	6e 08       	ld.w	r8,r7[0x0]
800020ae:	0c 38       	cp.w	r8,r6
800020b0:	cf 93       	brcs	800020a2 <__do_global_dtors_aux+0x22>
800020b2:	30 19       	mov	r9,1
800020b4:	e0 68 05 64 	mov	r8,1380
800020b8:	b0 89       	st.b	r8[0x0],r9
800020ba:	d8 22       	popm	r4-r7,pc

800020bc <frame_dummy>:
800020bc:	d4 01       	pushm	lr
800020be:	31 8c       	mov	r12,24
800020c0:	78 08       	ld.w	r8,r12[0x0]
800020c2:	58 08       	cp.w	r8,0
800020c4:	c0 50       	breq	800020ce <frame_dummy+0x12>
800020c6:	48 38       	lddpc	r8,800020d0 <frame_dummy+0x14>
800020c8:	58 08       	cp.w	r8,0
800020ca:	c0 20       	breq	800020ce <frame_dummy+0x12>
800020cc:	5d 18       	icall	r8
800020ce:	d8 02       	popm	pc
800020d0:	00 00       	add	r0,r0
	...

800020d4 <handler_None>:

// check the event queue
static void check_events(void);

// handler protos
static void handler_None(s32 data) { ;; }
800020d4:	5e fc       	retal	r12
800020d6:	d7 03       	nop

800020d8 <clockTimer_callback>:
static softTimer_t monomePollTimer = { .next = NULL, .prev = NULL };
static softTimer_t monomeRefreshTimer  = { .next = NULL, .prev = NULL };



static void clockTimer_callback(void* o) {  
800020d8:	d4 01       	pushm	lr
	// static event_t e;
	// e.type = kEventTimer;
	// e.data = 0;
	// event_post(&e);
	if(clock_external == 0) {
800020da:	e0 68 1a cc 	mov	r8,6860
800020de:	11 89       	ld.ub	r9,r8[0x0]
800020e0:	58 09       	cp.w	r9,0
		// print_dbg("\r\ntimer.");

		clock_phase++;
800020e2:	c1 21       	brne	80002106 <clockTimer_callback+0x2e>
800020e4:	e0 68 1a 5c 	mov	r8,6748
800020e8:	11 8a       	ld.ub	r10,r8[0x0]
		if(clock_phase>1) clock_phase=0;
800020ea:	2f fa       	sub	r10,-1
800020ec:	b0 8a       	st.b	r8[0x0],r10
800020ee:	30 1b       	mov	r11,1
800020f0:	f6 0a 18 00 	cp.b	r10,r11
800020f4:	e0 88 00 03 	brls	800020fa <clockTimer_callback+0x22>
		(*clock_pulse)(clock_phase);
800020f8:	b0 89       	st.b	r8[0x0],r9
800020fa:	e0 69 1a 5c 	mov	r9,6748
800020fe:	31 c8       	mov	r8,28
80002100:	13 8c       	ld.ub	r12,r9[0x0]
80002102:	70 08       	ld.w	r8,r8[0x0]
80002104:	5d 18       	icall	r8
80002106:	d8 02       	popm	pc

80002108 <handler_MonomePoll>:
80002108:	d4 01       	pushm	lr
8000210a:	33 08       	mov	r8,48
8000210c:	70 08       	ld.w	r8,r8[0x0]
8000210e:	5d 18       	icall	r8
	// monome_set_quadrant_flag(0);
	// monome_set_quadrant_flag(1);
	timers_set_monome();
}

static void handler_MonomePoll(s32 data) { monome_read_serial(); }
80002110:	d8 02       	popm	pc
80002112:	d7 03       	nop

80002114 <handler_Front>:
80002114:	d4 21       	pushm	r4-r7,lr
80002116:	18 97       	mov	r7,r12
	}
}


static void handler_Front(s32 data) {
	print_dbg("\r FRONT HOLD");
80002118:	fe cc 8a 00 	sub	r12,pc,-30208
8000211c:	e0 a0 2e 0e 	rcall	80007d38 <print_dbg>

	if(data == 0) {
80002120:	e0 68 1a 5e 	mov	r8,6750
		front_timer = 15;
80002124:	58 07       	cp.w	r7,0
80002126:	c0 d1       	brne	80002140 <handler_Front+0x2c>
		if(preset_mode) preset_mode = 0;
80002128:	30 f9       	mov	r9,15
8000212a:	b0 89       	st.b	r8[0x0],r9
8000212c:	e0 68 1a 50 	mov	r8,6736
80002130:	11 8a       	ld.ub	r10,r8[0x0]
80002132:	ee 0a 18 00 	cp.b	r10,r7
		else preset_mode = 1;
80002136:	c0 30       	breq	8000213c <handler_Front+0x28>
80002138:	b0 87       	st.b	r8[0x0],r7
	}
	else {
		front_timer = 0;
8000213a:	c0 58       	rjmp	80002144 <handler_Front+0x30>
8000213c:	30 19       	mov	r9,1
	}

	monomeFrameDirty++;
8000213e:	c0 28       	rjmp	80002142 <handler_Front+0x2e>
80002140:	30 09       	mov	r9,0
80002142:	b0 89       	st.b	r8[0x0],r9
80002144:	e0 68 07 66 	mov	r8,1894
}
80002148:	11 89       	ld.ub	r9,r8[0x0]
8000214a:	2f f9       	sub	r9,-1
8000214c:	b0 89       	st.b	r8[0x0],r9
8000214e:	d8 22       	popm	r4-r7,pc

80002150 <flash_read>:
80002150:	d4 31       	pushm	r0-r7,lr
80002152:	20 1d       	sub	sp,4
80002154:	fe cc 8a 2c 	sub	r12,pc,-30164
80002158:	e0 a0 2d f0 	rcall	80007d38 <print_dbg>

void flash_read(void) {
	u8 i1, i2;

	print_dbg("\r read preset ");
	print_dbg_ulong(preset_select);
8000215c:	e0 67 0b 04 	mov	r7,2820
80002160:	0f 8c       	ld.ub	r12,r7[0x0]

	for(i1=0;i1<16;i1++) {
		for(i2=0;i2<16;i2++) {
			w.wp[i1].steps[i2] = flashy.w[preset_select].wp[i1].steps[i2];
80002162:	e0 a0 2d e5 	rcall	80007d2c <print_dbg_ulong>
	u8 i1, i2;

	print_dbg("\r read preset ");
	print_dbg_ulong(preset_select);

	for(i1=0;i1<16;i1++) {
80002166:	4c 49       	lddpc	r9,80002274 <flash_read+0x124>
		for(i2=0;i2<16;i2++) {
			w.wp[i1].steps[i2] = flashy.w[preset_select].wp[i1].steps[i2];
80002168:	0f 84       	ld.ub	r4,r7[0x0]
8000216a:	12 92       	mov	r2,r9
8000216c:	e0 67 0b 0c 	mov	r7,2828
80002170:	e0 68 0f 44 	mov	r8,3908
80002174:	ee c5 ff fc 	sub	r5,r7,-4
	u8 i1, i2;

	print_dbg("\r read preset ");
	print_dbg_ulong(preset_select);

	for(i1=0;i1<16;i1++) {
80002178:	e8 08 02 48 	mul	r8,r4,r8
		for(i2=0;i2<16;i2++) {
			w.wp[i1].steps[i2] = flashy.w[preset_select].wp[i1].steps[i2];
8000217c:	30 06       	mov	r6,0
8000217e:	50 08       	stdsp	sp[0x0],r8
80002180:	0e 93       	mov	r3,r7
80002182:	2b 48       	sub	r8,-76
80002184:	f2 08 00 08 	add	r8,r9,r8
80002188:	0e 99       	mov	r9,r7
			w.wp[i1].step_probs[i2] = flashy.w[preset_select].wp[i1].step_probs[i2];
8000218a:	c4 08       	rjmp	8000220a <flash_read+0xba>
8000218c:	1d 80       	ld.ub	r0,lr[0x0]
8000218e:	b4 80       	st.b	r10[0x0],r0
80002190:	fd 30 00 10 	ld.ub	r0,lr[16]
			w.wp[i1].cv_probs[0][i2] = flashy.w[preset_select].wp[i1].cv_probs[0][i2];
80002194:	f5 60 00 10 	st.b	r10[16],r0
80002198:	fd 30 00 c0 	ld.ub	r0,lr[192]
			w.wp[i1].cv_probs[1][i2] = flashy.w[preset_select].wp[i1].cv_probs[1][i2];
8000219c:	f5 60 00 c0 	st.b	r10[192],r0
800021a0:	fd 30 00 d0 	ld.ub	r0,lr[208]
			w.wp[i1].cv_curves[0][i2] = flashy.w[preset_select].wp[i1].cv_curves[0][i2];
800021a4:	f5 60 00 d0 	st.b	r10[208],r0
			w.wp[i1].cv_curves[1][i2] = flashy.w[preset_select].wp[i1].cv_curves[1][i2];
800021a8:	96 00       	ld.sh	r0,r11[0x0]
800021aa:	b8 00       	st.h	r12[0x0],r0
800021ac:	f7 00 00 20 	ld.sh	r0,r11[32]
			w.wp[i1].cv_steps[0][i2] = flashy.w[preset_select].wp[i1].cv_steps[0][i2];
800021b0:	f9 50 00 20 	st.h	r12[32],r0
800021b4:	f7 00 ff c0 	ld.sh	r0,r11[-64]
			w.wp[i1].cv_steps[1][i2] = flashy.w[preset_select].wp[i1].cv_steps[1][i2];
800021b8:	f9 50 ff c0 	st.h	r12[-64],r0
800021bc:	f7 00 ff e0 	ld.sh	r0,r11[-32]
			w.wp[i1].cv_values[i2] = flashy.w[preset_select].wp[i1].cv_values[i2];
800021c0:	f9 50 ff e0 	st.h	r12[-32],r0
800021c4:	f7 00 ff a0 	ld.sh	r0,r11[-96]
800021c8:	f9 50 ff a0 	st.h	r12[-96],r0
800021cc:	2f fe       	sub	lr,-1

	print_dbg("\r read preset ");
	print_dbg_ulong(preset_select);

	for(i1=0;i1<16;i1++) {
		for(i2=0;i2<16;i2++) {
800021ce:	2f fa       	sub	r10,-1
800021d0:	2f eb       	sub	r11,-2
			w.wp[i1].cv_steps[0][i2] = flashy.w[preset_select].wp[i1].cv_steps[0][i2];
			w.wp[i1].cv_steps[1][i2] = flashy.w[preset_select].wp[i1].cv_steps[1][i2];
			w.wp[i1].cv_values[i2] = flashy.w[preset_select].wp[i1].cv_values[i2];
		}

		w.wp[i1].step_choice = flashy.w[preset_select].wp[i1].step_choice;
800021d2:	2f ec       	sub	r12,-2
800021d4:	02 3a       	cp.w	r10,r1
		w.wp[i1].loop_end = flashy.w[preset_select].wp[i1].loop_end;
800021d6:	cd b1       	brne	8000218c <flash_read+0x3c>
800021d8:	90 2a       	ld.sh	r10,r8[0x4]
		w.wp[i1].loop_len = flashy.w[preset_select].wp[i1].loop_len;
800021da:	aa 0a       	st.h	r5[0x0],r10
800021dc:	11 9a       	ld.ub	r10,r8[0x1]
		w.wp[i1].loop_start = flashy.w[preset_select].wp[i1].loop_start;
800021de:	b2 9a       	st.b	r9[0x1],r10
800021e0:	11 aa       	ld.ub	r10,r8[0x2]
		w.wp[i1].loop_dir = flashy.w[preset_select].wp[i1].loop_dir;
800021e2:	b2 aa       	st.b	r9[0x2],r10
800021e4:	11 8a       	ld.ub	r10,r8[0x0]
		w.wp[i1].step_mode = flashy.w[preset_select].wp[i1].step_mode;
800021e6:	b2 8a       	st.b	r9[0x0],r10
800021e8:	11 ba       	ld.ub	r10,r8[0x3]
		w.wp[i1].cv_mode[0] = flashy.w[preset_select].wp[i1].cv_mode[0];
800021ea:	b2 ba       	st.b	r9[0x3],r10
800021ec:	70 2a       	ld.w	r10,r8[0x8]
		w.wp[i1].cv_mode[1] = flashy.w[preset_select].wp[i1].cv_mode[1];
800021ee:	93 2a       	st.w	r9[0x8],r10
800021f0:	11 ea       	ld.ub	r10,r8[0x6]
800021f2:	aa aa       	st.b	r5[0x2],r10
800021f4:	11 fa       	ld.ub	r10,r8[0x7]
800021f6:	b2 fa       	st.b	r9[0x7],r10
800021f8:	2f f6       	sub	r6,-1
800021fa:	f0 c8 ff 14 	sub	r8,r8,-236
800021fe:	ea c5 ff 14 	sub	r5,r5,-236
	u8 i1, i2;

	print_dbg("\r read preset ");
	print_dbg_ulong(preset_select);

	for(i1=0;i1<16;i1++) {
80002202:	f2 c9 ff 14 	sub	r9,r9,-236
80002206:	59 06       	cp.w	r6,16
80002208:	c1 70       	breq	80002236 <flash_read+0xe6>
8000220a:	e0 6b 00 ec 	mov	r11,236
8000220e:	ec 0b 02 4a 	mul	r10,r6,r11
80002212:	40 0b       	lddsp	r11,sp[0x0]
80002214:	f4 cc ff 74 	sub	r12,r10,-140
80002218:	f4 0b 00 0e 	add	lr,r10,r11
8000221c:	06 0c       	add	r12,r3
8000221e:	fc cb ff 28 	sub	r11,lr,-216
80002222:	2f 4a       	sub	r10,-12
80002224:	2a 8e       	sub	lr,-88
80002226:	e4 0b 00 0b 	add	r11,r2,r11
8000222a:	e4 0e 00 0e 	add	lr,r2,lr
8000222e:	06 0a       	add	r10,r3
		w.wp[i1].step_mode = flashy.w[preset_select].wp[i1].step_mode;
		w.wp[i1].cv_mode[0] = flashy.w[preset_select].wp[i1].cv_mode[0];
		w.wp[i1].cv_mode[1] = flashy.w[preset_select].wp[i1].cv_mode[1];
	}

	w.series_start = flashy.w[preset_select].series_start;
80002230:	f2 c1 ff e4 	sub	r1,r9,-28
80002234:	ca cb       	rjmp	8000218c <flash_read+0x3c>
80002236:	49 0a       	lddpc	r10,80002274 <flash_read+0x124>
	w.series_end = flashy.w[preset_select].series_end;
80002238:	e0 6b 0f 44 	mov	r11,3908
		w.wp[i1].step_mode = flashy.w[preset_select].wp[i1].step_mode;
		w.wp[i1].cv_mode[0] = flashy.w[preset_select].wp[i1].cv_mode[0];
		w.wp[i1].cv_mode[1] = flashy.w[preset_select].wp[i1].cv_mode[1];
	}

	w.series_start = flashy.w[preset_select].series_start;
8000223c:	b7 34       	mul	r4,r11
8000223e:	e8 cb f0 f4 	sub	r11,r4,-3852
	w.series_end = flashy.w[preset_select].series_end;
80002242:	f4 04 00 04 	add	r4,r10,r4
		w.wp[i1].step_mode = flashy.w[preset_select].wp[i1].step_mode;
		w.wp[i1].cv_mode[0] = flashy.w[preset_select].wp[i1].cv_mode[0];
		w.wp[i1].cv_mode[1] = flashy.w[preset_select].wp[i1].cv_mode[1];
	}

	w.series_start = flashy.w[preset_select].series_start;
80002246:	f4 0b 00 0b 	add	r11,r10,r11
8000224a:	e8 c4 f0 74 	sub	r4,r4,-3980
	flashc_memcpy((void *)&flashy.glyph[preset_select], &glyph, sizeof(glyph), true);
	flashc_memset8((void*)&(flashy.preset_select), preset_select, 1, true);
	flashc_memset32((void*)&(flashy.edit_mode), edit_mode, 4, true);
}

void flash_read(void) {
8000224e:	09 9a       	ld.ub	r10,r4[0x1]
		w.wp[i1].cv_mode[0] = flashy.w[preset_select].wp[i1].cv_mode[0];
		w.wp[i1].cv_mode[1] = flashy.w[preset_select].wp[i1].cv_mode[1];
	}

	w.series_start = flashy.w[preset_select].series_start;
	w.series_end = flashy.w[preset_select].series_end;
80002250:	e0 68 0b 0c 	mov	r8,2828
80002254:	ee c7 f0 c0 	sub	r7,r7,-3904
		w.wp[i1].step_mode = flashy.w[preset_select].wp[i1].step_mode;
		w.wp[i1].cv_mode[0] = flashy.w[preset_select].wp[i1].cv_mode[0];
		w.wp[i1].cv_mode[1] = flashy.w[preset_select].wp[i1].cv_mode[1];
	}

	w.series_start = flashy.w[preset_select].series_start;
80002258:	f1 6a 0f 41 	st.b	r8[3905],r10
8000225c:	f0 c9 f1 40 	sub	r9,r8,-3776
	w.series_end = flashy.w[preset_select].series_end;
	for(i1=0;i1<64;i1++)
		w.series_list[i1] = flashy.w[preset_select].series_list[i1];
80002260:	09 8a       	ld.ub	r10,r4[0x0]
		w.wp[i1].cv_mode[1] = flashy.w[preset_select].wp[i1].cv_mode[1];
	}

	w.series_start = flashy.w[preset_select].series_start;
	w.series_end = flashy.w[preset_select].series_end;
	for(i1=0;i1<64;i1++)
80002262:	f1 6a 0f 40 	st.b	r8[3904],r10
		w.series_list[i1] = flashy.w[preset_select].series_list[i1];
}
80002266:	17 18       	ld.sh	r8,r11++
80002268:	12 b8       	st.h	r9++,r8
8000226a:	0e 39       	cp.w	r9,r7
8000226c:	cf d1       	brne	80002266 <flash_read+0x116>
8000226e:	2f fd       	sub	sp,-4
80002270:	d8 32       	popm	r0-r7,pc
80002272:	d7 03       	nop
80002274:	80 03       	ld.sh	r3,r0[0x0]
	...

80002278 <flash_unfresh>:
80002278:	d4 01       	pushm	lr
8000227a:	30 19       	mov	r9,1
8000227c:	30 4a       	mov	r10,4
8000227e:	32 2b       	mov	r11,34
80002280:	48 2c       	lddpc	r12,80002288 <flash_unfresh+0x10>
80002282:	e0 a0 20 0f 	rcall	800062a0 <flashc_memset8>
}

// write fresh status
void flash_unfresh(void) {
  flashc_memset8((void*)&(flashy.fresh), FIRSTRUN_KEY, 4, true);
}
80002286:	d8 02       	popm	pc
80002288:	80 03       	ld.sh	r3,r0[0x0]
	...

8000228c <flash_write>:
8000228c:	d4 21       	pushm	r4-r7,lr
8000228e:	e0 66 0b 04 	mov	r6,2820

void flash_write(void) {
	// print_dbg("\r write preset ");
	// print_dbg_ulong(preset_select);
	flashc_memcpy((void *)&flashy.w[preset_select], &w, sizeof(w), true);
80002292:	e0 68 0f 44 	mov	r8,3908
80002296:	0d 89       	ld.ub	r9,r6[0x0]
80002298:	10 9a       	mov	r10,r8
8000229a:	f2 08 02 48 	mul	r8,r9,r8
8000229e:	49 37       	lddpc	r7,800022e8 <flash_write+0x5c>
800022a0:	30 19       	mov	r9,1
800022a2:	e0 6b 0b 0c 	mov	r11,2828
800022a6:	ee cc ff b4 	sub	r12,r7,-76
800022aa:	10 0c       	add	r12,r8
	flashc_memcpy((void *)&flashy.glyph[preset_select], &glyph, sizeof(glyph), true);
800022ac:	e0 a0 20 00 	rcall	800062ac <flashc_memcpy>
800022b0:	ee c8 ff f7 	sub	r8,r7,-9
800022b4:	0d 8c       	ld.ub	r12,r6[0x0]
800022b6:	30 19       	mov	r9,1
800022b8:	f0 0c 00 3c 	add	r12,r8,r12<<0x3
800022bc:	30 8a       	mov	r10,8
800022be:	e0 6b 1a 6c 	mov	r11,6764
	flashc_memset8((void*)&(flashy.preset_select), preset_select, 1, true);
800022c2:	e0 a0 1f f5 	rcall	800062ac <flashc_memcpy>
800022c6:	0d 8b       	ld.ub	r11,r6[0x0]
800022c8:	30 19       	mov	r9,1
800022ca:	ee cc ff f8 	sub	r12,r7,-8
	flashc_memset32((void*)&(flashy.edit_mode), edit_mode, 4, true);
800022ce:	12 9a       	mov	r10,r9
800022d0:	e0 a0 1f e8 	rcall	800062a0 <flashc_memset8>
800022d4:	e0 68 1a 88 	mov	r8,6792
800022d8:	ee cc ff fc 	sub	r12,r7,-4
800022dc:	70 0b       	ld.w	r11,r8[0x0]
}
800022de:	30 19       	mov	r9,1
800022e0:	30 4a       	mov	r10,4
800022e2:	e0 a0 1f cd 	rcall	8000627c <flashc_memset32>
800022e6:	d8 22       	popm	r4-r7,pc
800022e8:	80 03       	ld.sh	r3,r0[0x0]
	...

800022ec <handler_SaveFlash>:
800022ec:	d4 01       	pushm	lr
800022ee:	cc ff       	rcall	8000228c <flash_write>
800022f0:	d8 02       	popm	pc
800022f2:	d7 03       	nop

800022f4 <timers_set_monome>:
800022f4:	d4 01       	pushm	lr
800022f6:	30 09       	mov	r9,0
800022f8:	fe ca d6 00 	sub	r10,pc,-10752
800022fc:	31 4b       	mov	r11,20
800022fe:	e0 6c 05 6c 	mov	r12,1388

// monome: start polling
void timers_set_monome(void) {
	// print_dbg("\r\n setting monome timers");
	timer_add(&monomePollTimer, 20, &monome_poll_timer_callback, NULL );
	timer_add(&monomeRefreshTimer, 30, &monome_refresh_timer_callback, NULL );
80002302:	e0 a0 1b e3 	rcall	80005ac8 <timer_add>
80002306:	30 09       	mov	r9,0
80002308:	fe ca e0 88 	sub	r10,pc,-8056
8000230c:	31 eb       	mov	r11,30
}
8000230e:	e0 6c 06 30 	mov	r12,1584
80002312:	e0 a0 1b db 	rcall	80005ac8 <timer_add>
80002316:	d8 02       	popm	pc

80002318 <handler_MonomeGridKey>:
80002318:	d4 21       	pushm	r4-r7,lr
8000231a:	20 1d       	sub	sp,4
8000231c:	fa c9 ff ff 	sub	r9,sp,-1
80002320:	fa ca ff fe 	sub	r10,sp,-2
// application grid code

static void handler_MonomeGridKey(s32 data) { 
	u8 x, y, z, index, i1, found, count;
	s16 delta;
	monome_grid_key_parse_event_data(data, &x, &y, &z);
80002324:	fa cb ff fd 	sub	r11,sp,-3
80002328:	e0 a0 17 3a 	rcall	8000519c <monome_grid_key_parse_event_data>
	// print_dbg_hex(y); 
	// print_dbg("; z: 0x"); 
	// print_dbg_hex(z);

	//// TRACK LONG PRESSES
	index = y*16 + x;
8000232c:	1b b8       	ld.ub	r8,sp[0x3]
8000232e:	1b a9       	ld.ub	r9,sp[0x2]
80002330:	e0 6a 1a 69 	mov	r10,6761
	if(z) {
80002334:	a5 69       	lsl	r9,0x4
	// print_dbg_hex(y); 
	// print_dbg("; z: 0x"); 
	// print_dbg_hex(z);

	//// TRACK LONG PRESSES
	index = y*16 + x;
80002336:	30 0b       	mov	r11,0
80002338:	f0 09 00 09 	add	r9,r8,r9
8000233c:	1b 9c       	ld.ub	r12,sp[0x1]
8000233e:	5c 59       	castu.b	r9
	if(z) {
80002340:	e0 68 09 d4 	mov	r8,2516
80002344:	f6 0c 18 00 	cp.b	r12,r11
////////////////////////////////////////////////////////////////////////////////
////////////////////////////////////////////////////////////////////////////////
////////////////////////////////////////////////////////////////////////////////
// application grid code

static void handler_MonomeGridKey(s32 data) { 
80002348:	c0 61       	brne	80002354 <handler_MonomeGridKey+0x3c>
8000234a:	15 8b       	ld.ub	r11,r10[0x0]
8000234c:	30 0a       	mov	r10,0
8000234e:	f0 0b 00 0c 	add	r12,r8,r11
	// print_dbg_hex(z);

	//// TRACK LONG PRESSES
	index = y*16 + x;
	if(z) {
		held_keys[key_count] = index;
80002352:	c1 78       	rjmp	80002380 <handler_MonomeGridKey+0x68>
80002354:	15 8b       	ld.ub	r11,r10[0x0]
		key_count++;
80002356:	f0 0b 0b 09 	st.b	r8[r11],r9
8000235a:	2f fb       	sub	r11,-1
		key_times[index] = 10;		//// THRESHOLD key hold time
8000235c:	e0 68 09 f4 	mov	r8,2548
80002360:	b4 8b       	st.b	r10[0x0],r11
80002362:	30 aa       	mov	r10,10
	} else {
		found = 0; // "found"
		for(i1 = 0; i1<key_count; i1++) {
			if(held_keys[i1] == index) 
80002364:	f0 09 0b 0a 	st.b	r8[r9],r10
80002368:	c5 d8       	rjmp	80002422 <handler_MonomeGridKey+0x10a>
8000236a:	11 8e       	ld.ub	lr,r8[0x0]
				found++;
8000236c:	f2 0e 18 00 	cp.b	lr,r9
			if(found) 
80002370:	c0 31       	brne	80002376 <handler_MonomeGridKey+0x5e>
80002372:	2f fa       	sub	r10,-1
				held_keys[i1] = held_keys[i1+1];
80002374:	5c 5a       	castu.b	r10
80002376:	58 0a       	cp.w	r10,0
80002378:	c0 30       	breq	8000237e <handler_MonomeGridKey+0x66>
		held_keys[key_count] = index;
		key_count++;
		key_times[index] = 10;		//// THRESHOLD key hold time
	} else {
		found = 0; // "found"
		for(i1 = 0; i1<key_count; i1++) {
8000237a:	11 9e       	ld.ub	lr,r8[0x1]
8000237c:	b0 8e       	st.b	r8[0x0],lr
			if(held_keys[i1] == index) 
				found++;
			if(found) 
				held_keys[i1] = held_keys[i1+1];
		}
		key_count--;
8000237e:	2f f8       	sub	r8,-1
80002380:	18 38       	cp.w	r8,r12
80002382:	cf 41       	brne	8000236a <handler_MonomeGridKey+0x52>

		// FAST PRESS
		if(key_times[index] > 0) {
80002384:	e0 68 1a 69 	mov	r8,6761
80002388:	20 1b       	sub	r11,1
8000238a:	b0 8b       	st.b	r8[0x0],r11
8000238c:	e0 68 09 f4 	mov	r8,2548
80002390:	f0 09 07 0a 	ld.ub	r10,r8[r9]
			if(edit_mode != mSeries && preset_mode == 0) {
80002394:	30 08       	mov	r8,0
80002396:	f0 0a 18 00 	cp.b	r10,r8
8000239a:	c4 40       	breq	80002422 <handler_MonomeGridKey+0x10a>
8000239c:	e0 6a 1a 88 	mov	r10,6792
800023a0:	74 0a       	ld.w	r10,r10[0x0]
800023a2:	58 2a       	cp.w	r10,2
				if(index/16 == 2) {
800023a4:	c1 d0       	breq	800023de <handler_MonomeGridKey+0xc6>
800023a6:	e0 6a 1a 50 	mov	r10,6736
800023aa:	15 8a       	ld.ub	r10,r10[0x0]
800023ac:	f0 0a 18 00 	cp.b	r10,r8
800023b0:	c1 71       	brne	800023de <handler_MonomeGridKey+0xc6>
					i1 = index % 16;
					if(key_alt)
800023b2:	f2 cb 00 20 	sub	r11,r9,32

		// FAST PRESS
		if(key_times[index] > 0) {
			if(edit_mode != mSeries && preset_mode == 0) {
				if(index/16 == 2) {
					i1 = index % 16;
800023b6:	30 f8       	mov	r8,15
					if(key_alt)
800023b8:	f0 0b 18 00 	cp.b	r11,r8
800023bc:	e0 8b 00 33 	brhi	80002422 <handler_MonomeGridKey+0x10a>
800023c0:	e0 68 1a 5d 	mov	r8,6749
						next_pattern = i1;
					else {
						pattern = i1;
800023c4:	f3 d9 c0 04 	bfextu	r9,r9,0x0,0x4
800023c8:	11 8b       	ld.ub	r11,r8[0x0]
						next_pattern = i1;
					}
				}
			}
			// PRESET MODE FAST PRESS DETECT
			else if(preset_mode == 1) {
800023ca:	e0 68 1a 84 	mov	r8,6788
800023ce:	f4 0b 18 00 	cp.b	r11,r10
800023d2:	c0 41       	brne	800023da <handler_MonomeGridKey+0xc2>
800023d4:	b0 89       	st.b	r8[0x0],r9
				if(x == 0 && y != preset_select) {
800023d6:	e0 68 1a 5b 	mov	r8,6747
800023da:	b0 89       	st.b	r8[0x0],r9
800023dc:	c2 38       	rjmp	80002422 <handler_MonomeGridKey+0x10a>
800023de:	e0 67 1a 50 	mov	r7,6736
800023e2:	30 18       	mov	r8,1
800023e4:	0f 89       	ld.ub	r9,r7[0x0]
800023e6:	f0 09 18 00 	cp.b	r9,r8
					preset_select = y;
800023ea:	c1 c1       	brne	80002422 <handler_MonomeGridKey+0x10a>
800023ec:	1b b6       	ld.ub	r6,sp[0x3]
800023ee:	58 06       	cp.w	r6,0
800023f0:	c1 91       	brne	80002422 <handler_MonomeGridKey+0x10a>
800023f2:	e0 69 0b 04 	mov	r9,2820
////////////////////////////////////////////////////////////////////////////////
////////////////////////////////////////////////////////////////////////////////
////////////////////////////////////////////////////////////////////////////////
// application grid code

static void handler_MonomeGridKey(s32 data) { 
800023f6:	1b a8       	ld.ub	r8,sp[0x2]
800023f8:	13 8a       	ld.ub	r10,r9[0x0]
			// PRESET MODE FAST PRESS DETECT
			else if(preset_mode == 1) {
				if(x == 0 && y != preset_select) {
					preset_select = y;
					for(i1=0;i1<8;i1++)
						glyph[i1] = flashy.glyph[preset_select][i1];
800023fa:	f0 0a 18 00 	cp.b	r10,r8
			}
			// PRESET MODE FAST PRESS DETECT
			else if(preset_mode == 1) {
				if(x == 0 && y != preset_select) {
					preset_select = y;
					for(i1=0;i1<8;i1++)
800023fe:	c1 00       	breq	8000241e <handler_MonomeGridKey+0x106>
80002400:	b2 88       	st.b	r9[0x0],r8
80002402:	2f f8       	sub	r8,-1
						glyph[i1] = flashy.glyph[preset_select][i1];
				}
 				else if(x==0 && y == preset_select) {
					flash_read();
80002404:	49 b9       	lddpc	r9,80002470 <handler_MonomeGridKey+0x158>
80002406:	f2 08 00 39 	add	r9,r9,r8<<0x3
			// print_dbg_ulong(key_times[index]);
		}
	}

	// PRESET SCREEN
	if(preset_mode) {
8000240a:	e0 68 1a 6c 	mov	r8,6764
8000240e:	2f f9       	sub	r9,-1
80002410:	f0 ca ff f8 	sub	r10,r8,-8
80002414:	13 3b       	ld.ub	r11,r9++
		// glyph magic
		if(z && x>7) {
80002416:	10 cb       	st.b	r8++,r11
80002418:	14 38       	cp.w	r8,r10
8000241a:	cf d1       	brne	80002414 <handler_MonomeGridKey+0xfc>
8000241c:	c0 38       	rjmp	80002422 <handler_MonomeGridKey+0x10a>
8000241e:	c9 9e       	rcall	80002150 <flash_read>
80002420:	ae 86       	st.b	r7[0x0],r6
80002422:	e0 68 1a 50 	mov	r8,6736
80002426:	11 87       	ld.ub	r7,r8[0x0]
80002428:	30 08       	mov	r8,0
8000242a:	f0 07 18 00 	cp.b	r7,r8
			glyph[y] ^= 1<<(x-8);
8000242e:	c2 30       	breq	80002474 <handler_MonomeGridKey+0x15c>
80002430:	1b 99       	ld.ub	r9,sp[0x1]
			monomeFrameDirty++;	
80002432:	f0 09 18 00 	cp.b	r9,r8

	// PRESET SCREEN
	if(preset_mode) {
		// glyph magic
		if(z && x>7) {
			glyph[y] ^= 1<<(x-8);
80002436:	e0 80 07 45 	breq	800032c0 <handler_MonomeGridKey+0xfa8>
8000243a:	1b b8       	ld.ub	r8,sp[0x3]
8000243c:	30 79       	mov	r9,7
			monomeFrameDirty++;	
8000243e:	f2 08 18 00 	cp.b	r8,r9

	// PRESET SCREEN
	if(preset_mode) {
		// glyph magic
		if(z && x>7) {
			glyph[y] ^= 1<<(x-8);
80002442:	e0 88 07 3f 	brls	800032c0 <handler_MonomeGridKey+0xfa8>
80002446:	e0 6a 07 66 	mov	r10,1894
8000244a:	f0 cc 00 08 	sub	r12,r8,8
8000244e:	15 8e       	ld.ub	lr,r10[0x0]
80002450:	1b a8       	ld.ub	r8,sp[0x2]
80002452:	e0 69 1a 6c 	mov	r9,6764
80002456:	2f fe       	sub	lr,-1
80002458:	f2 08 07 0b 	ld.ub	r11,r9[r8]
8000245c:	b4 8e       	st.b	r10[0x0],lr
8000245e:	30 1a       	mov	r10,1
80002460:	f4 0c 09 4a 	lsl	r10,r10,r12
80002464:	16 5a       	eor	r10,r11
80002466:	f2 08 0b 0a 	st.b	r9[r8],r10
8000246a:	e0 8f 07 2b 	bral	800032c0 <handler_MonomeGridKey+0xfa8>
8000246e:	d7 03       	nop
80002470:	80 03       	ld.sh	r3,r0[0x0]
80002472:	00 00       	add	r0,r0
80002474:	1b a8       	ld.ub	r8,sp[0x2]
80002476:	30 1c       	mov	r12,1
80002478:	f8 08 18 00 	cp.b	r8,r12
8000247c:	e0 81 01 36 	brne	800026e8 <handler_MonomeGridKey+0x3d0>
80002480:	e0 6e 1a 91 	mov	lr,6801
80002484:	1b 9b       	ld.ub	r11,sp[0x1]
80002486:	1d 89       	ld.ub	r9,lr[0x0]

		// OPTIMIZE: order this if-branch by common priority/use
		//// SORT

		// cut position
		if(y == 1) {
80002488:	f2 0b 00 19 	add	r9,r9,r11<<0x1
8000248c:	20 19       	sub	r9,1
8000248e:	ee 09 18 00 	cp.b	r9,r7
80002492:	ee 09 17 50 	movlt	r9,r7
			keycount_pos += z * 2 - 1;
80002496:	bc 89       	st.b	lr[0x0],r9
80002498:	5c 59       	castu.b	r9
8000249a:	f8 09 18 00 	cp.b	r9,r12
8000249e:	e0 81 00 d8 	brne	8000264e <handler_MonomeGridKey+0x336>
			if(keycount_pos < 0) keycount_pos = 0;
800024a2:	ee 0b 18 00 	cp.b	r11,r7
800024a6:	e0 80 07 0d 	breq	800032c0 <handler_MonomeGridKey+0xfa8>
			// print_dbg("\r\nkeycount: "); 
			// print_dbg_ulong(keycount_pos);

			if(keycount_pos == 1 && z) {
800024aa:	e0 6a 1a 5d 	mov	r10,6749
800024ae:	15 8a       	ld.ub	r10,r10[0x0]
800024b0:	58 0a       	cp.w	r10,0
800024b2:	c1 21       	brne	800024d6 <handler_MonomeGridKey+0x1be>
800024b4:	e0 6a 1a 82 	mov	r10,6786
800024b8:	e0 69 07 66 	mov	r9,1894
				if(key_alt == 0) {
800024bc:	15 8b       	ld.ub	r11,r10[0x0]
800024be:	18 0b       	add	r11,r12
800024c0:	b4 8b       	st.b	r10[0x0],r11
800024c2:	13 8a       	ld.ub	r10,r9[0x0]
					next_pos = x;
					cut_pos++;
800024c4:	18 0a       	add	r10,r12
					monomeFrameDirty++;
800024c6:	b2 8a       	st.b	r9[0x0],r10
			// print_dbg_ulong(keycount_pos);

			if(keycount_pos == 1 && z) {
				if(key_alt == 0) {
					next_pos = x;
					cut_pos++;
800024c8:	e0 69 1a 53 	mov	r9,6739
800024cc:	1b b8       	ld.ub	r8,sp[0x3]
					monomeFrameDirty++;
800024ce:	b2 88       	st.b	r9[0x0],r8
800024d0:	e0 69 1a 92 	mov	r9,6802
			// print_dbg("\r\nkeycount: "); 
			// print_dbg_ulong(keycount_pos);

			if(keycount_pos == 1 && z) {
				if(key_alt == 0) {
					next_pos = x;
800024d4:	c5 89       	rjmp	80002784 <handler_MonomeGridKey+0x46c>
800024d6:	12 9b       	mov	r11,r9
800024d8:	f0 0a 18 00 	cp.b	r10,r8
					cut_pos++;
					monomeFrameDirty++;
					keyfirst_pos = x;
800024dc:	e0 81 06 f2 	brne	800032c0 <handler_MonomeGridKey+0xfa8>
				}
				else if(key_alt == 1) {
800024e0:	e0 68 0b 07 	mov	r8,2823
800024e4:	11 89       	ld.ub	r9,r8[0x0]
800024e6:	1b b8       	ld.ub	r8,sp[0x3]
					if(x == LENGTH)
800024e8:	f2 08 18 00 	cp.b	r8,r9
800024ec:	c1 01       	brne	8000250c <handler_MonomeGridKey+0x1f4>
800024ee:	e0 68 1a 5b 	mov	r8,6747
800024f2:	11 89       	ld.ub	r9,r8[0x0]
						w.wp[pattern].step_mode = mForward;
800024f4:	e0 68 00 ec 	mov	r8,236
800024f8:	f2 08 02 48 	mul	r8,r9,r8
800024fc:	e0 69 0b 0c 	mov	r9,2828
80002500:	f2 08 00 08 	add	r8,r9,r8
80002504:	30 09       	mov	r9,0
80002506:	2f 88       	sub	r8,-8
80002508:	e0 8f 01 ae 	bral	80002864 <handler_MonomeGridKey+0x54c>
8000250c:	f2 ca 00 01 	sub	r10,r9,1
					else if(x == LENGTH-1)
80002510:	14 38       	cp.w	r8,r10
80002512:	c0 e1       	brne	8000252e <handler_MonomeGridKey+0x216>
80002514:	e0 68 1a 5b 	mov	r8,6747
						w.wp[pattern].step_mode = mReverse;
80002518:	11 89       	ld.ub	r9,r8[0x0]
8000251a:	e0 68 00 ec 	mov	r8,236
8000251e:	f2 08 02 48 	mul	r8,r9,r8
80002522:	e0 69 0b 0c 	mov	r9,2828
80002526:	f2 08 00 08 	add	r8,r9,r8
8000252a:	30 19       	mov	r9,1
					else if(x == LENGTH-2)
8000252c:	c1 18       	rjmp	8000254e <handler_MonomeGridKey+0x236>
8000252e:	f2 ca 00 02 	sub	r10,r9,2
80002532:	14 38       	cp.w	r8,r10
						w.wp[pattern].step_mode = mDrunk;
80002534:	c1 01       	brne	80002554 <handler_MonomeGridKey+0x23c>
80002536:	e0 68 1a 5b 	mov	r8,6747
8000253a:	11 89       	ld.ub	r9,r8[0x0]
8000253c:	e0 68 00 ec 	mov	r8,236
80002540:	f2 08 02 48 	mul	r8,r9,r8
80002544:	e0 69 0b 0c 	mov	r9,2828
80002548:	f2 08 00 08 	add	r8,r9,r8
8000254c:	30 29       	mov	r9,2
					else if(x == LENGTH-3)
8000254e:	91 29       	st.w	r8[0x8],r9
80002550:	e0 8f 06 b8 	bral	800032c0 <handler_MonomeGridKey+0xfa8>
80002554:	f2 ca 00 03 	sub	r10,r9,3
						w.wp[pattern].step_mode = mRandom;
80002558:	14 38       	cp.w	r8,r10
8000255a:	c0 e1       	brne	80002576 <handler_MonomeGridKey+0x25e>
8000255c:	e0 68 1a 5b 	mov	r8,6747
80002560:	11 89       	ld.ub	r9,r8[0x0]
80002562:	e0 68 00 ec 	mov	r8,236
80002566:	f2 08 02 48 	mul	r8,r9,r8
8000256a:	e0 69 0b 0c 	mov	r9,2828
					// FIXME
					else if(x == 0) {
8000256e:	f2 08 00 08 	add	r8,r9,r8
						if(pos == w.wp[pattern].loop_start)
80002572:	30 39       	mov	r9,3
80002574:	ce db       	rjmp	8000254e <handler_MonomeGridKey+0x236>
80002576:	58 08       	cp.w	r8,0
80002578:	c1 e1       	brne	800025b4 <handler_MonomeGridKey+0x29c>
8000257a:	e0 68 0b 06 	mov	r8,2822
8000257e:	11 8a       	ld.ub	r10,r8[0x0]
80002580:	e0 68 1a 5b 	mov	r8,6747
80002584:	11 8b       	ld.ub	r11,r8[0x0]
80002586:	e0 68 00 ec 	mov	r8,236
8000258a:	f6 08 02 48 	mul	r8,r11,r8
8000258e:	e0 6b 0b 0c 	mov	r11,2828
							next_pos = w.wp[pattern].loop_end;
80002592:	f9 da b0 08 	bfexts	r12,r10,0x0,0x8
						else if(pos == 0)
80002596:	f6 08 00 08 	add	r8,r11,r8
							next_pos = LENGTH;
						else next_pos--;
8000259a:	11 8b       	ld.ub	r11,r8[0x0]
8000259c:	16 3c       	cp.w	r12,r11
8000259e:	c0 31       	brne	800025a4 <handler_MonomeGridKey+0x28c>
800025a0:	11 99       	ld.ub	r9,r8[0x1]
800025a2:	c1 f8       	rjmp	800025e0 <handler_MonomeGridKey+0x2c8>
800025a4:	e0 68 1a 53 	mov	r8,6739
800025a8:	58 0a       	cp.w	r10,0
800025aa:	c2 60       	breq	800025f6 <handler_MonomeGridKey+0x2de>
800025ac:	11 89       	ld.ub	r9,r8[0x0]
800025ae:	20 19       	sub	r9,1
800025b0:	c2 38       	rjmp	800025f6 <handler_MonomeGridKey+0x2de>
800025b2:	d7 03       	nop
800025b4:	f6 08 18 00 	cp.b	r8,r11
800025b8:	c2 a1       	brne	8000260c <handler_MonomeGridKey+0x2f4>
800025ba:	e0 68 0b 06 	mov	r8,2822
800025be:	f1 2a 00 00 	ld.sb	r10,r8[0]
800025c2:	e0 68 1a 5b 	mov	r8,6747
800025c6:	11 8b       	ld.ub	r11,r8[0x0]
						cut_pos = 1;
						monomeFrameDirty++;
					}
					// FIXME
					else if(x == 1) {
800025c8:	e0 68 00 ec 	mov	r8,236
800025cc:	f6 08 02 48 	mul	r8,r11,r8
						if(pos == w.wp[pattern].loop_end) next_pos = w.wp[pattern].loop_start;
800025d0:	e0 6b 0b 0c 	mov	r11,2828
800025d4:	f6 08 00 08 	add	r8,r11,r8
800025d8:	11 9b       	ld.ub	r11,r8[0x1]
800025da:	16 3a       	cp.w	r10,r11
800025dc:	c0 51       	brne	800025e6 <handler_MonomeGridKey+0x2ce>
800025de:	11 89       	ld.ub	r9,r8[0x0]
800025e0:	e0 68 1a 53 	mov	r8,6739
800025e4:	c0 98       	rjmp	800025f6 <handler_MonomeGridKey+0x2de>
800025e6:	e0 68 1a 53 	mov	r8,6739
800025ea:	12 3a       	cp.w	r10,r9
800025ec:	c0 31       	brne	800025f2 <handler_MonomeGridKey+0x2da>
800025ee:	30 09       	mov	r9,0
800025f0:	c0 38       	rjmp	800025f6 <handler_MonomeGridKey+0x2de>
800025f2:	11 89       	ld.ub	r9,r8[0x0]
						else if(pos == LENGTH) next_pos = 0;
800025f4:	2f f9       	sub	r9,-1
800025f6:	b0 89       	st.b	r8[0x0],r9
800025f8:	e0 68 07 66 	mov	r8,1894
						else next_pos++;
800025fc:	11 89       	ld.ub	r9,r8[0x0]
800025fe:	2f f9       	sub	r9,-1
80002600:	b0 89       	st.b	r8[0x0],r9
						cut_pos = 1;
						monomeFrameDirty++;
80002602:	30 19       	mov	r9,1
80002604:	e0 68 1a 82 	mov	r8,6786
80002608:	e0 8f 06 5b 	bral	800032be <handler_MonomeGridKey+0xfa6>
					// FIXME
					else if(x == 1) {
						if(pos == w.wp[pattern].loop_end) next_pos = w.wp[pattern].loop_start;
						else if(pos == LENGTH) next_pos = 0;
						else next_pos++;
						cut_pos = 1;
8000260c:	30 29       	mov	r9,2
8000260e:	f2 08 18 00 	cp.b	r8,r9
						monomeFrameDirty++;
					}
					else if(x == 2 ) {
80002612:	e0 81 06 57 	brne	800032c0 <handler_MonomeGridKey+0xfa8>
80002616:	e0 a0 1a 97 	rcall	80005b44 <rnd>
8000261a:	e0 69 07 66 	mov	r9,1894
						next_pos = (rnd() % (w.wp[pattern].loop_len + 1)) + w.wp[pattern].loop_start;
8000261e:	e0 68 1a 5b 	mov	r8,6747
80002622:	11 8a       	ld.ub	r10,r8[0x0]
80002624:	13 88       	ld.ub	r8,r9[0x0]
						cut_pos = 1;
						monomeFrameDirty++;					
80002626:	2f f8       	sub	r8,-1
80002628:	b2 88       	st.b	r9[0x0],r8
8000262a:	e0 69 0b 0c 	mov	r9,2828
						else next_pos++;
						cut_pos = 1;
						monomeFrameDirty++;
					}
					else if(x == 2 ) {
						next_pos = (rnd() % (w.wp[pattern].loop_len + 1)) + w.wp[pattern].loop_start;
8000262e:	e0 68 00 ec 	mov	r8,236
80002632:	f4 08 02 48 	mul	r8,r10,r8
80002636:	f2 08 00 08 	add	r8,r9,r8
8000263a:	11 89       	ld.ub	r9,r8[0x0]
8000263c:	11 a8       	ld.ub	r8,r8[0x2]
8000263e:	2f f8       	sub	r8,-1
80002640:	f8 08 0d 0a 	divu	r10,r12,r8
80002644:	e0 6a 1a 53 	mov	r10,6739
80002648:	16 09       	add	r9,r11
8000264a:	b4 89       	st.b	r10[0x0],r9
						cut_pos = 1;
						monomeFrameDirty++;					
					}
				}
			}
			else if(keycount_pos == 2 && z) {
8000264c:	cd bb       	rjmp	80002602 <handler_MonomeGridKey+0x2ea>
8000264e:	30 28       	mov	r8,2
80002650:	f0 09 18 00 	cp.b	r9,r8
80002654:	e0 81 06 36 	brne	800032c0 <handler_MonomeGridKey+0xfa8>
80002658:	ee 0b 18 00 	cp.b	r11,r7
8000265c:	e0 80 06 32 	breq	800032c0 <handler_MonomeGridKey+0xfa8>
				w.wp[pattern].loop_start = keyfirst_pos;
				w.wp[pattern].loop_end = x;
	 			monomeFrameDirty++;
80002660:	e0 68 07 66 	mov	r8,1894
80002664:	11 8a       	ld.ub	r10,r8[0x0]
						monomeFrameDirty++;					
					}
				}
			}
			else if(keycount_pos == 2 && z) {
				w.wp[pattern].loop_start = keyfirst_pos;
80002666:	2f fa       	sub	r10,-1
80002668:	b0 8a       	st.b	r8[0x0],r10
8000266a:	e0 68 1a 5b 	mov	r8,6747
8000266e:	e0 6a 0b 0c 	mov	r10,2828
80002672:	11 8b       	ld.ub	r11,r8[0x0]
80002674:	e0 68 00 ec 	mov	r8,236
80002678:	f6 08 02 48 	mul	r8,r11,r8
8000267c:	f4 08 00 08 	add	r8,r10,r8
				w.wp[pattern].loop_end = x;
80002680:	e0 6a 1a 92 	mov	r10,6802
	 			monomeFrameDirty++;
	 			if(w.wp[pattern].loop_start > w.wp[pattern].loop_end) w.wp[pattern].loop_dir = 2;
80002684:	15 8a       	ld.ub	r10,r10[0x0]
80002686:	b0 8a       	st.b	r8[0x0],r10
80002688:	1b ba       	ld.ub	r10,sp[0x3]
8000268a:	b0 9a       	st.b	r8[0x1],r10
8000268c:	11 8a       	ld.ub	r10,r8[0x0]
8000268e:	11 9c       	ld.ub	r12,r8[0x1]
80002690:	f8 0a 18 00 	cp.b	r10,r12
	 			else if(w.wp[pattern].loop_start == 0 && w.wp[pattern].loop_end == LENGTH) w.wp[pattern].loop_dir = 0;
80002694:	e0 88 00 04 	brls	8000269c <handler_MonomeGridKey+0x384>
80002698:	b0 b9       	st.b	r8[0x3],r9
8000269a:	c1 48       	rjmp	800026c2 <handler_MonomeGridKey+0x3aa>
8000269c:	58 0a       	cp.w	r10,0
8000269e:	c0 91       	brne	800026b0 <handler_MonomeGridKey+0x398>
800026a0:	e0 69 0b 07 	mov	r9,2823
	 			else w.wp[pattern].loop_dir = 1;
800026a4:	13 89       	ld.ub	r9,r9[0x0]
800026a6:	f8 09 18 00 	cp.b	r9,r12
800026aa:	c0 31       	brne	800026b0 <handler_MonomeGridKey+0x398>
800026ac:	b0 ba       	st.b	r8[0x3],r10
800026ae:	c0 a8       	rjmp	800026c2 <handler_MonomeGridKey+0x3aa>
800026b0:	e0 68 00 ec 	mov	r8,236

	 			w.wp[pattern].loop_len = w.wp[pattern].loop_end - w.wp[pattern].loop_start;
800026b4:	b1 3b       	mul	r11,r8
800026b6:	e0 68 0b 0c 	mov	r8,2828
800026ba:	f0 0b 00 0b 	add	r11,r8,r11
800026be:	30 18       	mov	r8,1
800026c0:	b6 b8       	st.b	r11[0x3],r8
800026c2:	e0 68 1a 5b 	mov	r8,6747
800026c6:	11 89       	ld.ub	r9,r8[0x0]
800026c8:	e0 68 00 ec 	mov	r8,236
800026cc:	f2 08 02 48 	mul	r8,r9,r8
800026d0:	e0 69 0b 0c 	mov	r9,2828
800026d4:	f2 08 00 08 	add	r8,r9,r8
800026d8:	11 9a       	ld.ub	r10,r8[0x1]
800026da:	11 89       	ld.ub	r9,r8[0x0]
800026dc:	f4 09 01 09 	sub	r9,r10,r9
800026e0:	b0 a9       	st.b	r8[0x2],r9
800026e2:	e0 8f 05 ef 	bral	800032c0 <handler_MonomeGridKey+0xfa8>
800026e6:	d7 03       	nop
800026e8:	58 08       	cp.w	r8,0
800026ea:	e0 81 00 c3 	brne	80002870 <handler_MonomeGridKey+0x558>
800026ee:	e0 69 0b 07 	mov	r9,2823
800026f2:	13 8b       	ld.ub	r11,r9[0x0]
800026f4:	1b b9       	ld.ub	r9,sp[0x3]
800026f6:	f6 09 18 00 	cp.b	r9,r11
				// print_dbg_ulong(loop_len);
			}
		}

		// top row
		else if(y == 0) {
800026fa:	c1 01       	brne	8000271a <handler_MonomeGridKey+0x402>
800026fc:	1b 99       	ld.ub	r9,sp[0x1]
			if(x == LENGTH) {
800026fe:	e0 6b 1a 5d 	mov	r11,6749
80002702:	b6 89       	st.b	r11[0x0],r9
80002704:	ee 09 18 00 	cp.b	r9,r7
80002708:	e0 81 05 d7 	brne	800032b6 <handler_MonomeGridKey+0xf9e>
				key_alt = z;
8000270c:	e0 6a 1a 78 	mov	r10,6776
				if(z == 0) {
80002710:	b4 88       	st.b	r10[0x0],r8
80002712:	e0 68 1a 54 	mov	r8,6740
80002716:	e0 8f 04 b4 	bral	8000307e <handler_MonomeGridKey+0xd66>
					param_accept = 0;
8000271a:	30 3c       	mov	r12,3
					live_in = 0;
8000271c:	f8 09 18 00 	cp.b	r9,r12
80002720:	e0 8b 00 35 	brhi	8000278a <handler_MonomeGridKey+0x472>
				}
				monomeFrameDirty++;
			}
			else if(x < 4 && z) {
80002724:	1b 9c       	ld.ub	r12,sp[0x1]
80002726:	ee 0c 18 00 	cp.b	r12,r7
8000272a:	c3 00       	breq	8000278a <handler_MonomeGridKey+0x472>
8000272c:	e0 6b 1a 5d 	mov	r11,6749
80002730:	17 8b       	ld.ub	r11,r11[0x0]
80002732:	ee 0b 18 00 	cp.b	r11,r7
				if(key_alt) w.wp[pattern].steps[pos] |=  1 << x;
80002736:	c1 90       	breq	80002768 <handler_MonomeGridKey+0x450>
80002738:	e0 68 1a 5b 	mov	r8,6747
8000273c:	11 8b       	ld.ub	r11,r8[0x0]
8000273e:	e0 68 0b 06 	mov	r8,2822
80002742:	f1 2a 00 00 	ld.sb	r10,r8[0]
80002746:	e0 68 00 ec 	mov	r8,236
8000274a:	f6 08 02 48 	mul	r8,r11,r8
8000274e:	e0 6b 0b 0c 	mov	r11,2828
80002752:	f6 08 00 08 	add	r8,r11,r8
80002756:	14 08       	add	r8,r10
80002758:	30 1a       	mov	r10,1
8000275a:	2f 48       	sub	r8,-12
8000275c:	f4 09 09 49 	lsl	r9,r10,r9
80002760:	11 8a       	ld.ub	r10,r8[0x0]
80002762:	14 49       	or	r9,r10
80002764:	b0 89       	st.b	r8[0x0],r9
80002766:	c0 48       	rjmp	8000276e <handler_MonomeGridKey+0x456>
				else edit_mode = mTrig;
80002768:	e0 69 1a 88 	mov	r9,6792
				edit_prob = 0;
				param_accept = 0;
				monomeFrameDirty++;
8000276c:	93 08       	st.w	r9[0x0],r8
				monomeFrameDirty++;
			}
			else if(x < 4 && z) {
				if(key_alt) w.wp[pattern].steps[pos] |=  1 << x;
				else edit_mode = mTrig;
				edit_prob = 0;
8000276e:	e0 69 07 66 	mov	r9,1894
80002772:	e0 6a 1a 81 	mov	r10,6785
				param_accept = 0;
				monomeFrameDirty++;
80002776:	30 08       	mov	r8,0
80002778:	b4 88       	st.b	r10[0x0],r8
			}
			else if(x < 4 && z) {
				if(key_alt) w.wp[pattern].steps[pos] |=  1 << x;
				else edit_mode = mTrig;
				edit_prob = 0;
				param_accept = 0;
8000277a:	13 8a       	ld.ub	r10,r9[0x0]
8000277c:	2f fa       	sub	r10,-1
					param_accept = 0;
					live_in = 0;
				}
				monomeFrameDirty++;
			}
			else if(x < 4 && z) {
8000277e:	b2 8a       	st.b	r9[0x0],r10
80002780:	e0 69 1a 78 	mov	r9,6776
				else edit_mode = mTrig;
				edit_prob = 0;
				param_accept = 0;
				monomeFrameDirty++;
			}
			else if(SIZE==16 && x > 3 && x < 12 && z) {
80002784:	b2 88       	st.b	r9[0x0],r8
80002786:	e0 8f 05 9d 	bral	800032c0 <handler_MonomeGridKey+0xfa8>
8000278a:	e0 68 0a f4 	mov	r8,2804
8000278e:	31 0a       	mov	r10,16
80002790:	11 88       	ld.ub	r8,r8[0x0]
80002792:	f4 08 18 00 	cp.b	r8,r10
80002796:	c1 91       	brne	800027c8 <handler_MonomeGridKey+0x4b0>
80002798:	30 38       	mov	r8,3
8000279a:	f0 09 18 00 	cp.b	r9,r8
8000279e:	e0 88 00 4d 	brls	80002838 <handler_MonomeGridKey+0x520>
800027a2:	30 b8       	mov	r8,11
800027a4:	f0 09 18 00 	cp.b	r9,r8
800027a8:	e0 8b 00 48 	brhi	80002838 <handler_MonomeGridKey+0x520>
				param_accept = 0;
800027ac:	30 08       	mov	r8,0
				edit_cv_ch = (x-4)/4;
800027ae:	1b 9a       	ld.ub	r10,sp[0x1]
				edit_prob = 0;
				param_accept = 0;
				monomeFrameDirty++;
			}
			else if(SIZE==16 && x > 3 && x < 12 && z) {
				param_accept = 0;
800027b0:	f0 0a 18 00 	cp.b	r10,r8
				edit_cv_ch = (x-4)/4;
800027b4:	c4 20       	breq	80002838 <handler_MonomeGridKey+0x520>
800027b6:	e0 69 1a 78 	mov	r9,6776
800027ba:	1b bb       	ld.ub	r11,sp[0x3]
				if(key_alt)
					w.wp[pattern].cv_mode[edit_cv_ch] ^= 1;

				monomeFrameDirty++;
			}
			else if(SIZE==8 && (x == 4 || x == 5) && z) {
800027bc:	b2 88       	st.b	r9[0x0],r8
800027be:	20 4b       	sub	r11,4
800027c0:	30 49       	mov	r9,4
800027c2:	f6 09 0c 0a 	divs	r10,r11,r9
800027c6:	c1 68       	rjmp	800027f2 <handler_MonomeGridKey+0x4da>
800027c8:	30 8a       	mov	r10,8
800027ca:	f4 08 18 00 	cp.b	r8,r10
800027ce:	c3 51       	brne	80002838 <handler_MonomeGridKey+0x520>
800027d0:	f2 ca 00 04 	sub	r10,r9,4
800027d4:	30 18       	mov	r8,1
800027d6:	f0 0a 18 00 	cp.b	r10,r8
800027da:	e0 8b 00 2f 	brhi	80002838 <handler_MonomeGridKey+0x520>
				param_accept = 0;
				edit_cv_ch = x-4;
800027de:	30 08       	mov	r8,0
					w.wp[pattern].cv_mode[edit_cv_ch] ^= 1;

				monomeFrameDirty++;
			}
			else if(SIZE==8 && (x == 4 || x == 5) && z) {
				param_accept = 0;
800027e0:	1b 9a       	ld.ub	r10,sp[0x1]
				edit_cv_ch = x-4;
800027e2:	f0 0a 18 00 	cp.b	r10,r8
800027e6:	c2 90       	breq	80002838 <handler_MonomeGridKey+0x520>
800027e8:	e0 69 1a 78 	mov	r9,6776
				edit_mode = mMap;
800027ec:	1b ba       	ld.ub	r10,sp[0x3]
800027ee:	b2 88       	st.b	r9[0x0],r8
				edit_prob = 0;
800027f0:	20 4a       	sub	r10,4
800027f2:	e0 69 1a 77 	mov	r9,6775

				if(key_alt)
800027f6:	5c 5a       	castu.b	r10
800027f8:	b2 8a       	st.b	r9[0x0],r10
800027fa:	e0 69 1a 88 	mov	r9,6792
800027fe:	30 1b       	mov	r11,1
					w.wp[pattern].cv_mode[edit_cv_ch] ^= 1;
80002800:	93 0b       	st.w	r9[0x0],r11
80002802:	e0 69 1a 81 	mov	r9,6785
80002806:	b2 88       	st.b	r9[0x0],r8
80002808:	e0 69 1a 5d 	mov	r9,6749
8000280c:	13 89       	ld.ub	r9,r9[0x0]
8000280e:	f0 09 18 00 	cp.b	r9,r8
80002812:	e0 80 05 52 	breq	800032b6 <handler_MonomeGridKey+0xf9e>
80002816:	e0 68 1a 5b 	mov	r8,6747
8000281a:	11 89       	ld.ub	r9,r8[0x0]
8000281c:	e0 68 00 ec 	mov	r8,236
80002820:	b1 39       	mul	r9,r8
80002822:	e0 68 0b 0c 	mov	r8,2828
80002826:	f0 09 00 09 	add	r9,r8,r9
8000282a:	14 09       	add	r9,r10
8000282c:	2f c9       	sub	r9,-4
8000282e:	13 a8       	ld.ub	r8,r9[0x2]
80002830:	16 58       	eor	r8,r11
80002832:	b2 a8       	st.b	r9[0x2],r8
80002834:	e0 8f 05 41 	bral	800032b6 <handler_MonomeGridKey+0xf9e>
80002838:	20 1b       	sub	r11,1
8000283a:	16 39       	cp.w	r9,r11
8000283c:	e0 81 05 42 	brne	800032c0 <handler_MonomeGridKey+0xfa8>
80002840:	1b 98       	ld.ub	r8,sp[0x1]
80002842:	58 08       	cp.w	r8,0
80002844:	c1 30       	breq	8000286a <handler_MonomeGridKey+0x552>
80002846:	e0 69 1a 5d 	mov	r9,6749
8000284a:	13 8a       	ld.ub	r10,r9[0x0]
8000284c:	30 09       	mov	r9,0
8000284e:	f2 0a 18 00 	cp.b	r10,r9

				monomeFrameDirty++;
			}
			else if(x == LENGTH-1 && z && key_alt) {
80002852:	c0 c0       	breq	8000286a <handler_MonomeGridKey+0x552>
80002854:	e0 68 07 66 	mov	r8,1894
80002858:	11 89       	ld.ub	r9,r8[0x0]
8000285a:	2f f9       	sub	r9,-1
8000285c:	b0 89       	st.b	r8[0x0],r9
8000285e:	30 29       	mov	r9,2
80002860:	e0 68 1a 88 	mov	r8,6792
80002864:	91 09       	st.w	r8[0x0],r9
80002866:	e0 8f 05 2d 	bral	800032c0 <handler_MonomeGridKey+0xfa8>
				edit_mode = mSeries;
				monomeFrameDirty++;
8000286a:	e0 69 1a 75 	mov	r9,6773
8000286e:	c8 bb       	rjmp	80002784 <handler_MonomeGridKey+0x46c>
80002870:	e0 69 1a 88 	mov	r9,6792
					w.wp[pattern].cv_mode[edit_cv_ch] ^= 1;

				monomeFrameDirty++;
			}
			else if(x == LENGTH-1 && z && key_alt) {
				edit_mode = mSeries;
80002874:	72 0b       	ld.w	r11,r9[0x0]
80002876:	58 0b       	cp.w	r11,0
				if(key_alt)
					w.wp[pattern].cv_mode[edit_cv_ch] ^= 1;

				monomeFrameDirty++;
			}
			else if(x == LENGTH-1 && z && key_alt) {
80002878:	e0 81 00 af 	brne	800029d6 <handler_MonomeGridKey+0x6be>
				edit_mode = mSeries;
				monomeFrameDirty++;
			}
			else if(x == LENGTH-1)
				scroll = z;
8000287c:	1b 99       	ld.ub	r9,sp[0x1]
8000287e:	58 09       	cp.w	r9,0
		}


		// toggle steps and prob control
		else if(edit_mode == mTrig) {
80002880:	c5 70       	breq	8000292e <handler_MonomeGridKey+0x616>
80002882:	30 3b       	mov	r11,3
80002884:	f6 08 18 00 	cp.b	r8,r11
80002888:	e0 88 00 36 	brls	800028f4 <handler_MonomeGridKey+0x5dc>
			if(z && y>3 && edit_prob == 0) {
8000288c:	e0 6b 1a 81 	mov	r11,6785
80002890:	17 8c       	ld.ub	r12,r11[0x0]
80002892:	ee 0c 18 00 	cp.b	r12,r7
80002896:	c4 c1       	brne	8000292e <handler_MonomeGridKey+0x616>
80002898:	e0 69 1a 5d 	mov	r9,6749
8000289c:	1b ba       	ld.ub	r10,sp[0x3]
8000289e:	13 8e       	ld.ub	lr,r9[0x0]
800028a0:	e0 6b 1a 5b 	mov	r11,6747
				if(key_alt)
800028a4:	e0 69 0b 0c 	mov	r9,2828
800028a8:	f8 0e 18 00 	cp.b	lr,r12
800028ac:	c1 30       	breq	800028d2 <handler_MonomeGridKey+0x5ba>
800028ae:	17 88       	ld.ub	r8,r11[0x0]
800028b0:	30 1b       	mov	r11,1
800028b2:	f6 0a 09 4a 	lsl	r10,r11,r10
					w.wp[pattern].step_choice ^= (1<<x);
800028b6:	f0 0b 15 04 	lsl	r11,r8,0x4
800028ba:	10 1b       	sub	r11,r8
800028bc:	a3 6b       	lsl	r11,0x2
800028be:	f6 08 01 08 	sub	r8,r11,r8
800028c2:	2f f8       	sub	r8,-1
800028c4:	f2 08 04 2b 	ld.sh	r11,r9[r8<<0x2]
800028c8:	16 5a       	eor	r10,r11
800028ca:	f2 08 0a 2a 	st.h	r9[r8<<0x2],r10
800028ce:	e0 8f 04 f4 	bral	800032b6 <handler_MonomeGridKey+0xf9e>
800028d2:	17 8c       	ld.ub	r12,r11[0x0]
800028d4:	e0 6b 00 ec 	mov	r11,236
				else
					w.wp[pattern].steps[x] ^= (1<<(y-4));
800028d8:	f8 0b 03 49 	mac	r9,r12,r11
800028dc:	f2 0a 00 0a 	add	r10,r9,r10
800028e0:	30 19       	mov	r9,1
800028e2:	2f 4a       	sub	r10,-12
800028e4:	20 48       	sub	r8,4
800028e6:	f2 08 09 48 	lsl	r8,r9,r8
800028ea:	15 89       	ld.ub	r9,r10[0x0]
800028ec:	12 58       	eor	r8,r9
800028ee:	b4 88       	st.b	r10[0x0],r8
800028f0:	e0 8f 04 e3 	bral	800032b6 <handler_MonomeGridKey+0xf9e>
800028f4:	f6 08 18 00 	cp.b	r8,r11
800028f8:	c1 b1       	brne	8000292e <handler_MonomeGridKey+0x616>
				monomeFrameDirty++;
			}
			// step probs
			else if(z && y==3) {
800028fa:	e0 68 1a 5d 	mov	r8,6749
800028fe:	11 89       	ld.ub	r9,r8[0x0]
				if(key_alt)
80002900:	ee 09 18 00 	cp.b	r9,r7
80002904:	c0 60       	breq	80002910 <handler_MonomeGridKey+0x5f8>
80002906:	e0 68 1a 81 	mov	r8,6785
					edit_prob = 1;
8000290a:	b0 8c       	st.b	r8[0x0],r12
8000290c:	e0 8f 04 d5 	bral	800032b6 <handler_MonomeGridKey+0xf9e>
80002910:	e0 68 1a 5b 	mov	r8,6747
				else {
					if(w.wp[pattern].step_probs[x] == 255) w.wp[pattern].step_probs[x] = 0;
80002914:	11 8b       	ld.ub	r11,r8[0x0]
80002916:	1b ba       	ld.ub	r10,sp[0x3]
80002918:	e0 68 00 ec 	mov	r8,236
8000291c:	f6 08 02 48 	mul	r8,r11,r8
80002920:	e0 6b 0b 0c 	mov	r11,2828
80002924:	f6 08 00 08 	add	r8,r11,r8
80002928:	14 08       	add	r8,r10
8000292a:	2e 48       	sub	r8,-28
					else w.wp[pattern].step_probs[x] = 255;
				}	
				monomeFrameDirty++;
			}
			else if(edit_prob == 1) {
8000292c:	c7 f8       	rjmp	80002a2a <handler_MonomeGridKey+0x712>
8000292e:	e0 6a 1a 81 	mov	r10,6785
80002932:	15 8b       	ld.ub	r11,r10[0x0]
80002934:	30 1a       	mov	r10,1
80002936:	f4 0b 18 00 	cp.b	r11,r10
				if(z) {
8000293a:	e0 81 04 c3 	brne	800032c0 <handler_MonomeGridKey+0xfa8>
8000293e:	58 09       	cp.w	r9,0
					if(y == 4) w.wp[pattern].step_probs[x] = 192;
80002940:	e0 80 04 c0 	breq	800032c0 <handler_MonomeGridKey+0xfa8>
80002944:	30 49       	mov	r9,4
80002946:	f2 08 18 00 	cp.b	r8,r9
8000294a:	c1 01       	brne	8000296a <handler_MonomeGridKey+0x652>
8000294c:	1b b9       	ld.ub	r9,sp[0x3]
8000294e:	e0 68 1a 5b 	mov	r8,6747
80002952:	11 8a       	ld.ub	r10,r8[0x0]
80002954:	e0 68 00 ec 	mov	r8,236
80002958:	f4 08 02 48 	mul	r8,r10,r8
8000295c:	e0 6a 0b 0c 	mov	r10,2828
80002960:	f4 08 00 08 	add	r8,r10,r8
					else if(y == 5) w.wp[pattern].step_probs[x] = 128;
80002964:	12 08       	add	r8,r9
80002966:	3c 09       	mov	r9,-64
80002968:	c1 38       	rjmp	8000298e <handler_MonomeGridKey+0x676>
8000296a:	30 59       	mov	r9,5
8000296c:	f2 08 18 00 	cp.b	r8,r9
80002970:	c1 41       	brne	80002998 <handler_MonomeGridKey+0x680>
80002972:	1b b9       	ld.ub	r9,sp[0x3]
80002974:	e0 68 1a 5b 	mov	r8,6747
80002978:	11 8a       	ld.ub	r10,r8[0x0]
8000297a:	e0 68 00 ec 	mov	r8,236
8000297e:	f4 08 02 48 	mul	r8,r10,r8
80002982:	e0 6a 0b 0c 	mov	r10,2828
80002986:	f4 08 00 08 	add	r8,r10,r8
8000298a:	12 08       	add	r8,r9
8000298c:	38 09       	mov	r9,-128
8000298e:	f1 69 00 1c 	st.b	r8[28],r9
80002992:	e0 8f 04 97 	bral	800032c0 <handler_MonomeGridKey+0xfa8>
80002996:	d7 03       	nop
80002998:	1b ba       	ld.ub	r10,sp[0x3]
8000299a:	e0 6b 1a 5b 	mov	r11,6747
8000299e:	e0 69 0b 0c 	mov	r9,2828
800029a2:	30 6c       	mov	r12,6
800029a4:	f8 08 18 00 	cp.b	r8,r12
800029a8:	c0 d1       	brne	800029c2 <handler_MonomeGridKey+0x6aa>
800029aa:	e0 68 00 ec 	mov	r8,236
					else if(y == 6) w.wp[pattern].step_probs[x] = 64;
800029ae:	17 8b       	ld.ub	r11,r11[0x0]
800029b0:	f6 08 03 49 	mac	r9,r11,r8
800029b4:	34 08       	mov	r8,64
800029b6:	f2 0a 00 0a 	add	r10,r9,r10
800029ba:	f5 68 00 1c 	st.b	r10[28],r8
800029be:	e0 8f 04 81 	bral	800032c0 <handler_MonomeGridKey+0xfa8>
800029c2:	17 8b       	ld.ub	r11,r11[0x0]
800029c4:	e0 68 00 ec 	mov	r8,236
800029c8:	f6 08 03 49 	mac	r9,r11,r8
800029cc:	f2 0a 00 0a 	add	r10,r9,r10
					else w.wp[pattern].step_probs[x] = 0;
800029d0:	2e 4a       	sub	r10,-28
800029d2:	e0 8f 03 c0 	bral	80003152 <handler_MonomeGridKey+0xe3a>
800029d6:	58 1b       	cp.w	r11,1
800029d8:	e0 81 03 c0 	brne	80003158 <handler_MonomeGridKey+0xe40>
800029dc:	1b 99       	ld.ub	r9,sp[0x1]
800029de:	58 09       	cp.w	r9,0
800029e0:	c2 e0       	breq	80002a3c <handler_MonomeGridKey+0x724>
				}
			}
		}	
		
		// edit map and probs
		else if(edit_mode == mMap) {
800029e2:	30 3c       	mov	r12,3
800029e4:	f8 08 18 00 	cp.b	r8,r12
			// step probs
			if(z && y==3) {
800029e8:	c2 a1       	brne	80002a3c <handler_MonomeGridKey+0x724>
800029ea:	e0 68 1a 5d 	mov	r8,6749
800029ee:	11 89       	ld.ub	r9,r8[0x0]
800029f0:	ee 09 18 00 	cp.b	r9,r7
800029f4:	c0 60       	breq	80002a00 <handler_MonomeGridKey+0x6e8>
				if(key_alt)
800029f6:	e0 68 1a 81 	mov	r8,6785
800029fa:	b0 8b       	st.b	r8[0x0],r11
800029fc:	e0 8f 04 5d 	bral	800032b6 <handler_MonomeGridKey+0xf9e>
					edit_prob = 1;
80002a00:	e0 68 1a 5b 	mov	r8,6747
80002a04:	11 8c       	ld.ub	r12,r8[0x0]
80002a06:	e0 68 1a 77 	mov	r8,6775
				else  {
					if(w.wp[pattern].cv_probs[edit_cv_ch][x] == 255) w.wp[pattern].cv_probs[edit_cv_ch][x] = 0;
80002a0a:	11 8b       	ld.ub	r11,r8[0x0]
80002a0c:	a5 6b       	lsl	r11,0x4
80002a0e:	1b ba       	ld.ub	r10,sp[0x3]
80002a10:	e0 68 00 ec 	mov	r8,236
80002a14:	f8 08 02 48 	mul	r8,r12,r8
80002a18:	f6 08 00 08 	add	r8,r11,r8
80002a1c:	e0 6b 0b 0c 	mov	r11,2828
80002a20:	f6 08 00 08 	add	r8,r11,r8
80002a24:	14 08       	add	r8,r10
80002a26:	f0 c8 ff 34 	sub	r8,r8,-204
80002a2a:	11 8b       	ld.ub	r11,r8[0x0]
80002a2c:	3f fa       	mov	r10,-1
80002a2e:	f4 0b 18 00 	cp.b	r11,r10
80002a32:	f2 0a 17 00 	moveq	r10,r9
80002a36:	b0 8a       	st.b	r8[0x0],r10
80002a38:	e0 8f 04 3f 	bral	800032b6 <handler_MonomeGridKey+0xf9e>
80002a3c:	e0 6a 1a 81 	mov	r10,6785
				}
					
				monomeFrameDirty++;
			}
			// edit data
			else if(edit_prob == 0) {
80002a40:	15 8a       	ld.ub	r10,r10[0x0]
80002a42:	58 0a       	cp.w	r10,0
80002a44:	e0 81 03 1f 	brne	80003082 <handler_MonomeGridKey+0xd6a>
				// CURVES
				if(w.wp[pattern].cv_mode[edit_cv_ch] == 0) {
80002a48:	e0 6b 1a 5b 	mov	r11,6747
80002a4c:	17 87       	ld.ub	r7,r11[0x0]
80002a4e:	e0 6b 1a 77 	mov	r11,6775
80002a52:	e0 65 00 ec 	mov	r5,236
80002a56:	17 86       	ld.ub	r6,r11[0x0]
80002a58:	ee 05 02 45 	mul	r5,r7,r5
80002a5c:	e0 6b 0b 0c 	mov	r11,2828
80002a60:	f6 05 00 0c 	add	r12,r11,r5
80002a64:	0c 0c       	add	r12,r6
80002a66:	19 ee       	ld.ub	lr,r12[0x6]
80002a68:	f4 0e 18 00 	cp.b	lr,r10
					if(y == 4 && z) {
80002a6c:	e0 81 01 18 	brne	80002c9c <handler_MonomeGridKey+0x984>
80002a70:	30 4a       	mov	r10,4
80002a72:	f4 08 18 00 	cp.b	r8,r10
80002a76:	c2 e1       	brne	80002ad2 <handler_MonomeGridKey+0x7ba>
						if(center) 
80002a78:	58 09       	cp.w	r9,0
80002a7a:	e0 80 00 8b 	breq	80002b90 <handler_MonomeGridKey+0x878>
80002a7e:	e0 68 1a 5f 	mov	r8,6751
80002a82:	11 88       	ld.ub	r8,r8[0x0]
80002a84:	fc 08 18 00 	cp.b	r8,lr
							delta = 3;
						else if(key_alt)
80002a88:	c0 30       	breq	80002a8e <handler_MonomeGridKey+0x776>
80002a8a:	30 39       	mov	r9,3
80002a8c:	c0 a8       	rjmp	80002aa0 <handler_MonomeGridKey+0x788>
80002a8e:	e0 69 1a 5d 	mov	r9,6749
80002a92:	13 8a       	ld.ub	r10,r9[0x0]
80002a94:	e0 69 01 99 	mov	r9,409
							delta = 409;
						else						
							delta = 34;

						// saturate
						if(w.wp[pattern].cv_curves[edit_cv_ch][x] + delta < 4092)
80002a98:	f0 0a 18 00 	cp.b	r10,r8
80002a9c:	f9 b9 00 22 	moveq	r9,34
80002aa0:	1b b8       	ld.ub	r8,sp[0x3]
80002aa2:	a5 66       	lsl	r6,0x4
80002aa4:	ee 07 10 76 	mul	r7,r7,118
80002aa8:	ec 07 00 07 	add	r7,r6,r7
80002aac:	10 07       	add	r7,r8
80002aae:	e0 68 0b 0c 	mov	r8,2828
80002ab2:	2b a7       	sub	r7,-70
80002ab4:	f0 07 04 1a 	ld.sh	r10,r8[r7<<0x1]
80002ab8:	f7 da c0 10 	bfextu	r11,r10,0x0,0x10
							w.wp[pattern].cv_curves[edit_cv_ch][x] += delta;
80002abc:	f2 0b 00 0b 	add	r11,r9,r11
						else
							w.wp[pattern].cv_curves[edit_cv_ch][x] = 4092;
80002ac0:	e0 4b 0f fb 	cp.w	r11,4091
80002ac4:	e0 89 00 04 	brgt	80002acc <handler_MonomeGridKey+0x7b4>
					}
					else if(y == 6 && z) {
80002ac8:	14 09       	add	r9,r10
80002aca:	c3 18       	rjmp	80002b2c <handler_MonomeGridKey+0x814>
80002acc:	e0 69 0f fc 	mov	r9,4092
80002ad0:	c2 e8       	rjmp	80002b2c <handler_MonomeGridKey+0x814>
						if(center)
80002ad2:	30 6a       	mov	r10,6
80002ad4:	f4 08 18 00 	cp.b	r8,r10
80002ad8:	c2 e1       	brne	80002b34 <handler_MonomeGridKey+0x81c>
80002ada:	58 09       	cp.w	r9,0
80002adc:	c5 a0       	breq	80002b90 <handler_MonomeGridKey+0x878>
80002ade:	e0 68 1a 5f 	mov	r8,6751
80002ae2:	11 88       	ld.ub	r8,r8[0x0]
80002ae4:	fc 08 18 00 	cp.b	r8,lr
80002ae8:	c0 40       	breq	80002af0 <handler_MonomeGridKey+0x7d8>
80002aea:	30 39       	mov	r9,3
80002aec:	c0 b8       	rjmp	80002b02 <handler_MonomeGridKey+0x7ea>
80002aee:	d7 03       	nop
80002af0:	e0 69 1a 5d 	mov	r9,6749
80002af4:	13 8a       	ld.ub	r10,r9[0x0]
80002af6:	e0 69 01 99 	mov	r9,409
							delta = 3;
						else if(key_alt)
80002afa:	f0 0a 18 00 	cp.b	r10,r8
80002afe:	f9 b9 00 22 	moveq	r9,34
80002b02:	1b b8       	ld.ub	r8,sp[0x3]
80002b04:	a5 66       	lsl	r6,0x4
80002b06:	ee 07 10 76 	mul	r7,r7,118
							delta = 409;
						else
							delta = 34;

						// saturate
						if(w.wp[pattern].cv_curves[edit_cv_ch][x] > delta)
80002b0a:	ec 07 00 07 	add	r7,r6,r7
80002b0e:	10 07       	add	r7,r8
80002b10:	e0 68 0b 0c 	mov	r8,2828
80002b14:	2b a7       	sub	r7,-70
80002b16:	f0 07 04 1a 	ld.sh	r10,r8[r7<<0x1]
80002b1a:	f7 da c0 10 	bfextu	r11,r10,0x0,0x10
80002b1e:	12 3b       	cp.w	r11,r9
80002b20:	e0 8a 00 05 	brle	80002b2a <handler_MonomeGridKey+0x812>
80002b24:	f4 09 01 09 	sub	r9,r10,r9
							w.wp[pattern].cv_curves[edit_cv_ch][x] -= delta;
80002b28:	c0 28       	rjmp	80002b2c <handler_MonomeGridKey+0x814>
80002b2a:	30 09       	mov	r9,0
80002b2c:	f0 07 0a 19 	st.h	r8[r7<<0x1],r9
						else
							w.wp[pattern].cv_curves[edit_cv_ch][x] = 0;
80002b30:	e0 8f 03 c8 	bral	800032c0 <handler_MonomeGridKey+0xfa8>
80002b34:	30 5a       	mov	r10,5
80002b36:	f4 08 18 00 	cp.b	r8,r10

					}
					else if(y == 5) {
80002b3a:	c2 b1       	brne	80002b90 <handler_MonomeGridKey+0x878>
80002b3c:	e0 68 1a 5f 	mov	r8,6751
80002b40:	30 1a       	mov	r10,1
						if(z == 1) {
80002b42:	f4 09 18 00 	cp.b	r9,r10
80002b46:	c2 21       	brne	80002b8a <handler_MonomeGridKey+0x872>
80002b48:	b0 89       	st.b	r8[0x0],r9
	 						center = 1;
80002b4a:	e0 68 1a 5d 	mov	r8,6749
	 						if(key_alt)
80002b4e:	a5 66       	lsl	r6,0x4
80002b50:	11 89       	ld.ub	r9,r8[0x0]
80002b52:	ee 07 10 76 	mul	r7,r7,118
80002b56:	1b ba       	ld.ub	r10,sp[0x3]
80002b58:	e0 68 0a fe 	mov	r8,2814
80002b5c:	fc 09 18 00 	cp.b	r9,lr
								w.wp[pattern].cv_curves[edit_cv_ch][x] = clip;
80002b60:	c0 b0       	breq	80002b76 <handler_MonomeGridKey+0x85e>
80002b62:	ec 07 00 07 	add	r7,r6,r7
80002b66:	90 08       	ld.sh	r8,r8[0x0]
80002b68:	ee 0a 00 0a 	add	r10,r7,r10
80002b6c:	2b aa       	sub	r10,-70
80002b6e:	f6 0a 0a 18 	st.h	r11[r10<<0x1],r8
80002b72:	e0 8f 03 a7 	bral	800032c0 <handler_MonomeGridKey+0xfa8>
							else
								clip = w.wp[pattern].cv_curves[edit_cv_ch][x];
80002b76:	ec 07 00 07 	add	r7,r6,r7
80002b7a:	ee 0a 00 0a 	add	r10,r7,r10
80002b7e:	2b aa       	sub	r10,-70
80002b80:	f6 0a 04 19 	ld.sh	r9,r11[r10<<0x1]
80002b84:	b0 09       	st.h	r8[0x0],r9
80002b86:	e0 8f 03 9d 	bral	800032c0 <handler_MonomeGridKey+0xfa8>
						}
						else
							center = 0;
80002b8a:	b0 8e       	st.b	r8[0x0],lr
80002b8c:	e0 8f 03 9a 	bral	800032c0 <handler_MonomeGridKey+0xfa8>
					}
					else if(y == 7) {
80002b90:	30 7a       	mov	r10,7
80002b92:	f4 08 18 00 	cp.b	r8,r10
80002b96:	e0 81 03 95 	brne	800032c0 <handler_MonomeGridKey+0xfa8>
						if(key_alt && z) {
80002b9a:	e0 68 1a 5d 	mov	r8,6749
80002b9e:	11 8a       	ld.ub	r10,r8[0x0]
80002ba0:	30 08       	mov	r8,0
80002ba2:	f0 0a 18 00 	cp.b	r10,r8
80002ba6:	c3 10       	breq	80002c08 <handler_MonomeGridKey+0x8f0>
							param_dest = &w.wp[pattern].cv_curves[edit_cv_ch][pos];
80002ba8:	58 09       	cp.w	r9,0
80002baa:	c2 f0       	breq	80002c08 <handler_MonomeGridKey+0x8f0>
80002bac:	e0 6a 00 ec 	mov	r10,236
80002bb0:	e0 6b 0a f8 	mov	r11,2808
80002bb4:	e0 69 0b 0c 	mov	r9,2828
80002bb8:	b5 37       	mul	r7,r10
80002bba:	a5 66       	lsl	r6,0x4
80002bbc:	ee c7 ff 74 	sub	r7,r7,-140
80002bc0:	e0 6a 0b 06 	mov	r10,2822
80002bc4:	12 07       	add	r7,r9
80002bc6:	f5 2a 00 00 	ld.sb	r10,r10[0]
							w.wp[pattern].cv_curves[edit_cv_ch][pos] = adc[1];
80002bca:	14 06       	add	r6,r10
80002bcc:	ee 06 00 16 	add	r6,r7,r6<<0x1
80002bd0:	97 06       	st.w	r11[0x0],r6
80002bd2:	e0 6b 1a 77 	mov	r11,6775
80002bd6:	17 8c       	ld.ub	r12,r11[0x0]
80002bd8:	e0 6b 1a 5b 	mov	r11,6747
80002bdc:	a5 6c       	lsl	r12,0x4
80002bde:	17 8b       	ld.ub	r11,r11[0x0]
80002be0:	f6 0b 10 76 	mul	r11,r11,118
80002be4:	f8 0b 00 0b 	add	r11,r12,r11
							param_accept = 1;
80002be8:	f6 0a 00 0a 	add	r10,r11,r10
80002bec:	e0 6b 1a 60 	mov	r11,6752
							live_in = 1;
80002bf0:	2b aa       	sub	r10,-70
80002bf2:	96 1b       	ld.sh	r11,r11[0x2]
						}
						else if(center && z) {
80002bf4:	f2 0a 0a 1b 	st.h	r9[r10<<0x1],r11
80002bf8:	e0 69 1a 78 	mov	r9,6776
80002bfc:	30 18       	mov	r8,1
80002bfe:	b2 88       	st.b	r9[0x0],r8
80002c00:	e0 69 1a 54 	mov	r9,6740
							w.wp[pattern].cv_curves[edit_cv_ch][x] = rand() % 4092;
80002c04:	e0 8f 01 d8 	bral	80002fb4 <handler_MonomeGridKey+0xc9c>
80002c08:	e0 68 1a 5f 	mov	r8,6751
80002c0c:	11 8a       	ld.ub	r10,r8[0x0]
80002c0e:	30 08       	mov	r8,0
80002c10:	f0 0a 18 00 	cp.b	r10,r8
80002c14:	c1 80       	breq	80002c44 <handler_MonomeGridKey+0x92c>
80002c16:	58 09       	cp.w	r9,0
80002c18:	c1 60       	breq	80002c44 <handler_MonomeGridKey+0x92c>
80002c1a:	1b b5       	ld.ub	r5,sp[0x3]
80002c1c:	e0 a0 30 62 	rcall	80008ce0 <rand>
80002c20:	a5 66       	lsl	r6,0x4
80002c22:	ee 07 10 76 	mul	r7,r7,118
80002c26:	e0 68 0f fc 	mov	r8,4092
							param_dest = &w.wp[pattern].cv_curves[edit_cv_ch][pos];
							w.wp[pattern].cv_curves[edit_cv_ch][pos] = adc[1];
							param_accept = 1;
							live_in = 1;
						}
						else if(center && z) {
80002c2a:	ec 07 00 07 	add	r7,r6,r7
80002c2e:	f8 08 0c 0a 	divs	r10,r12,r8
80002c32:	ee 05 00 05 	add	r5,r7,r5
80002c36:	e0 69 0b 0c 	mov	r9,2828
80002c3a:	2b a5       	sub	r5,-70
80002c3c:	f2 05 0a 1b 	st.h	r9[r5<<0x1],r11
80002c40:	e0 8f 03 3b 	bral	800032b6 <handler_MonomeGridKey+0xf9e>
80002c44:	e0 68 1a 78 	mov	r8,6776
80002c48:	b0 89       	st.b	r8[0x0],r9
80002c4a:	e0 69 1a 77 	mov	r9,6775
80002c4e:	e0 68 1a 5b 	mov	r8,6747
80002c52:	13 8a       	ld.ub	r10,r9[0x0]
80002c54:	1b b9       	ld.ub	r9,sp[0x3]
80002c56:	a5 6a       	lsl	r10,0x4
80002c58:	f4 09 00 0c 	add	r12,r10,r9
							w.wp[pattern].cv_curves[edit_cv_ch][x] = rand() % 4092;
						}
						else {
							param_accept = z;
80002c5c:	11 8b       	ld.ub	r11,r8[0x0]
80002c5e:	e0 6e 00 ec 	mov	lr,236
							param_dest = &w.wp[pattern].cv_curves[edit_cv_ch][x];
80002c62:	e0 68 0b 0c 	mov	r8,2828
80002c66:	f6 0e 02 4e 	mul	lr,r11,lr
80002c6a:	fc ce ff 74 	sub	lr,lr,-140
80002c6e:	10 0e       	add	lr,r8
80002c70:	fc 0c 00 1e 	add	lr,lr,r12<<0x1
80002c74:	e0 6c 0a f8 	mov	r12,2808
80002c78:	99 0e       	st.w	r12[0x0],lr
80002c7a:	30 0c       	mov	r12,0
80002c7c:	1b 9e       	ld.ub	lr,sp[0x1]
80002c7e:	f8 0e 18 00 	cp.b	lr,r12
80002c82:	e0 80 03 1a 	breq	800032b6 <handler_MonomeGridKey+0xf9e>
80002c86:	f6 0b 10 76 	mul	r11,r11,118
							if(z) w.wp[pattern].cv_curves[edit_cv_ch][x] = adc[1];
80002c8a:	16 0a       	add	r10,r11
80002c8c:	f4 09 00 09 	add	r9,r10,r9
80002c90:	e0 6a 1a 60 	mov	r10,6752
80002c94:	2b a9       	sub	r9,-70
80002c96:	94 1a       	ld.sh	r10,r10[0x2]
80002c98:	e0 8f 03 0d 	bral	800032b2 <handler_MonomeGridKey+0xf9a>
80002c9c:	e0 6a 1a 80 	mov	r10,6784
80002ca0:	15 8a       	ld.ub	r10,r10[0x0]
80002ca2:	58 0a       	cp.w	r10,0
80002ca4:	c3 40       	breq	80002d0c <handler_MonomeGridKey+0x9f4>
80002ca6:	58 09       	cp.w	r9,0
						monomeFrameDirty++;
					}
				}
				// MAP
				else {
					if(scale_select && z) {
80002ca8:	c6 c0       	breq	80002d80 <handler_MonomeGridKey+0xa68>
80002caa:	1b b9       	ld.ub	r9,sp[0x3]
80002cac:	f0 c7 00 04 	sub	r7,r8,4
80002cb0:	f2 07 00 37 	add	r7,r9,r7<<0x3
80002cb4:	31 79       	mov	r9,23
						// index -= 64;
						index = (y-4) * 8 + x;
80002cb6:	5c 57       	castu.b	r7
80002cb8:	f2 07 18 00 	cp.b	r7,r9
80002cbc:	e0 8b 00 1e 	brhi	80002cf8 <handler_MonomeGridKey+0x9e0>
						if(index < 24 && y<8) {
80002cc0:	30 79       	mov	r9,7
				}
				// MAP
				else {
					if(scale_select && z) {
						// index -= 64;
						index = (y-4) * 8 + x;
80002cc2:	f2 08 18 00 	cp.b	r8,r9
						if(index < 24 && y<8) {
80002cc6:	e0 8b 00 19 	brhi	80002cf8 <handler_MonomeGridKey+0x9e0>
80002cca:	fe c9 98 b2 	sub	r9,pc,-26446
80002cce:	ee 08 15 05 	lsl	r8,r7,0x5
80002cd2:	2d 45       	sub	r5,-44
80002cd4:	f2 ca ff e0 	sub	r10,r9,-32
80002cd8:	ea 0b 00 0b 	add	r11,r5,r11
80002cdc:	10 0a       	add	r10,r8
////////////////////////////////////////////////////////////////////////////////
////////////////////////////////////////////////////////////////////////////////
////////////////////////////////////////////////////////////////////////////////
// application grid code

static void handler_MonomeGridKey(s32 data) { 
80002cde:	f2 08 00 08 	add	r8,r9,r8
				// MAP
				else {
					if(scale_select && z) {
						// index -= 64;
						index = (y-4) * 8 + x;
						if(index < 24 && y<8) {
80002ce2:	11 19       	ld.sh	r9,r8++
80002ce4:	16 b9       	st.h	r11++,r9
////////////////////////////////////////////////////////////////////////////////
////////////////////////////////////////////////////////////////////////////////
////////////////////////////////////////////////////////////////////////////////
// application grid code

static void handler_MonomeGridKey(s32 data) { 
80002ce6:	14 38       	cp.w	r8,r10
				// MAP
				else {
					if(scale_select && z) {
						// index -= 64;
						index = (y-4) * 8 + x;
						if(index < 24 && y<8) {
80002ce8:	cf d1       	brne	80002ce2 <handler_MonomeGridKey+0x9ca>
80002cea:	fe cc 95 b2 	sub	r12,pc,-27214
							for(i1=0;i1<16;i1++)
								w.wp[pattern].cv_values[i1] = SCALES[index][i1];
80002cee:	e0 a0 28 25 	rcall	80007d38 <print_dbg>
				else {
					if(scale_select && z) {
						// index -= 64;
						index = (y-4) * 8 + x;
						if(index < 24 && y<8) {
							for(i1=0;i1<16;i1++)
80002cf2:	0e 9c       	mov	r12,r7
								w.wp[pattern].cv_values[i1] = SCALES[index][i1];
							print_dbg("\rNEW SCALE ");
80002cf4:	e0 a0 28 1c 	rcall	80007d2c <print_dbg_ulong>
80002cf8:	e0 68 07 66 	mov	r8,1894
							print_dbg_ulong(index);
80002cfc:	11 89       	ld.ub	r9,r8[0x0]
80002cfe:	2f f9       	sub	r9,-1
						}

						scale_select = 0;
						monomeFrameDirty++;
80002d00:	b0 89       	st.b	r8[0x0],r9
80002d02:	30 09       	mov	r9,0
80002d04:	e0 68 1a 80 	mov	r8,6784
								w.wp[pattern].cv_values[i1] = SCALES[index][i1];
							print_dbg("\rNEW SCALE ");
							print_dbg_ulong(index);
						}

						scale_select = 0;
80002d08:	e0 8f 02 db 	bral	800032be <handler_MonomeGridKey+0xfa6>
80002d0c:	58 09       	cp.w	r9,0
80002d0e:	c3 90       	breq	80002d80 <handler_MonomeGridKey+0xa68>
						monomeFrameDirty++;
					}
					else {
						if(z && y==4) {
80002d10:	30 4c       	mov	r12,4
80002d12:	f8 08 18 00 	cp.b	r8,r12
80002d16:	c3 51       	brne	80002d80 <handler_MonomeGridKey+0xa68>
80002d18:	1b b9       	ld.ub	r9,sp[0x3]
80002d1a:	14 98       	mov	r8,r10
							edit_cv_step = x;
80002d1c:	a5 66       	lsl	r6,0x4
							count = 0;
							for(i1=0;i1<16;i1++)
									if((w.wp[pattern].cv_steps[edit_cv_ch][edit_cv_step] >> i1) & 1) {
80002d1e:	e0 6a 1a 5a 	mov	r10,6746
						scale_select = 0;
						monomeFrameDirty++;
					}
					else {
						if(z && y==4) {
							edit_cv_step = x;
80002d22:	ee 07 10 76 	mul	r7,r7,118
							count = 0;
							for(i1=0;i1<16;i1++)
									if((w.wp[pattern].cv_steps[edit_cv_ch][edit_cv_step] >> i1) & 1) {
80002d26:	ec 07 00 07 	add	r7,r6,r7
80002d2a:	12 07       	add	r7,r9
80002d2c:	2d a7       	sub	r7,-38
80002d2e:	f6 07 05 1b 	ld.uh	r11,r11[r7<<0x1]
80002d32:	b4 89       	st.b	r10[0x0],r9
						scale_select = 0;
						monomeFrameDirty++;
					}
					else {
						if(z && y==4) {
							edit_cv_step = x;
80002d34:	e0 69 1a 68 	mov	r9,6760
							count = 0;
							for(i1=0;i1<16;i1++)
									if((w.wp[pattern].cv_steps[edit_cv_ch][edit_cv_step] >> i1) & 1) {
80002d38:	13 8a       	ld.ub	r10,r9[0x0]
80002d3a:	10 99       	mov	r9,r8
80002d3c:	f6 08 08 4e 	asr	lr,r11,r8
										count++;
80002d40:	f2 cc ff ff 	sub	r12,r9,-1
					else {
						if(z && y==4) {
							edit_cv_step = x;
							count = 0;
							for(i1=0;i1<16;i1++)
									if((w.wp[pattern].cv_steps[edit_cv_ch][edit_cv_step] >> i1) & 1) {
80002d44:	fd de c0 01 	bfextu	lr,lr,0x0,0x1
80002d48:	c0 50       	breq	80002d52 <handler_MonomeGridKey+0xa3a>
										count++;
80002d4a:	f3 dc c0 08 	bfextu	r9,r12,0x0,0x8
80002d4e:	f5 d8 c0 08 	bfextu	r10,r8,0x0,0x8
80002d52:	2f f8       	sub	r8,-1
					}
					else {
						if(z && y==4) {
							edit_cv_step = x;
							count = 0;
							for(i1=0;i1<16;i1++)
80002d54:	59 08       	cp.w	r8,16
80002d56:	cf 31       	brne	80002d3c <handler_MonomeGridKey+0xa24>
80002d58:	e0 68 1a 68 	mov	r8,6760
									if((w.wp[pattern].cv_steps[edit_cv_ch][edit_cv_step] >> i1) & 1) {
										count++;
										edit_cv_value = i1;
									}
							if(count>1)
80002d5c:	b0 8a       	st.b	r8[0x0],r10
80002d5e:	30 1a       	mov	r10,1
80002d60:	f4 09 18 00 	cp.b	r9,r10
80002d64:	e0 88 00 04 	brls	80002d6c <handler_MonomeGridKey+0xa54>
								edit_cv_value = -1;
80002d68:	3f f9       	mov	r9,-1

							keycount_cv = 0;

							monomeFrameDirty++;
80002d6a:	b0 89       	st.b	r8[0x0],r9
80002d6c:	e0 68 07 66 	mov	r8,1894
80002d70:	11 89       	ld.ub	r9,r8[0x0]
										edit_cv_value = i1;
									}
							if(count>1)
								edit_cv_value = -1;

							keycount_cv = 0;
80002d72:	2f f9       	sub	r9,-1
80002d74:	b0 89       	st.b	r8[0x0],r9
80002d76:	30 09       	mov	r9,0
80002d78:	e0 68 1a 52 	mov	r8,6738
80002d7c:	e0 8f 02 a1 	bral	800032be <handler_MonomeGridKey+0xfa6>
80002d80:	e0 6b 1a 5d 	mov	r11,6749
80002d84:	17 8b       	ld.ub	r11,r11[0x0]
80002d86:	58 0b       	cp.w	r11,0
80002d88:	c3 60       	breq	80002df4 <handler_MonomeGridKey+0xadc>
80002d8a:	30 7c       	mov	r12,7
80002d8c:	f8 08 18 00 	cp.b	r8,r12
80002d90:	c3 21       	brne	80002df4 <handler_MonomeGridKey+0xadc>
80002d92:	1b bc       	ld.ub	r12,sp[0x3]
80002d94:	58 0c       	cp.w	r12,0
80002d96:	c0 d1       	brne	80002db0 <handler_MonomeGridKey+0xa98>
80002d98:	58 09       	cp.w	r9,0
80002d9a:	c0 b0       	breq	80002db0 <handler_MonomeGridKey+0xa98>
80002d9c:	2f fa       	sub	r10,-1
80002d9e:	e0 69 07 66 	mov	r9,1894
80002da2:	e0 6b 1a 80 	mov	r11,6784
80002da6:	13 88       	ld.ub	r8,r9[0x0]
80002da8:	b6 8a       	st.b	r11[0x0],r10
80002daa:	2f f8       	sub	r8,-1
80002dac:	fe 9f fc ec 	bral	80002784 <handler_MonomeGridKey+0x46c>
80002db0:	e0 6a 1a 68 	mov	r10,6760
80002db4:	3f fe       	mov	lr,-1
80002db6:	15 86       	ld.ub	r6,r10[0x0]

							monomeFrameDirty++;
						}
						// load scale
						else if(key_alt && y==7 && x == 0 && z) {
80002db8:	fc 06 18 00 	cp.b	r6,lr
80002dbc:	c1 c0       	breq	80002df4 <handler_MonomeGridKey+0xadc>
80002dbe:	e0 6e 0b 07 	mov	lr,2823
80002dc2:	1d 8e       	ld.ub	lr,lr[0x0]
80002dc4:	f8 0e 18 00 	cp.b	lr,r12
80002dc8:	c1 61       	brne	80002df4 <handler_MonomeGridKey+0xadc>
80002dca:	f5 28 00 00 	ld.sb	r8,r10[0]
80002dce:	e0 6a 1a 78 	mov	r10,6776
							scale_select++;
80002dd2:	b4 89       	st.b	r10[0x0],r9
							monomeFrameDirty++;
80002dd4:	e0 69 1a 5b 	mov	r9,6747
80002dd8:	13 89       	ld.ub	r9,r9[0x0]

							monomeFrameDirty++;
						}
						// load scale
						else if(key_alt && y==7 && x == 0 && z) {
							scale_select++;
80002dda:	f2 09 10 76 	mul	r9,r9,118
							monomeFrameDirty++;
80002dde:	f0 09 00 09 	add	r9,r8,r9
						}
						// read pot					
						else if(y==7 && key_alt && edit_cv_value != -1 && x==LENGTH) {
80002de2:	e0 68 0b 0c 	mov	r8,2828
80002de6:	2e a9       	sub	r9,-22
80002de8:	f0 09 00 19 	add	r9,r8,r9<<0x1
80002dec:	e0 68 0a f8 	mov	r8,2808
80002df0:	fe 9f fd 3a 	bral	80002864 <handler_MonomeGridKey+0x54c>
80002df4:	f0 ca 00 05 	sub	r10,r8,5
							param_accept = z;
							param_dest = &(w.wp[pattern].cv_values[edit_cv_value]);
80002df8:	30 1c       	mov	r12,1
80002dfa:	f8 0a 18 00 	cp.b	r10,r12
							scale_select++;
							monomeFrameDirty++;
						}
						// read pot					
						else if(y==7 && key_alt && edit_cv_value != -1 && x==LENGTH) {
							param_accept = z;
80002dfe:	e0 8b 00 7d 	brhi	80002ef8 <handler_MonomeGridKey+0xbe0>
							param_dest = &(w.wp[pattern].cv_values[edit_cv_value]);
80002e02:	58 09       	cp.w	r9,0
80002e04:	e0 80 02 5e 	breq	800032c0 <handler_MonomeGridKey+0xfa8>
80002e08:	1b ba       	ld.ub	r10,sp[0x3]
80002e0a:	30 39       	mov	r9,3
80002e0c:	f2 0a 18 00 	cp.b	r10,r9
80002e10:	e0 8b 02 58 	brhi	800032c0 <handler_MonomeGridKey+0xfa8>
80002e14:	58 0a       	cp.w	r10,0
80002e16:	c0 41       	brne	80002e1e <handler_MonomeGridKey+0xb06>
80002e18:	e0 6a 01 99 	mov	r10,409
							// print_dbg("\r\nparam: ");
							// print_dbg_ulong(*param_dest);
						}
						else if((y == 5 || y == 6) && z && x<4 && edit_cv_step != -1) {
80002e1c:	c0 c8       	rjmp	80002e34 <handler_MonomeGridKey+0xb1c>
80002e1e:	f8 0a 18 00 	cp.b	r10,r12
80002e22:	c0 41       	brne	80002e2a <handler_MonomeGridKey+0xb12>
80002e24:	e0 6a 00 ef 	mov	r10,239
80002e28:	c0 68       	rjmp	80002e34 <handler_MonomeGridKey+0xb1c>
80002e2a:	58 2a       	cp.w	r10,2
80002e2c:	f9 ba 00 22 	moveq	r10,34
80002e30:	f9 ba 01 03 	movne	r10,3
80002e34:	30 69       	mov	r9,6
80002e36:	f2 08 18 00 	cp.b	r8,r9
							delta = 0;
	 						if(x == 0)
80002e3a:	c0 31       	brne	80002e40 <handler_MonomeGridKey+0xb28>
80002e3c:	5c 3a       	neg	r10
80002e3e:	5c 8a       	casts.h	r10
80002e40:	e0 69 0b 0c 	mov	r9,2828
								delta = 409;
							else if(x == 1)
80002e44:	58 0b       	cp.w	r11,0
80002e46:	c2 90       	breq	80002e98 <handler_MonomeGridKey+0xb80>
80002e48:	e0 68 00 ec 	mov	r8,236
80002e4c:	b1 37       	mul	r7,r8
80002e4e:	2d 47       	sub	r7,-44
								delta = 239;
							else if(x == 2)
80002e50:	30 08       	mov	r8,0
80002e52:	0e 09       	add	r9,r7
80002e54:	f4 06 11 00 	rsub	r6,r10,0
80002e58:	10 9b       	mov	r11,r8
								delta = 34;
							else if(x == 3)
								delta = 3;

							if(y == 6)
80002e5a:	e0 67 0f fc 	mov	r7,4092
80002e5e:	31 0e       	mov	lr,16
80002e60:	92 0c       	ld.sh	r12,r9[0x0]
								delta *= -1;
80002e62:	f4 0c 00 05 	add	r5,r10,r12
80002e66:	5c 7c       	castu.h	r12
							
							if(key_alt) {
80002e68:	f4 0c 00 04 	add	r4,r10,r12
80002e6c:	e0 44 0f fc 	cp.w	r4,4092
80002e70:	e0 8a 00 04 	brle	80002e78 <handler_MonomeGridKey+0xb60>
80002e74:	b2 07       	st.h	r9[0x0],r7
80002e76:	c0 98       	rjmp	80002e88 <handler_MonomeGridKey+0xb70>
								for(i1=0;i1<16;i1++) {
									if(w.wp[pattern].cv_values[i1] + delta > 4092)
										w.wp[pattern].cv_values[i1] = 4092;
									else if(delta < 0 && w.wp[pattern].cv_values[i1] < -1*delta)
80002e78:	f6 0a 19 00 	cp.h	r10,r11
80002e7c:	c0 54       	brge	80002e86 <handler_MonomeGridKey+0xb6e>
								delta *= -1;
							
							if(key_alt) {
								for(i1=0;i1<16;i1++) {
									if(w.wp[pattern].cv_values[i1] + delta > 4092)
										w.wp[pattern].cv_values[i1] = 4092;
80002e7e:	0c 3c       	cp.w	r12,r6
80002e80:	c0 34       	brge	80002e86 <handler_MonomeGridKey+0xb6e>

							if(y == 6)
								delta *= -1;
							
							if(key_alt) {
								for(i1=0;i1<16;i1++) {
80002e82:	b2 0b       	st.h	r9[0x0],r11
									if(w.wp[pattern].cv_values[i1] + delta > 4092)
80002e84:	c0 28       	rjmp	80002e88 <handler_MonomeGridKey+0xb70>
										w.wp[pattern].cv_values[i1] = 4092;
									else if(delta < 0 && w.wp[pattern].cv_values[i1] < -1*delta)
										w.wp[pattern].cv_values[i1] = 0;
									else
										w.wp[pattern].cv_values[i1] += delta;
80002e86:	b2 05       	st.h	r9[0x0],r5
80002e88:	2f f8       	sub	r8,-1
							if(y == 6)
								delta *= -1;
							
							if(key_alt) {
								for(i1=0;i1<16;i1++) {
									if(w.wp[pattern].cv_values[i1] + delta > 4092)
80002e8a:	2f e9       	sub	r9,-2
80002e8c:	5c 58       	castu.b	r8
80002e8e:	fc 08 18 00 	cp.b	r8,lr
80002e92:	ce 71       	brne	80002e60 <handler_MonomeGridKey+0xb48>
80002e94:	e0 8f 02 11 	bral	800032b6 <handler_MonomeGridKey+0xf9e>
										w.wp[pattern].cv_values[i1] = 4092;
80002e98:	e0 68 1a 68 	mov	r8,6760
									else if(delta < 0 && w.wp[pattern].cv_values[i1] < -1*delta)
80002e9c:	f1 2c 00 00 	ld.sb	r12,r8[0]
80002ea0:	ee 08 10 76 	mul	r8,r7,118
80002ea4:	18 08       	add	r8,r12
										w.wp[pattern].cv_values[i1] = 0;
80002ea6:	2e a8       	sub	r8,-22
							
							if(key_alt) {
								for(i1=0;i1<16;i1++) {
									if(w.wp[pattern].cv_values[i1] + delta > 4092)
										w.wp[pattern].cv_values[i1] = 4092;
									else if(delta < 0 && w.wp[pattern].cv_values[i1] < -1*delta)
80002ea8:	f2 08 04 16 	ld.sh	r6,r9[r8<<0x1]

							if(y == 6)
								delta *= -1;
							
							if(key_alt) {
								for(i1=0;i1<16;i1++) {
80002eac:	eb d6 c0 10 	bfextu	r5,r6,0x0,0x10
80002eb0:	f4 05 00 0e 	add	lr,r10,r5
80002eb4:	e0 4e 0f fc 	cp.w	lr,4092
80002eb8:	e0 8a 00 08 	brle	80002ec8 <handler_MonomeGridKey+0xbb0>
									else
										w.wp[pattern].cv_values[i1] += delta;
								}
							}
							else {
								if(w.wp[pattern].cv_values[edit_cv_value] + delta > 4092)
80002ebc:	e0 6a 0f fc 	mov	r10,4092
80002ec0:	f2 08 0a 1a 	st.h	r9[r8<<0x1],r10
80002ec4:	e0 8f 01 f9 	bral	800032b6 <handler_MonomeGridKey+0xf9e>
80002ec8:	16 9e       	mov	lr,r11
80002eca:	f6 0a 19 00 	cp.h	r10,r11
80002ece:	c0 94       	brge	80002ee0 <handler_MonomeGridKey+0xbc8>
80002ed0:	f4 0e 11 00 	rsub	lr,r10,0
80002ed4:	1c 35       	cp.w	r5,lr
80002ed6:	c0 54       	brge	80002ee0 <handler_MonomeGridKey+0xbc8>
80002ed8:	f2 08 0a 1b 	st.h	r9[r8<<0x1],r11
80002edc:	e0 8f 01 ed 	bral	800032b6 <handler_MonomeGridKey+0xf9e>
									w.wp[pattern].cv_values[edit_cv_value] = 4092;
80002ee0:	0c 0a       	add	r10,r6
80002ee2:	ee 07 10 76 	mul	r7,r7,118
80002ee6:	e0 68 0b 0c 	mov	r8,2828
								else if(delta < 0 && w.wp[pattern].cv_values[edit_cv_value] < -1*delta)
80002eea:	ee 0c 00 0c 	add	r12,r7,r12
80002eee:	2e ac       	sub	r12,-22
80002ef0:	f0 0c 0a 1a 	st.h	r8[r12<<0x1],r10
80002ef4:	e0 8f 01 e1 	bral	800032b6 <handler_MonomeGridKey+0xf9e>
80002ef8:	30 7a       	mov	r10,7
									w.wp[pattern].cv_values[edit_cv_value] = 0;
80002efa:	f4 08 18 00 	cp.b	r8,r10
								}
							}
							else {
								if(w.wp[pattern].cv_values[edit_cv_value] + delta > 4092)
									w.wp[pattern].cv_values[edit_cv_value] = 4092;
								else if(delta < 0 && w.wp[pattern].cv_values[edit_cv_value] < -1*delta)
80002efe:	e0 81 01 e1 	brne	800032c0 <handler_MonomeGridKey+0xfa8>
80002f02:	e0 68 1a 52 	mov	r8,6738
80002f06:	11 8a       	ld.ub	r10,r8[0x0]
80002f08:	f4 09 00 19 	add	r9,r10,r9<<0x1
80002f0c:	20 19       	sub	r9,1
80002f0e:	b0 89       	st.b	r8[0x0],r9
80002f10:	30 0a       	mov	r10,0
80002f12:	f4 09 18 00 	cp.b	r9,r10
80002f16:	c0 24       	brge	80002f1a <handler_MonomeGridKey+0xc02>
80002f18:	b0 8a       	st.b	r8[0x0],r10
80002f1a:	30 08       	mov	r8,0
80002f1c:	1b 99       	ld.ub	r9,sp[0x1]
80002f1e:	f0 09 18 00 	cp.b	r9,r8
80002f22:	e0 80 01 cf 	breq	800032c0 <handler_MonomeGridKey+0xfa8>
80002f26:	e0 68 1a 5b 	mov	r8,6747
									w.wp[pattern].cv_values[edit_cv_value] = 0;
								else
									w.wp[pattern].cv_values[edit_cv_value] += delta;
80002f2a:	11 8b       	ld.ub	r11,r8[0x0]
80002f2c:	e0 68 1a 77 	mov	r8,6775
80002f30:	11 8c       	ld.ub	r12,r8[0x0]
80002f32:	e0 68 1a 5a 	mov	r8,6746
80002f36:	11 8a       	ld.ub	r10,r8[0x0]
80002f38:	f6 08 10 76 	mul	r8,r11,118
80002f3c:	f8 09 15 04 	lsl	r9,r12,0x4
							}

							monomeFrameDirty++;
						}
						// choose values
						else if(y==7) {
80002f40:	10 09       	add	r9,r8
80002f42:	e0 68 0b 0c 	mov	r8,2828
80002f46:	14 09       	add	r9,r10
							keycount_cv += z*2-1;
80002f48:	2d a9       	sub	r9,-38
80002f4a:	f0 09 04 16 	ld.sh	r6,r8[r9<<0x1]
80002f4e:	30 08       	mov	r8,0
80002f50:	fd d6 c0 10 	bfextu	lr,r6,0x0,0x10
							if(keycount_cv < 0)
80002f54:	10 99       	mov	r9,r8
80002f56:	f2 c7 ff ff 	sub	r7,r9,-1
80002f5a:	fc 08 08 45 	asr	r5,lr,r8
								keycount_cv = 0;

							if(z) {
80002f5e:	ed b5 00 00 	bld	r5,0x0
80002f62:	c0 31       	brne	80002f68 <handler_MonomeGridKey+0xc50>
80002f64:	f3 d7 c0 08 	bfextu	r9,r7,0x0,0x8
80002f68:	2f f8       	sub	r8,-1
								count = 0;
								for(i1=0;i1<16;i1++)
									if((w.wp[pattern].cv_steps[edit_cv_ch][edit_cv_step] >> i1) & 1)
80002f6a:	59 08       	cp.w	r8,16
80002f6c:	cf 51       	brne	80002f56 <handler_MonomeGridKey+0xc3e>
80002f6e:	e0 6e 1a 52 	mov	lr,6738
80002f72:	30 18       	mov	r8,1
80002f74:	1d 85       	ld.ub	r5,lr[0x0]
80002f76:	f0 09 18 00 	cp.b	r9,r8
80002f7a:	5f 87       	srls	r7
80002f7c:	f0 05 18 00 	cp.b	r5,r8
80002f80:	5f 0e       	sreq	lr
80002f82:	ef ee 00 0e 	and	lr,r7,lr
80002f86:	1c 97       	mov	r7,lr
80002f88:	30 0e       	mov	lr,0
80002f8a:	fc 07 18 00 	cp.b	r7,lr
80002f8e:	c1 50       	breq	80002fb8 <handler_MonomeGridKey+0xca0>
80002f90:	e0 69 0b 0c 	mov	r9,2828
										count++;
80002f94:	a5 6c       	lsl	r12,0x4
								keycount_cv = 0;

							if(z) {
								count = 0;
								for(i1=0;i1<16;i1++)
									if((w.wp[pattern].cv_steps[edit_cv_ch][edit_cv_step] >> i1) & 1)
80002f96:	f6 0b 10 76 	mul	r11,r11,118
80002f9a:	f8 0b 00 0b 	add	r11,r12,r11
80002f9e:	1b b8       	ld.ub	r8,sp[0x3]
										count++;
80002fa0:	f6 0a 00 0a 	add	r10,r11,r10
80002fa4:	30 1b       	mov	r11,1
							if(keycount_cv < 0)
								keycount_cv = 0;

							if(z) {
								count = 0;
								for(i1=0;i1<16;i1++)
80002fa6:	2d aa       	sub	r10,-38
80002fa8:	f6 08 09 4b 	lsl	r11,r11,r8
									if((w.wp[pattern].cv_steps[edit_cv_ch][edit_cv_step] >> i1) & 1)
										count++;

								// single press toggle
								if(keycount_cv == 1 && count < 2) {
80002fac:	f2 0a 0a 1b 	st.h	r9[r10<<0x1],r11
80002fb0:	e0 69 1a 68 	mov	r9,6760
80002fb4:	b2 88       	st.b	r9[0x0],r8
80002fb6:	c8 09       	rjmp	800032b6 <handler_MonomeGridKey+0xf9e>
80002fb8:	f0 05 18 00 	cp.b	r5,r8
80002fbc:	5f 9e       	srgt	lr
80002fbe:	f0 09 18 00 	cp.b	r9,r8
80002fc2:	5f b8       	srhi	r8
80002fc4:	1c 48       	or	r8,lr
80002fc6:	ee 08 18 00 	cp.b	r8,r7
									w.wp[pattern].cv_steps[edit_cv_ch][edit_cv_step] = (1<<x);
80002fca:	e0 80 01 76 	breq	800032b6 <handler_MonomeGridKey+0xf9e>
80002fce:	1b b9       	ld.ub	r9,sp[0x3]
80002fd0:	a5 6c       	lsl	r12,0x4
80002fd2:	f6 0b 10 76 	mul	r11,r11,118
80002fd6:	f8 0b 00 0b 	add	r11,r12,r11
80002fda:	f6 0a 00 0a 	add	r10,r11,r10
80002fde:	2d aa       	sub	r10,-38
80002fe0:	e0 68 0b 0c 	mov	r8,2828
80002fe4:	30 17       	mov	r7,1
80002fe6:	ee 09 09 47 	lsl	r7,r7,r9
									edit_cv_value = x;
80002fea:	e0 69 1a 5b 	mov	r9,6747
80002fee:	0e 56       	eor	r6,r7
80002ff0:	f0 0a 0a 16 	st.h	r8[r10<<0x1],r6
80002ff4:	13 8a       	ld.ub	r10,r9[0x0]
80002ff6:	f4 0a 10 76 	mul	r10,r10,118
80002ffa:	e0 69 1a 77 	mov	r9,6775
80002ffe:	13 89       	ld.ub	r9,r9[0x0]
80003000:	a5 69       	lsl	r9,0x4
80003002:	14 09       	add	r9,r10
80003004:	e0 6a 1a 5a 	mov	r10,6746
								}
								// multiselect
								else if(keycount_cv > 1 || count > 1) {
80003008:	15 8a       	ld.ub	r10,r10[0x0]
8000300a:	14 09       	add	r9,r10
8000300c:	30 0a       	mov	r10,0
8000300e:	2d a9       	sub	r9,-38
80003010:	f0 09 04 1b 	ld.sh	r11,r8[r9<<0x1]
80003014:	f4 0b 19 00 	cp.h	r11,r10
80003018:	c0 31       	brne	8000301e <handler_MonomeGridKey+0xd06>
8000301a:	f0 09 0a 17 	st.h	r8[r9<<0x1],r7
									w.wp[pattern].cv_steps[edit_cv_ch][edit_cv_step] ^= (1<<x);
8000301e:	e0 69 1a 77 	mov	r9,6775
80003022:	e0 68 1a 5a 	mov	r8,6746
80003026:	11 88       	ld.ub	r8,r8[0x0]
80003028:	13 8a       	ld.ub	r10,r9[0x0]
8000302a:	e0 69 1a 5b 	mov	r9,6747
8000302e:	a5 6a       	lsl	r10,0x4
80003030:	13 89       	ld.ub	r9,r9[0x0]
80003032:	f2 09 10 76 	mul	r9,r9,118
80003036:	f4 09 00 09 	add	r9,r10,r9
8000303a:	10 09       	add	r9,r8
8000303c:	e0 68 0b 0c 	mov	r8,2828

									if(!w.wp[pattern].cv_steps[edit_cv_ch][edit_cv_step])
80003040:	2d a9       	sub	r9,-38
80003042:	f0 09 05 1b 	ld.uh	r11,r8[r9<<0x1]
80003046:	e0 68 1a 68 	mov	r8,6760
8000304a:	11 8a       	ld.ub	r10,r8[0x0]
8000304c:	30 08       	mov	r8,0
8000304e:	10 99       	mov	r9,r8
80003050:	f6 08 08 4e 	asr	lr,r11,r8
80003054:	f2 cc ff ff 	sub	r12,r9,-1
80003058:	fd de c0 01 	bfextu	lr,lr,0x0,0x1
8000305c:	c0 50       	breq	80003066 <handler_MonomeGridKey+0xd4e>
8000305e:	f3 dc c0 08 	bfextu	r9,r12,0x0,0x8
										w.wp[pattern].cv_steps[edit_cv_ch][edit_cv_step] = (1<<x);
80003062:	f5 d8 c0 08 	bfextu	r10,r8,0x0,0x8

									count = 0;
									for(i1=0;i1<16;i1++)
										if((w.wp[pattern].cv_steps[edit_cv_ch][edit_cv_step] >> i1) & 1) {
80003066:	2f f8       	sub	r8,-1
80003068:	59 08       	cp.w	r8,16
8000306a:	cf 31       	brne	80003050 <handler_MonomeGridKey+0xd38>
8000306c:	e0 68 1a 68 	mov	r8,6760
80003070:	b0 8a       	st.b	r8[0x0],r10
80003072:	30 1a       	mov	r10,1
80003074:	f4 09 18 00 	cp.b	r9,r10
80003078:	e0 88 01 1f 	brls	800032b6 <handler_MonomeGridKey+0xf9e>
8000307c:	3f f9       	mov	r9,-1
8000307e:	b0 89       	st.b	r8[0x0],r9
80003080:	c1 b9       	rjmp	800032b6 <handler_MonomeGridKey+0xf9e>
80003082:	30 1b       	mov	r11,1
80003084:	f6 0a 18 00 	cp.b	r10,r11
80003088:	e0 81 01 1c 	brne	800032c0 <handler_MonomeGridKey+0xfa8>
8000308c:	58 09       	cp.w	r9,0
8000308e:	e0 80 01 19 	breq	800032c0 <handler_MonomeGridKey+0xfa8>
											count++;
80003092:	30 49       	mov	r9,4
80003094:	f2 08 18 00 	cp.b	r8,r9
									if(!w.wp[pattern].cv_steps[edit_cv_ch][edit_cv_step])
										w.wp[pattern].cv_steps[edit_cv_ch][edit_cv_step] = (1<<x);

									count = 0;
									for(i1=0;i1<16;i1++)
										if((w.wp[pattern].cv_steps[edit_cv_ch][edit_cv_step] >> i1) & 1) {
80003098:	c1 61       	brne	800030c4 <handler_MonomeGridKey+0xdac>
8000309a:	e0 68 1a 77 	mov	r8,6775
											count++;
8000309e:	1b b9       	ld.ub	r9,sp[0x3]
800030a0:	11 8a       	ld.ub	r10,r8[0x0]
800030a2:	e0 68 1a 5b 	mov	r8,6747

									if(!w.wp[pattern].cv_steps[edit_cv_ch][edit_cv_step])
										w.wp[pattern].cv_steps[edit_cv_ch][edit_cv_step] = (1<<x);

									count = 0;
									for(i1=0;i1<16;i1++)
800030a6:	a5 6a       	lsl	r10,0x4
800030a8:	11 8b       	ld.ub	r11,r8[0x0]
800030aa:	e0 68 00 ec 	mov	r8,236
										if((w.wp[pattern].cv_steps[edit_cv_ch][edit_cv_step] >> i1) & 1) {
											count++;
											edit_cv_value = i1;
										}

									if(count > 1)
800030ae:	f6 08 02 48 	mul	r8,r11,r8
800030b2:	f4 08 00 08 	add	r8,r10,r8
800030b6:	e0 6a 0b 0c 	mov	r10,2828
										edit_cv_value = -1;
800030ba:	f4 08 00 08 	add	r8,r10,r8
							}
						}
					}
				}
			}
			else if(edit_prob == 1) {
800030be:	12 08       	add	r8,r9
800030c0:	3c 09       	mov	r9,-64
800030c2:	c1 98       	rjmp	800030f4 <handler_MonomeGridKey+0xddc>
800030c4:	30 59       	mov	r9,5
800030c6:	f2 08 18 00 	cp.b	r8,r9
				if(z) {
800030ca:	c1 81       	brne	800030fa <handler_MonomeGridKey+0xde2>
800030cc:	e0 68 1a 77 	mov	r8,6775
					if(y == 4) w.wp[pattern].cv_probs[edit_cv_ch][x] = 192;
800030d0:	1b b9       	ld.ub	r9,sp[0x3]
800030d2:	11 8a       	ld.ub	r10,r8[0x0]
800030d4:	e0 68 1a 5b 	mov	r8,6747
800030d8:	a5 6a       	lsl	r10,0x4
800030da:	11 8b       	ld.ub	r11,r8[0x0]
800030dc:	e0 68 00 ec 	mov	r8,236
800030e0:	f6 08 02 48 	mul	r8,r11,r8
800030e4:	f4 08 00 08 	add	r8,r10,r8
800030e8:	e0 6a 0b 0c 	mov	r10,2828
800030ec:	f4 08 00 08 	add	r8,r10,r8
800030f0:	12 08       	add	r8,r9
800030f2:	38 09       	mov	r9,-128
800030f4:	f1 69 00 cc 	st.b	r8[204],r9
800030f8:	ce 48       	rjmp	800032c0 <handler_MonomeGridKey+0xfa8>
					else if(y == 5) w.wp[pattern].cv_probs[edit_cv_ch][x] = 128;
800030fa:	1b ba       	ld.ub	r10,sp[0x3]
800030fc:	e0 6b 1a 5b 	mov	r11,6747
80003100:	e0 69 0b 0c 	mov	r9,2828
80003104:	e0 6c 1a 77 	mov	r12,6775
80003108:	30 6e       	mov	lr,6
8000310a:	fc 08 18 00 	cp.b	r8,lr
8000310e:	c1 31       	brne	80003134 <handler_MonomeGridKey+0xe1c>
80003110:	19 88       	ld.ub	r8,r12[0x0]
80003112:	17 8c       	ld.ub	r12,r11[0x0]
80003114:	f0 0b 15 04 	lsl	r11,r8,0x4
80003118:	e0 68 00 ec 	mov	r8,236
8000311c:	f8 08 02 48 	mul	r8,r12,r8
80003120:	f6 08 00 08 	add	r8,r11,r8
80003124:	10 09       	add	r9,r8
80003126:	34 08       	mov	r8,64
80003128:	f2 0a 00 0a 	add	r10,r9,r10
8000312c:	f5 68 00 cc 	st.b	r10[204],r8
80003130:	cc 88       	rjmp	800032c0 <handler_MonomeGridKey+0xfa8>
					else if(y == 6) w.wp[pattern].cv_probs[edit_cv_ch][x] = 64;
80003132:	d7 03       	nop
80003134:	19 88       	ld.ub	r8,r12[0x0]
80003136:	17 8c       	ld.ub	r12,r11[0x0]
80003138:	f0 0b 15 04 	lsl	r11,r8,0x4
8000313c:	e0 68 00 ec 	mov	r8,236
80003140:	f8 08 02 48 	mul	r8,r12,r8
80003144:	f6 08 00 08 	add	r8,r11,r8
80003148:	10 09       	add	r9,r8
8000314a:	f2 0a 00 0a 	add	r10,r9,r10
8000314e:	f4 ca ff 34 	sub	r10,r10,-204
80003152:	30 08       	mov	r8,0
80003154:	b4 88       	st.b	r10[0x0],r8
80003156:	cb 58       	rjmp	800032c0 <handler_MonomeGridKey+0xfa8>
80003158:	58 2b       	cp.w	r11,2
8000315a:	e0 81 00 b3 	brne	800032c0 <handler_MonomeGridKey+0xfa8>
8000315e:	1b 99       	ld.ub	r9,sp[0x1]
80003160:	58 09       	cp.w	r9,0
80003162:	c3 f0       	breq	800031e0 <handler_MonomeGridKey+0xec8>
80003164:	e0 6b 1a 5d 	mov	r11,6749
80003168:	17 8b       	ld.ub	r11,r11[0x0]
8000316a:	ee 0b 18 00 	cp.b	r11,r7
8000316e:	c3 90       	breq	800031e0 <handler_MonomeGridKey+0xec8>
					else w.wp[pattern].cv_probs[edit_cv_ch][x] = 0;
80003170:	1b b9       	ld.ub	r9,sp[0x3]
80003172:	58 09       	cp.w	r9,0
80003174:	c0 b1       	brne	8000318a <handler_MonomeGridKey+0xe72>
80003176:	e0 69 1a 83 	mov	r9,6787
8000317a:	13 89       	ld.ub	r9,r9[0x0]
8000317c:	f2 08 00 08 	add	r8,r9,r8
80003180:	e0 69 0b 08 	mov	r9,2824
80003184:	20 28       	sub	r8,2
80003186:	b2 88       	st.b	r9[0x0],r8
80003188:	c2 08       	rjmp	800031c8 <handler_MonomeGridKey+0xeb0>
8000318a:	e0 6a 0b 07 	mov	r10,2823
8000318e:	15 8a       	ld.ub	r10,r10[0x0]
80003190:	f4 cb 00 01 	sub	r11,r10,1
				}
			}
		}

		// series mode
		else if(edit_mode == mSeries) {
80003194:	16 39       	cp.w	r9,r11
80003196:	c0 c1       	brne	800031ae <handler_MonomeGridKey+0xe96>
80003198:	e0 69 1a 83 	mov	r9,6787
			if(z && key_alt) {
8000319c:	13 89       	ld.ub	r9,r9[0x0]
8000319e:	f2 08 00 08 	add	r8,r9,r8
800031a2:	e0 69 0b 0c 	mov	r9,2828
800031a6:	20 28       	sub	r8,2
800031a8:	f3 68 0f 40 	st.b	r9[3904],r8
				if(x == 0)
800031ac:	c0 e8       	rjmp	800031c8 <handler_MonomeGridKey+0xeb0>
800031ae:	f4 09 18 00 	cp.b	r9,r10
					series_next = y-2+scroll_pos;
800031b2:	c0 b1       	brne	800031c8 <handler_MonomeGridKey+0xeb0>
800031b4:	e0 69 1a 83 	mov	r9,6787
800031b8:	13 89       	ld.ub	r9,r9[0x0]
800031ba:	f2 08 00 08 	add	r8,r9,r8
800031be:	e0 69 0b 0c 	mov	r9,2828
				else if(x == LENGTH-1)
800031c2:	20 28       	sub	r8,2
800031c4:	f3 68 0f 41 	st.b	r9[3905],r8
800031c8:	e0 68 0b 0c 	mov	r8,2828
					w.series_start = y-2+scroll_pos;
800031cc:	f1 39 0f 40 	ld.ub	r9,r8[3904]
800031d0:	f1 3a 0f 41 	ld.ub	r10,r8[3905]
800031d4:	f2 0a 18 00 	cp.b	r10,r9
800031d8:	c6 f2       	brcc	800032b6 <handler_MonomeGridKey+0xf9e>
800031da:	f1 69 0f 41 	st.b	r8[3905],r9
				else if(x == LENGTH)
800031de:	c6 c8       	rjmp	800032b6 <handler_MonomeGridKey+0xf9e>
800031e0:	e0 68 0a fc 	mov	r8,2812
					w.series_end = y-2+scroll_pos;
800031e4:	11 8a       	ld.ub	r10,r8[0x0]
800031e6:	f4 09 00 1a 	add	r10,r10,r9<<0x1
800031ea:	20 1a       	sub	r10,1
800031ec:	b0 8a       	st.b	r8[0x0],r10
800031ee:	30 09       	mov	r9,0
800031f0:	f2 0a 18 00 	cp.b	r10,r9

				if(w.series_end < w.series_start)
800031f4:	c0 24       	brge	800031f8 <handler_MonomeGridKey+0xee0>
800031f6:	b0 89       	st.b	r8[0x0],r9
800031f8:	30 08       	mov	r8,0
800031fa:	1b 99       	ld.ub	r9,sp[0x1]
800031fc:	f0 09 18 00 	cp.b	r9,r8
80003200:	c5 b0       	breq	800032b6 <handler_MonomeGridKey+0xf9e>
80003202:	e0 68 1a 83 	mov	r8,6787
					w.series_end = w.series_start;
80003206:	11 88       	ld.ub	r8,r8[0x0]
80003208:	1b aa       	ld.ub	r10,sp[0x2]
			}
			else {
				keycount_series += z*2-1;
8000320a:	10 0a       	add	r10,r8
8000320c:	e0 68 0b 0c 	mov	r8,2828
80003210:	f4 c9 f8 a2 	sub	r9,r10,-1886
80003214:	20 2a       	sub	r10,2
				if(keycount_series < 0)
80003216:	f0 09 04 1b 	ld.sh	r11,r8[r9<<0x1]
8000321a:	30 08       	mov	r8,0
8000321c:	f9 db c0 10 	bfextu	r12,r11,0x0,0x10
					keycount_series = 0;

				if(z) {
80003220:	10 99       	mov	r9,r8
80003222:	f8 08 08 4e 	asr	lr,r12,r8
80003226:	2f f8       	sub	r8,-1
80003228:	fd de c0 01 	bfextu	lr,lr,0x0,0x1
					count = 0;
					for(i1=0;i1<16;i1++)
						count += (w.series_list[y-2+scroll_pos] >> i1) & 1;
8000322c:	fc 09 00 09 	add	r9,lr,r9
80003230:	5c 59       	castu.b	r9
80003232:	59 08       	cp.w	r8,16
80003234:	cf 71       	brne	80003222 <handler_MonomeGridKey+0xf0a>
80003236:	30 18       	mov	r8,1
80003238:	e0 6c 0a fc 	mov	r12,2812
8000323c:	f0 09 18 00 	cp.b	r9,r8
80003240:	5f 8e       	srls	lr
80003242:	19 87       	ld.ub	r7,r12[0x0]
80003244:	f0 07 18 00 	cp.b	r7,r8
80003248:	5f 0c       	sreq	r12
8000324a:	fd ec 00 0c 	and	r12,lr,r12
8000324e:	30 0e       	mov	lr,0
80003250:	fc 0c 18 00 	cp.b	r12,lr
80003254:	c0 c0       	breq	8000326c <handler_MonomeGridKey+0xf54>
				if(keycount_series < 0)
					keycount_series = 0;

				if(z) {
					count = 0;
					for(i1=0;i1<16;i1++)
80003256:	1b b8       	ld.ub	r8,sp[0x3]
80003258:	f4 ca f8 a0 	sub	r10,r10,-1888
						count += (w.series_list[y-2+scroll_pos] >> i1) & 1;

					// single press toggle
					if(keycount_series == 1 && count < 2) {
8000325c:	30 19       	mov	r9,1
8000325e:	f2 08 09 49 	lsl	r9,r9,r8
80003262:	e0 68 0b 0c 	mov	r8,2828
80003266:	f0 0a 0a 19 	st.h	r8[r10<<0x1],r9
8000326a:	c2 68       	rjmp	800032b6 <handler_MonomeGridKey+0xf9e>
8000326c:	f0 07 18 00 	cp.b	r7,r8
80003270:	5f 9e       	srgt	lr
80003272:	f0 09 18 00 	cp.b	r9,r8
80003276:	5f b8       	srhi	r8
						w.series_list[y-2+scroll_pos] = (1<<x);
80003278:	1c 48       	or	r8,lr
8000327a:	f8 08 18 00 	cp.b	r8,r12
8000327e:	c1 c0       	breq	800032b6 <handler_MonomeGridKey+0xf9e>
80003280:	f4 c9 f8 a0 	sub	r9,r10,-1888
80003284:	30 1c       	mov	r12,1
80003286:	1b ba       	ld.ub	r10,sp[0x3]
80003288:	f8 0a 09 4a 	lsl	r10,r12,r10
					}
					// multi-select
					else if(keycount_series > 1 || count > 1) {
8000328c:	14 5b       	eor	r11,r10
8000328e:	e0 68 0b 0c 	mov	r8,2828
80003292:	f0 09 0a 1b 	st.h	r8[r9<<0x1],r11
80003296:	1b ab       	ld.ub	r11,sp[0x2]
80003298:	e0 69 1a 83 	mov	r9,6787
8000329c:	13 89       	ld.ub	r9,r9[0x0]
8000329e:	f6 09 00 09 	add	r9,r11,r9
						w.series_list[y-2+scroll_pos] ^= (1<<x);
800032a2:	30 0b       	mov	r11,0
800032a4:	f2 c9 f8 a2 	sub	r9,r9,-1886
800032a8:	f0 09 04 1c 	ld.sh	r12,r8[r9<<0x1]
800032ac:	f6 0c 19 00 	cp.h	r12,r11
800032b0:	c0 31       	brne	800032b6 <handler_MonomeGridKey+0xf9e>
800032b2:	f0 09 0a 1a 	st.h	r8[r9<<0x1],r10

						// ensure not fully clear
						if(!w.series_list[y-2+scroll_pos])
800032b6:	e0 68 07 66 	mov	r8,1894
800032ba:	11 89       	ld.ub	r9,r8[0x0]
800032bc:	2f f9       	sub	r9,-1
800032be:	b0 89       	st.b	r8[0x0],r9
800032c0:	2f fd       	sub	sp,-4
800032c2:	d8 22       	popm	r4-r7,pc

800032c4 <handler_MonomeRefresh>:
800032c4:	d4 21       	pushm	r4-r7,lr
800032c6:	e0 68 07 66 	mov	r8,1894
800032ca:	11 89       	ld.ub	r9,r8[0x0]
800032cc:	30 08       	mov	r8,0
							w.series_list[y-2+scroll_pos] = (1<<x);
800032ce:	f0 09 18 00 	cp.b	r9,r8
					}
				}
			}

			monomeFrameDirty++;
800032d2:	c4 60       	breq	8000335e <handler_MonomeRefresh+0x9a>
800032d4:	e0 69 1a 50 	mov	r9,6736
800032d8:	13 89       	ld.ub	r9,r9[0x0]
		}
	}
}
800032da:	f0 09 18 00 	cp.b	r9,r8
800032de:	c0 61       	brne	800032ea <handler_MonomeRefresh+0x26>
800032e0:	e0 68 0b 00 	mov	r8,2816
800032e4:	70 08       	ld.w	r8,r8[0x0]
800032e6:	5d 18       	icall	r8
800032e8:	c3 78       	rjmp	80003356 <handler_MonomeRefresh+0x92>
800032ea:	30 08       	mov	r8,0
800032ec:	e0 6c 1a dc 	mov	r12,6876
800032f0:	10 9b       	mov	r11,r8
800032f2:	38 0a       	mov	r10,-128
800032f4:	f8 08 0b 0b 	st.b	r12[r8],r11
800032f8:	e0 69 1a dc 	mov	r9,6876
	u8 i1,i2;

	for(i1=0;i1<128;i1++)
		monomeLedBuffer[i1] = 0;

	monomeLedBuffer[preset_select * 16] = 11;
800032fc:	2f f8       	sub	r8,-1
800032fe:	5c 58       	castu.b	r8
80003300:	f4 08 18 00 	cp.b	r8,r10

	for(i1=0;i1<8;i1++)
		for(i2=0;i2<8;i2++)
			if(glyph[i1] & (1<<i2))
				monomeLedBuffer[i1*16+i2+8] = 11;
80003304:	cf 81       	brne	800032f4 <handler_MonomeRefresh+0x30>
	u8 i1,i2;

	for(i1=0;i1<128;i1++)
		monomeLedBuffer[i1] = 0;

	monomeLedBuffer[preset_select * 16] = 11;
80003306:	30 b8       	mov	r8,11
80003308:	e0 6a 0b 04 	mov	r10,2820
8000330c:	15 8a       	ld.ub	r10,r10[0x0]
	// monome_set_quadrant_flag(1);
	timers_set_monome();
}

static void handler_MonomePoll(s32 data) { monome_read_serial(); }
static void handler_MonomeRefresh(s32 data) {
8000330e:	a5 6a       	lsl	r10,0x4
80003310:	10 9e       	mov	lr,r8
80003312:	f2 0a 0b 08 	st.b	r9[r10],r8

	monomeLedBuffer[preset_select * 16] = 11;

	for(i1=0;i1<8;i1++)
		for(i2=0;i2<8;i2++)
			if(glyph[i1] & (1<<i2))
80003316:	12 97       	mov	r7,r9
80003318:	e0 68 1a 6c 	mov	r8,6764
8000331c:	30 8a       	mov	r10,8
8000331e:	f0 0a 00 0c 	add	r12,r8,r10
				monomeLedBuffer[i1*16+i2+8] = 11;
80003322:	c0 f8       	rjmp	80003340 <handler_MonomeRefresh+0x7c>
80003324:	ec 09 08 45 	asr	r5,r6,r9
		monomeLedBuffer[i1] = 0;

	monomeLedBuffer[preset_select * 16] = 11;

	for(i1=0;i1<8;i1++)
		for(i2=0;i2<8;i2++)
80003328:	eb d5 c0 01 	bfextu	r5,r5,0x0,0x1
8000332c:	c0 20       	breq	80003330 <handler_MonomeRefresh+0x6c>
	for(i1=0;i1<128;i1++)
		monomeLedBuffer[i1] = 0;

	monomeLedBuffer[preset_select * 16] = 11;

	for(i1=0;i1<8;i1++)
8000332e:	b6 8e       	st.b	r11[0x0],lr
80003330:	2f f9       	sub	r9,-1
		for(i2=0;i2<8;i2++)
			if(glyph[i1] & (1<<i2))
80003332:	2f fb       	sub	r11,-1
80003334:	58 89       	cp.w	r9,8
80003336:	cf 71       	brne	80003324 <handler_MonomeRefresh+0x60>
80003338:	2f f8       	sub	r8,-1
8000333a:	2f 0a       	sub	r10,-16
				monomeLedBuffer[i1*16+i2+8] = 11;

	monome_set_quadrant_flag(0);
8000333c:	18 38       	cp.w	r8,r12
8000333e:	c0 60       	breq	8000334a <handler_MonomeRefresh+0x86>
80003340:	11 86       	ld.ub	r6,r8[0x0]
	monome_set_quadrant_flag(1);
80003342:	f4 07 00 0b 	add	r11,r10,r7
80003346:	30 09       	mov	r9,0
static void handler_MonomeRefresh(s32 data) {
	if(monomeFrameDirty) {
		if(preset_mode == 0) (*re)(); //refresh_mono();
		else refresh_preset();

		(*monome_refresh)();
80003348:	ce eb       	rjmp	80003324 <handler_MonomeRefresh+0x60>
8000334a:	30 0c       	mov	r12,0
8000334c:	e0 a0 0f 34 	rcall	800051b4 <monome_set_quadrant_flag>
80003350:	30 1c       	mov	r12,1
80003352:	e0 a0 0f 31 	rcall	800051b4 <monome_set_quadrant_flag>
80003356:	e0 68 1a d0 	mov	r8,6864
8000335a:	70 08       	ld.w	r8,r8[0x0]
8000335c:	5d 18       	icall	r8
8000335e:	d8 22       	popm	r4-r7,pc

80003360 <refresh_mono>:
80003360:	d4 31       	pushm	r0-r7,lr
80003362:	20 5d       	sub	sp,20
80003364:	e0 68 1a dc 	mov	r8,6876
80003368:	30 09       	mov	r9,0
8000336a:	f0 ca ff f0 	sub	r10,r8,-16
8000336e:	b0 89       	st.b	r8[0x0],r9
	u8 i1,i2;

	// clear top, cut, pattern, prob
	for(i1=0;i1<16;i1++) {
		monomeLedBuffer[i1] = 0;
		monomeLedBuffer[16+i1] = 0;
80003370:	f1 69 00 10 	st.b	r8[16],r9
		monomeLedBuffer[32+i1] = 0;
80003374:	f1 69 00 20 	st.b	r8[32],r9
		monomeLedBuffer[48+i1] = 0;
80003378:	f1 69 00 30 	st.b	r8[48],r9
// application grid redraw without varibright
static void refresh_mono() {
	u8 i1,i2;

	// clear top, cut, pattern, prob
	for(i1=0;i1<16;i1++) {
8000337c:	2f f8       	sub	r8,-1
8000337e:	14 38       	cp.w	r8,r10
		monomeLedBuffer[32+i1] = 0;
		monomeLedBuffer[48+i1] = 0;
	}

	// show mode
	if(edit_mode == mTrig) {
80003380:	cf 71       	brne	8000336e <refresh_mono+0xe>
80003382:	e0 68 1a 88 	mov	r8,6792
80003386:	70 09       	ld.w	r9,r8[0x0]
		monomeLedBuffer[0] = 11;
80003388:	58 09       	cp.w	r9,0
8000338a:	c0 91       	brne	8000339c <refresh_mono+0x3c>
		monomeLedBuffer[1] = 11;
		monomeLedBuffer[2] = 11;
		monomeLedBuffer[3] = 11;
8000338c:	e0 68 1a dc 	mov	r8,6876
	}

	// show mode
	if(edit_mode == mTrig) {
		monomeLedBuffer[0] = 11;
		monomeLedBuffer[1] = 11;
80003390:	30 ba       	mov	r10,11
		monomeLedBuffer[2] = 11;
80003392:	b0 ba       	st.b	r8[0x3],r10
80003394:	b0 8a       	st.b	r8[0x0],r10
		monomeLedBuffer[3] = 11;
	}
	else if(edit_mode == mMap) {
80003396:	b0 9a       	st.b	r8[0x1],r10
80003398:	b0 aa       	st.b	r8[0x2],r10
		if(SIZE==16) {
8000339a:	c2 b8       	rjmp	800033f0 <refresh_mono+0x90>
8000339c:	58 19       	cp.w	r9,1
8000339e:	c1 d1       	brne	800033d8 <refresh_mono+0x78>
800033a0:	e0 68 0a f4 	mov	r8,2804
800033a4:	e0 6a 1a dc 	mov	r10,6876
800033a8:	11 8c       	ld.ub	r12,r8[0x0]
			monomeLedBuffer[4+(edit_cv_ch*4)] = 11;
800033aa:	31 0b       	mov	r11,16
800033ac:	e0 68 1a 77 	mov	r8,6775
800033b0:	f6 0c 18 00 	cp.b	r12,r11
800033b4:	c0 d1       	brne	800033ce <refresh_mono+0x6e>
			monomeLedBuffer[5+(edit_cv_ch*4)] = 11;
800033b6:	11 8b       	ld.ub	r11,r8[0x0]
800033b8:	30 b8       	mov	r8,11
			monomeLedBuffer[6+(edit_cv_ch*4)] = 11;
			monomeLedBuffer[7+(edit_cv_ch*4)] = 11;
800033ba:	f6 cc ff ff 	sub	r12,r11,-1
	}
	else if(edit_mode == mMap) {
		if(SIZE==16) {
			monomeLedBuffer[4+(edit_cv_ch*4)] = 11;
			monomeLedBuffer[5+(edit_cv_ch*4)] = 11;
			monomeLedBuffer[6+(edit_cv_ch*4)] = 11;
800033be:	f4 0c 0b 28 	st.b	r10[r12<<0x2],r8
			monomeLedBuffer[7+(edit_cv_ch*4)] = 11;
		}
		else
			monomeLedBuffer[4+edit_cv_ch] = 11;
800033c2:	f4 0b 00 2a 	add	r10,r10,r11<<0x2
800033c6:	b4 f8       	st.b	r10[0x7],r8
800033c8:	b4 d8       	st.b	r10[0x5],r8
800033ca:	b4 e8       	st.b	r10[0x6],r8
	}
	else if(edit_mode == mSeries) {
800033cc:	c1 28       	rjmp	800033f0 <refresh_mono+0x90>
800033ce:	11 88       	ld.ub	r8,r8[0x0]
		monomeLedBuffer[LENGTH-1] = 11;
800033d0:	10 0a       	add	r10,r8
800033d2:	30 b8       	mov	r8,11
800033d4:	b4 c8       	st.b	r10[0x4],r8
800033d6:	c0 d8       	rjmp	800033f0 <refresh_mono+0x90>
800033d8:	58 29       	cp.w	r9,2
800033da:	c0 b1       	brne	800033f0 <refresh_mono+0x90>
800033dc:	e0 6a 1a dc 	mov	r10,6876
	}

	// alt
	if(key_alt) monomeLedBuffer[LENGTH] = 11;
800033e0:	e0 68 0b 07 	mov	r8,2823
800033e4:	11 88       	ld.ub	r8,r8[0x0]
800033e6:	f4 08 00 08 	add	r8,r10,r8
800033ea:	30 ba       	mov	r10,11
800033ec:	f1 6a ff ff 	st.b	r8[-1],r10
800033f0:	e0 68 1a 5d 	mov	r8,6749

	// show position
	monomeLedBuffer[16+pos] = 15;
800033f4:	11 86       	ld.ub	r6,r8[0x0]
800033f6:	58 06       	cp.w	r6,0
800033f8:	c0 90       	breq	8000340a <refresh_mono+0xaa>
800033fa:	e0 68 0b 07 	mov	r8,2823
800033fe:	30 bb       	mov	r11,11
80003400:	11 88       	ld.ub	r8,r8[0x0]
80003402:	e0 6a 1a dc 	mov	r10,6876
80003406:	f4 08 0b 0b 	st.b	r10[r8],r11

	// show pattern
	monomeLedBuffer[32+pattern] = 11;
8000340a:	e0 68 0b 06 	mov	r8,2822
8000340e:	e0 67 1a dc 	mov	r7,6876
80003412:	11 82       	ld.ub	r2,r8[0x0]
80003414:	f1 d2 b0 08 	bfexts	r8,r2,0x0,0x8

	// show step data
	if(edit_mode == mTrig) {
80003418:	ee 08 00 08 	add	r8,r7,r8
		if(edit_prob == 0) {
8000341c:	30 fa       	mov	r10,15
8000341e:	f1 6a 00 10 	st.b	r8[16],r10
80003422:	e0 68 1a 5b 	mov	r8,6747
80003426:	30 bc       	mov	r12,11
80003428:	11 8b       	ld.ub	r11,r8[0x0]
8000342a:	ee 0b 00 08 	add	r8,r7,r11
	monome_set_quadrant_flag(1);
}


// application grid redraw without varibright
static void refresh_mono() {
8000342e:	f1 6c 00 20 	st.b	r8[32],r12
80003432:	58 09       	cp.w	r9,0
	// show pattern
	monomeLedBuffer[32+pattern] = 11;

	// show step data
	if(edit_mode == mTrig) {
		if(edit_prob == 0) {
80003434:	c6 d1       	brne	8000350e <refresh_mono+0x1ae>
	monome_set_quadrant_flag(1);
}


// application grid redraw without varibright
static void refresh_mono() {
80003436:	e0 68 1a 81 	mov	r8,6785
8000343a:	11 88       	ld.ub	r8,r8[0x0]
	// show step data
	if(edit_mode == mTrig) {
		if(edit_prob == 0) {
			for(i1=0;i1<SIZE;i1++) {
	 			for(i2=0;i2<4;i2++) {
					if(w.wp[pattern].steps[i1] & (1<<i2)) monomeLedBuffer[(i2+4)*16+i1] = 11;
8000343c:	58 08       	cp.w	r8,0
8000343e:	c2 f1       	brne	8000349c <refresh_mono+0x13c>
80003440:	e0 68 00 ec 	mov	r8,236
80003444:	b1 3b       	mul	r11,r8
80003446:	e0 68 0b 0c 	mov	r8,2828
8000344a:	2e 4b       	sub	r11,-28
8000344c:	10 0b       	add	r11,r8
					else monomeLedBuffer[(i2+4)*16+i1] = 0;
8000344e:	e0 68 0a f4 	mov	r8,2804

	// show step data
	if(edit_mode == mTrig) {
		if(edit_prob == 0) {
			for(i1=0;i1<SIZE;i1++) {
	 			for(i2=0;i2<4;i2++) {
80003452:	0e 94       	mov	r4,r7
80003454:	11 85       	ld.ub	r5,r8[0x0]
					if(w.wp[pattern].steps[i1] & (1<<i2)) monomeLedBuffer[(i2+4)*16+i1] = 11;
					else monomeLedBuffer[(i2+4)*16+i1] = 0;
				}

				// probs
				if(w.wp[pattern].step_probs[i1] > 0) monomeLedBuffer[48+i1] = 11;
80003456:	2d 07       	sub	r7,-48
80003458:	2c 05       	sub	r5,-64
8000345a:	34 08       	mov	r8,64
8000345c:	c1 68       	rjmp	80003488 <refresh_mono+0x128>
8000345e:	e6 0a 08 46 	asr	r6,r3,r10
80003462:	ed d6 c0 01 	bfextu	r6,r6,0x0,0x1
	monomeLedBuffer[32+pattern] = 11;

	// show step data
	if(edit_mode == mTrig) {
		if(edit_prob == 0) {
			for(i1=0;i1<SIZE;i1++) {
80003466:	f8 02 17 10 	movne	r2,r12
8000346a:	ec 02 17 00 	moveq	r2,r6
	 			for(i2=0;i2<4;i2++) {
					if(w.wp[pattern].steps[i1] & (1<<i2)) monomeLedBuffer[(i2+4)*16+i1] = 11;
8000346e:	bc 82       	st.b	lr[0x0],r2
80003470:	2f fa       	sub	r10,-1
80003472:	2f 0e       	sub	lr,-16
80003474:	58 4a       	cp.w	r10,4
80003476:	cf 41       	brne	8000345e <refresh_mono+0xfe>
80003478:	17 8a       	ld.ub	r10,r11[0x0]
8000347a:	f2 0a 18 00 	cp.b	r10,r9
8000347e:	c0 20       	breq	80003482 <refresh_mono+0x122>
80003480:	ae 8c       	st.b	r7[0x0],r12
80003482:	2f fb       	sub	r11,-1
80003484:	2f f7       	sub	r7,-1
80003486:	2f f8       	sub	r8,-1
80003488:	0a 38       	cp.w	r8,r5
8000348a:	e0 80 01 f9 	breq	8000387c <refresh_mono+0x51c>
8000348e:	f7 33 ff f0 	ld.ub	r3,r11[-16]
80003492:	f0 04 00 0e 	add	lr,r8,r4
80003496:	30 0a       	mov	r10,0
80003498:	ce 3b       	rjmp	8000345e <refresh_mono+0xfe>
8000349a:	d7 03       	nop
8000349c:	30 1a       	mov	r10,1
8000349e:	f4 08 18 00 	cp.b	r8,r10

				// probs
				if(w.wp[pattern].step_probs[i1] > 0) monomeLedBuffer[48+i1] = 11;
			}
		}
		else if(edit_prob == 1) {
800034a2:	e0 81 01 ed 	brne	8000387c <refresh_mono+0x51c>
800034a6:	e0 68 0a f4 	mov	r8,2804
			for(i1=0;i1<SIZE;i1++) {
800034aa:	11 85       	ld.ub	r5,r8[0x0]
800034ac:	e0 68 00 ec 	mov	r8,236
800034b0:	b1 3b       	mul	r11,r8
800034b2:	e0 68 0b 0c 	mov	r8,2828
					monomeLedBuffer[48+i1] = 0;
					monomeLedBuffer[112+i1] = 11;
				}
				else if(w.wp[pattern].step_probs[i1]) {
					monomeLedBuffer[48+i1] = 11;
					monomeLedBuffer[64+16*(3-(w.wp[pattern].step_probs[i1]>>6))+i1] = 11;
800034b6:	0e 94       	mov	r4,r7
				// probs
				if(w.wp[pattern].step_probs[i1] > 0) monomeLedBuffer[48+i1] = 11;
			}
		}
		else if(edit_prob == 1) {
			for(i1=0;i1<SIZE;i1++) {
800034b8:	2e 4b       	sub	r11,-28
				monomeLedBuffer[64+i1] = 0;
800034ba:	12 9a       	mov	r10,r9
				// probs
				if(w.wp[pattern].step_probs[i1] > 0) monomeLedBuffer[48+i1] = 11;
			}
		}
		else if(edit_prob == 1) {
			for(i1=0;i1<SIZE;i1++) {
800034bc:	10 0b       	add	r11,r8
				monomeLedBuffer[64+i1] = 0;
				monomeLedBuffer[80+i1] = 0;
				monomeLedBuffer[96+i1] = 0;
				monomeLedBuffer[112+i1] = 0;

				if(w.wp[pattern].step_probs[i1] == 255)
800034be:	3f f6       	mov	r6,-1
				// probs
				if(w.wp[pattern].step_probs[i1] > 0) monomeLedBuffer[48+i1] = 11;
			}
		}
		else if(edit_prob == 1) {
			for(i1=0;i1<SIZE;i1++) {
800034c0:	ee c8 ff d0 	sub	r8,r7,-48
800034c4:	29 07       	sub	r7,-112
800034c6:	c1 f8       	rjmp	80003504 <refresh_mono+0x1a4>
				monomeLedBuffer[64+i1] = 0;
800034c8:	f1 6a 00 10 	st.b	r8[16],r10
				monomeLedBuffer[80+i1] = 0;
800034cc:	f1 6a 00 20 	st.b	r8[32],r10
				monomeLedBuffer[96+i1] = 0;
800034d0:	f1 6a 00 30 	st.b	r8[48],r10
				monomeLedBuffer[112+i1] = 0;
800034d4:	ae 8a       	st.b	r7[0x0],r10

				if(w.wp[pattern].step_probs[i1] == 255)
800034d6:	17 8e       	ld.ub	lr,r11[0x0]
800034d8:	ec 0e 18 00 	cp.b	lr,r6
800034dc:	c0 31       	brne	800034e2 <refresh_mono+0x182>
					monomeLedBuffer[48+i1] = 11;
800034de:	b0 8c       	st.b	r8[0x0],r12
800034e0:	c0 e8       	rjmp	800034fc <refresh_mono+0x19c>
				else if(w.wp[pattern].step_probs[i1] == 0) {
800034e2:	58 0e       	cp.w	lr,0
800034e4:	c0 41       	brne	800034ec <refresh_mono+0x18c>
					monomeLedBuffer[48+i1] = 0;
800034e6:	b0 8e       	st.b	r8[0x0],lr
					monomeLedBuffer[112+i1] = 11;
800034e8:	ae 8c       	st.b	r7[0x0],r12
800034ea:	c0 98       	rjmp	800034fc <refresh_mono+0x19c>
				}
				else if(w.wp[pattern].step_probs[i1]) {
					monomeLedBuffer[48+i1] = 11;
800034ec:	b0 8c       	st.b	r8[0x0],r12
					monomeLedBuffer[64+16*(3-(w.wp[pattern].step_probs[i1]>>6))+i1] = 11;
800034ee:	a7 8e       	lsr	lr,0x6
800034f0:	fc 0e 11 07 	rsub	lr,lr,7
800034f4:	a5 6e       	lsl	lr,0x4
800034f6:	12 0e       	add	lr,r9
800034f8:	e8 0e 0b 0c 	st.b	r4[lr],r12
800034fc:	2f f9       	sub	r9,-1
800034fe:	2f f8       	sub	r8,-1
80003500:	2f f7       	sub	r7,-1
80003502:	2f fb       	sub	r11,-1
				// probs
				if(w.wp[pattern].step_probs[i1] > 0) monomeLedBuffer[48+i1] = 11;
			}
		}
		else if(edit_prob == 1) {
			for(i1=0;i1<SIZE;i1++) {
80003504:	ea 09 18 00 	cp.b	r9,r5
80003508:	ce 03       	brcs	800034c8 <refresh_mono+0x168>
8000350a:	e0 8f 01 b9 	bral	8000387c <refresh_mono+0x51c>
			}
		}
	}

	// show map
	else if(edit_mode == mMap) {
8000350e:	58 19       	cp.w	r9,1
80003510:	e0 81 01 34 	brne	80003778 <refresh_mono+0x418>
		if(edit_prob == 0) {
80003514:	e0 68 1a 81 	mov	r8,6785
80003518:	11 88       	ld.ub	r8,r8[0x0]
8000351a:	58 08       	cp.w	r8,0
8000351c:	e0 81 00 ee 	brne	800036f8 <refresh_mono+0x398>
			// CURVES
			if(w.wp[pattern].cv_mode[edit_cv_ch] == 0) {
80003520:	e0 69 1a 77 	mov	r9,6775
80003524:	e0 65 0b 0c 	mov	r5,2828
80003528:	13 8a       	ld.ub	r10,r9[0x0]
8000352a:	e0 66 00 ec 	mov	r6,236
8000352e:	f6 06 02 46 	mul	r6,r11,r6
80003532:	ea 06 00 09 	add	r9,r5,r6
80003536:	14 09       	add	r9,r10
80003538:	13 e4       	ld.ub	r4,r9[0x6]
8000353a:	f0 04 18 00 	cp.b	r4,r8
8000353e:	c4 71       	brne	800035cc <refresh_mono+0x26c>
80003540:	f4 09 15 04 	lsl	r9,r10,0x4
80003544:	a5 7a       	lsl	r10,0x5
80003546:	0c 09       	add	r9,r6
80003548:	f4 06 00 06 	add	r6,r10,r6
8000354c:	ec c6 ff 74 	sub	r6,r6,-140
	monome_set_quadrant_flag(1);
}


// application grid redraw without varibright
static void refresh_mono() {
80003550:	2c 07       	sub	r7,-64

	// show map
	else if(edit_mode == mMap) {
		if(edit_prob == 0) {
			// CURVES
			if(w.wp[pattern].cv_mode[edit_cv_ch] == 0) {
80003552:	f2 c9 ff 34 	sub	r9,r9,-204
80003556:	e0 68 0a f4 	mov	r8,2804
	monome_set_quadrant_flag(1);
}


// application grid redraw without varibright
static void refresh_mono() {
8000355a:	0a 09       	add	r9,r5
8000355c:	11 83       	ld.ub	r3,r8[0x0]
			if(w.wp[pattern].cv_mode[edit_cv_ch] == 0) {
				for(i1=0;i1<SIZE;i1++) {
					// probs
					if(w.wp[pattern].cv_probs[edit_cv_ch][i1] > 0) monomeLedBuffer[48+i1] = 11;

					monomeLedBuffer[112+i1] = (w.wp[pattern].cv_curves[edit_cv_ch][i1] > 511) * 11;
8000355e:	ec 05 00 05 	add	r5,r6,r5
					monomeLedBuffer[96+i1] = (w.wp[pattern].cv_curves[edit_cv_ch][i1] > 1535) * 11;
80003562:	ee 03 00 03 	add	r3,r7,r3
					monomeLedBuffer[80+i1] = (w.wp[pattern].cv_curves[edit_cv_ch][i1] > 2559) * 11;
80003566:	e0 66 01 ff 	mov	r6,511
					monomeLedBuffer[64+i1] = (w.wp[pattern].cv_curves[edit_cv_ch][i1] > 3583) * 11;
8000356a:	e0 6e 05 ff 	mov	lr,1535
8000356e:	e0 6b 09 ff 	mov	r11,2559
		if(edit_prob == 0) {
			// CURVES
			if(w.wp[pattern].cv_mode[edit_cv_ch] == 0) {
				for(i1=0;i1<SIZE;i1++) {
					// probs
					if(w.wp[pattern].cv_probs[edit_cv_ch][i1] > 0) monomeLedBuffer[48+i1] = 11;
80003572:	e0 6a 0d ff 	mov	r10,3583
80003576:	c2 88       	rjmp	800035c6 <refresh_mono+0x266>
80003578:	13 88       	ld.ub	r8,r9[0x0]
8000357a:	e8 08 18 00 	cp.b	r8,r4

					monomeLedBuffer[112+i1] = (w.wp[pattern].cv_curves[edit_cv_ch][i1] > 511) * 11;
8000357e:	c0 30       	breq	80003584 <refresh_mono+0x224>
80003580:	ef 6c ff f0 	st.b	r7[-16],r12
80003584:	0b 18       	ld.sh	r8,r5++
80003586:	f0 06 19 00 	cp.h	r6,r8
					monomeLedBuffer[96+i1] = (w.wp[pattern].cv_curves[edit_cv_ch][i1] > 1535) * 11;
					monomeLedBuffer[80+i1] = (w.wp[pattern].cv_curves[edit_cv_ch][i1] > 2559) * 11;
					monomeLedBuffer[64+i1] = (w.wp[pattern].cv_curves[edit_cv_ch][i1] > 3583) * 11;
8000358a:	f9 b1 03 0b 	movlo	r1,11
8000358e:	f9 b1 02 00 	movhs	r1,0
80003592:	f0 0a 19 00 	cp.h	r10,r8
			if(w.wp[pattern].cv_mode[edit_cv_ch] == 0) {
				for(i1=0;i1<SIZE;i1++) {
					// probs
					if(w.wp[pattern].cv_probs[edit_cv_ch][i1] > 0) monomeLedBuffer[48+i1] = 11;

					monomeLedBuffer[112+i1] = (w.wp[pattern].cv_curves[edit_cv_ch][i1] > 511) * 11;
80003596:	f9 b2 03 0b 	movlo	r2,11
					monomeLedBuffer[96+i1] = (w.wp[pattern].cv_curves[edit_cv_ch][i1] > 1535) * 11;
					monomeLedBuffer[80+i1] = (w.wp[pattern].cv_curves[edit_cv_ch][i1] > 2559) * 11;
					monomeLedBuffer[64+i1] = (w.wp[pattern].cv_curves[edit_cv_ch][i1] > 3583) * 11;
8000359a:	f9 b2 02 00 	movhs	r2,0
				for(i1=0;i1<SIZE;i1++) {
					// probs
					if(w.wp[pattern].cv_probs[edit_cv_ch][i1] > 0) monomeLedBuffer[48+i1] = 11;

					monomeLedBuffer[112+i1] = (w.wp[pattern].cv_curves[edit_cv_ch][i1] > 511) * 11;
					monomeLedBuffer[96+i1] = (w.wp[pattern].cv_curves[edit_cv_ch][i1] > 1535) * 11;
8000359e:	ef 61 00 30 	st.b	r7[48],r1
800035a2:	2f f9       	sub	r9,-1
800035a4:	f0 0e 19 00 	cp.h	lr,r8
					monomeLedBuffer[80+i1] = (w.wp[pattern].cv_curves[edit_cv_ch][i1] > 2559) * 11;
800035a8:	f9 b1 03 0b 	movlo	r1,11
800035ac:	f9 b1 02 00 	movhs	r1,0
800035b0:	f0 0b 19 00 	cp.h	r11,r8
				for(i1=0;i1<SIZE;i1++) {
					// probs
					if(w.wp[pattern].cv_probs[edit_cv_ch][i1] > 0) monomeLedBuffer[48+i1] = 11;

					monomeLedBuffer[112+i1] = (w.wp[pattern].cv_curves[edit_cv_ch][i1] > 511) * 11;
					monomeLedBuffer[96+i1] = (w.wp[pattern].cv_curves[edit_cv_ch][i1] > 1535) * 11;
800035b4:	f9 b8 03 0b 	movlo	r8,11
					monomeLedBuffer[80+i1] = (w.wp[pattern].cv_curves[edit_cv_ch][i1] > 2559) * 11;
800035b8:	f9 b8 02 00 	movhs	r8,0
					monomeLedBuffer[64+i1] = (w.wp[pattern].cv_curves[edit_cv_ch][i1] > 3583) * 11;
800035bc:	ef 61 00 20 	st.b	r7[32],r1
	// show map
	else if(edit_mode == mMap) {
		if(edit_prob == 0) {
			// CURVES
			if(w.wp[pattern].cv_mode[edit_cv_ch] == 0) {
				for(i1=0;i1<SIZE;i1++) {
800035c0:	ef 68 00 10 	st.b	r7[16],r8
					monomeLedBuffer[64+i1] = (w.wp[pattern].cv_curves[edit_cv_ch][i1] > 3583) * 11;
				}
			}
			// MAP
			else {
				if(!scale_select) {
800035c4:	0e c2       	st.b	r7++,r2
800035c6:	06 37       	cp.w	r7,r3
800035c8:	cd 81       	brne	80003578 <refresh_mono+0x218>
800035ca:	c5 99       	rjmp	8000387c <refresh_mono+0x51c>
800035cc:	e0 69 1a 80 	mov	r9,6784
800035d0:	e0 62 0a f4 	mov	r2,2804
800035d4:	13 89       	ld.ub	r9,r9[0x0]
800035d6:	f4 04 15 04 	lsl	r4,r10,0x4
800035da:	12 93       	mov	r3,r9
800035dc:	f0 09 18 00 	cp.b	r9,r8
	monome_set_quadrant_flag(1);
}


// application grid redraw without varibright
static void refresh_mono() {
800035e0:	c0 c0       	breq	800035f8 <refresh_mono+0x298>
					monomeLedBuffer[64+i1] = (w.wp[pattern].cv_curves[edit_cv_ch][i1] > 3583) * 11;
				}
			}
			// MAP
			else {
				if(!scale_select) {
800035e2:	e8 06 00 06 	add	r6,r4,r6
	monome_set_quadrant_flag(1);
}


// application grid redraw without varibright
static void refresh_mono() {
800035e6:	2c 07       	sub	r7,-64
800035e8:	ec c6 ff 34 	sub	r6,r6,-204
800035ec:	05 89       	ld.ub	r9,r2[0x0]
800035ee:	ec 05 00 05 	add	r5,r6,r5
800035f2:	ee 09 00 09 	add	r9,r7,r9
800035f6:	c7 98       	rjmp	800036e8 <refresh_mono+0x388>
800035f8:	e8 06 00 06 	add	r6,r4,r6
800035fc:	ec c6 ff 34 	sub	r6,r6,-204
							monomeLedBuffer[80+i1] = 0;
							monomeLedBuffer[96+i1] = 0;
						}

						// show steps
						if(w.wp[pattern].cv_steps[edit_cv_ch][edit_cv_step] & (1<<i1)) monomeLedBuffer[112+i1] = 11;
80003600:	0a 06       	add	r6,r5
80003602:	e0 65 1a 68 	mov	r5,6760
80003606:	f6 0e 10 76 	mul	lr,r11,118

						// clear edit row
						monomeLedBuffer[64+i1] = 0;

						// show current edit value, selected
						if(edit_cv_value != -1) {
8000360a:	e8 0e 00 03 	add	r3,r4,lr
							if((w.wp[pattern].cv_values[edit_cv_value] >> 8) >= i1)
8000360e:	0b 84       	ld.ub	r4,r5[0x0]
							monomeLedBuffer[80+i1] = 0;
							monomeLedBuffer[96+i1] = 0;
						}

						// show steps
						if(w.wp[pattern].cv_steps[edit_cv_ch][edit_cv_step] & (1<<i1)) monomeLedBuffer[112+i1] = 11;
80003610:	e0 65 1a 5a 	mov	r5,6746

						// clear edit row
						monomeLedBuffer[64+i1] = 0;

						// show current edit value, selected
						if(edit_cv_value != -1) {
80003614:	0b 85       	ld.ub	r5,r5[0x0]
							monomeLedBuffer[80+i1] = 0;
							monomeLedBuffer[96+i1] = 0;
						}

						// show steps
						if(w.wp[pattern].cv_steps[edit_cv_ch][edit_cv_step] & (1<<i1)) monomeLedBuffer[112+i1] = 11;
80003616:	0a 03       	add	r3,r5
80003618:	2d a3       	sub	r3,-38
8000361a:	50 23       	stdsp	sp[0x8],r3
8000361c:	08 93       	mov	r3,r4
8000361e:	5c 63       	casts.b	r3
						// clear edit row
						monomeLedBuffer[64+i1] = 0;

						// show current edit value, selected
						if(edit_cv_value != -1) {
							if((w.wp[pattern].cv_values[edit_cv_value] >> 8) >= i1)
80003620:	06 0e       	add	lr,r3
80003622:	2e ae       	sub	lr,-22
80003624:	ee cb ff b0 	sub	r11,r7,-80
							monomeLedBuffer[80+i1] = 0;
							monomeLedBuffer[96+i1] = 0;
						}

						// show steps
						if(w.wp[pattern].cv_steps[edit_cv_ch][edit_cv_step] & (1<<i1)) monomeLedBuffer[112+i1] = 11;
80003628:	50 1e       	stdsp	sp[0x4],lr
8000362a:	05 81       	ld.ub	r1,r2[0x0]
						// clear edit row
						monomeLedBuffer[64+i1] = 0;

						// show current edit value, selected
						if(edit_cv_value != -1) {
							if((w.wp[pattern].cv_values[edit_cv_value] >> 8) >= i1)
8000362c:	ee ce ff 90 	sub	lr,r7,-112
							monomeLedBuffer[80+i1] = 0;
							monomeLedBuffer[96+i1] = 0;
						}

						// show steps
						if(w.wp[pattern].cv_steps[edit_cv_ch][edit_cv_step] & (1<<i1)) monomeLedBuffer[112+i1] = 11;
80003630:	2a 07       	sub	r7,-96
80003632:	c3 a8       	rjmp	800036a6 <refresh_mono+0x346>
80003634:	0d 83       	ld.ub	r3,r6[0x0]
80003636:	f2 03 18 00 	cp.b	r3,r9
			// MAP
			else {
				if(!scale_select) {
					for(i1=0;i1<SIZE;i1++) {
						// probs
						if(w.wp[pattern].cv_probs[edit_cv_ch][i1] > 0) monomeLedBuffer[48+i1] = 11;
8000363a:	c0 30       	breq	80003640 <refresh_mono+0x2e0>
8000363c:	ef 6c ff d0 	st.b	r7[-48],r12
80003640:	ef 69 ff e0 	st.b	r7[-32],r9

						// clear edit row
						monomeLedBuffer[64+i1] = 0;
80003644:	3f f3       	mov	r3,-1
80003646:	e6 04 18 00 	cp.b	r4,r3

						// show current edit value, selected
						if(edit_cv_value != -1) {
8000364a:	c1 80       	breq	8000367a <refresh_mono+0x31a>
8000364c:	e0 63 0b 0c 	mov	r3,2828
							if((w.wp[pattern].cv_values[edit_cv_value] >> 8) >= i1)
80003650:	40 10       	lddsp	r0,sp[0x4]
80003652:	e6 00 04 12 	ld.sh	r2,r3[r0<<0x1]
80003656:	e7 d2 c1 08 	bfextu	r3,r2,0x8,0x8
8000365a:	f0 03 19 00 	cp.h	r3,r8
								monomeLedBuffer[80+i1] = 11;
8000365e:	f2 00 17 30 	movlo	r0,r9
80003662:	f8 00 17 20 	movhs	r0,r12
80003666:	b6 80       	st.b	r11[0x0],r0
80003668:	e5 d2 c0 84 	bfextu	r2,r2,0x4,0x4
							else
								monomeLedBuffer[80+i1] = 0;

							if(((w.wp[pattern].cv_values[edit_cv_value] >> 4) & 0xf) >= i1)
8000366c:	10 32       	cp.w	r2,r8
								monomeLedBuffer[96+i1] = 11;
8000366e:	f2 03 17 50 	movlt	r3,r9
80003672:	f8 03 17 40 	movge	r3,r12
80003676:	ae 83       	st.b	r7[0x0],r3
80003678:	c0 38       	rjmp	8000367e <refresh_mono+0x31e>
8000367a:	b6 89       	st.b	r11[0x0],r9
							else
								monomeLedBuffer[96+i1] = 0;
						}
						else {
							monomeLedBuffer[80+i1] = 0;
8000367c:	ae 89       	st.b	r7[0x0],r9
							monomeLedBuffer[96+i1] = 0;
8000367e:	40 22       	lddsp	r2,sp[0x8]
						}

						// show steps
						if(w.wp[pattern].cv_steps[edit_cv_ch][edit_cv_step] & (1<<i1)) monomeLedBuffer[112+i1] = 11;
80003680:	e0 63 0b 0c 	mov	r3,2828
						else monomeLedBuffer[112+i1] = 0;
80003684:	2f f7       	sub	r7,-1
							monomeLedBuffer[80+i1] = 0;
							monomeLedBuffer[96+i1] = 0;
						}

						// show steps
						if(w.wp[pattern].cv_steps[edit_cv_ch][edit_cv_step] & (1<<i1)) monomeLedBuffer[112+i1] = 11;
80003686:	e6 02 05 13 	ld.uh	r3,r3[r2<<0x1]
						else monomeLedBuffer[112+i1] = 0;
8000368a:	2f fb       	sub	r11,-1
							monomeLedBuffer[80+i1] = 0;
							monomeLedBuffer[96+i1] = 0;
						}

						// show steps
						if(w.wp[pattern].cv_steps[edit_cv_ch][edit_cv_step] & (1<<i1)) monomeLedBuffer[112+i1] = 11;
8000368c:	e6 08 08 43 	asr	r3,r3,r8
						else monomeLedBuffer[112+i1] = 0;
80003690:	2f f6       	sub	r6,-1
							monomeLedBuffer[80+i1] = 0;
							monomeLedBuffer[96+i1] = 0;
						}

						// show steps
						if(w.wp[pattern].cv_steps[edit_cv_ch][edit_cv_step] & (1<<i1)) monomeLedBuffer[112+i1] = 11;
80003692:	e7 d3 c0 01 	bfextu	r3,r3,0x0,0x1
						else monomeLedBuffer[112+i1] = 0;
80003696:	2f f8       	sub	r8,-1
							monomeLedBuffer[80+i1] = 0;
							monomeLedBuffer[96+i1] = 0;
						}

						// show steps
						if(w.wp[pattern].cv_steps[edit_cv_ch][edit_cv_step] & (1<<i1)) monomeLedBuffer[112+i1] = 11;
80003698:	58 03       	cp.w	r3,0
8000369a:	f8 02 17 10 	movne	r2,r12
8000369e:	e6 02 17 00 	moveq	r2,r3
800036a2:	bc 82       	st.b	lr[0x0],r2
						else monomeLedBuffer[112+i1] = 0;
800036a4:	2f fe       	sub	lr,-1
				}
			}
			// MAP
			else {
				if(!scale_select) {
					for(i1=0;i1<SIZE;i1++) {
800036a6:	e2 08 18 00 	cp.b	r8,r1
800036aa:	cc 53       	brcs	80003634 <refresh_mono+0x2d4>
						if(w.wp[pattern].cv_steps[edit_cv_ch][edit_cv_step] & (1<<i1)) monomeLedBuffer[112+i1] = 11;
						else monomeLedBuffer[112+i1] = 0;
					}

					// show edit position
					monomeLedBuffer[64+edit_cv_step] = 11;
800036ac:	e0 69 1a dc 	mov	r9,6876
800036b0:	30 b8       	mov	r8,11
800036b2:	f2 05 00 05 	add	r5,r9,r5
800036b6:	eb 68 00 40 	st.b	r5[64],r8
					// show playing note
					monomeLedBuffer[112+cv_chosen[edit_cv_ch]] = 11;
800036ba:	e0 6b 1a 58 	mov	r11,6744
800036be:	f6 0a 07 0a 	ld.ub	r10,r11[r10]
800036c2:	14 09       	add	r9,r10
800036c4:	f3 68 00 70 	st.b	r9[112],r8
				}
				else {
					for(i1=0;i1<SIZE;i1++) {
						// probs
						if(w.wp[pattern].cv_probs[edit_cv_ch][i1] > 0) monomeLedBuffer[48+i1] = 11;
800036c8:	cd a8       	rjmp	8000387c <refresh_mono+0x51c>
800036ca:	0b 8a       	ld.ub	r10,r5[0x0]
800036cc:	f0 0a 18 00 	cp.b	r10,r8
800036d0:	c0 30       	breq	800036d6 <refresh_mono+0x376>

						monomeLedBuffer[64+i1] = 0;						
800036d2:	ef 6c ff f0 	st.b	r7[-16],r12
						monomeLedBuffer[80+i1] = 0;						
800036d6:	ae 88       	st.b	r7[0x0],r8
						monomeLedBuffer[96+i1] = 0;						
800036d8:	ef 68 00 10 	st.b	r7[16],r8
						monomeLedBuffer[112+i1] = 0;
800036dc:	ef 68 00 20 	st.b	r7[32],r8
800036e0:	ef 68 00 30 	st.b	r7[48],r8
					monomeLedBuffer[64+edit_cv_step] = 11;
					// show playing note
					monomeLedBuffer[112+cv_chosen[edit_cv_ch]] = 11;
				}
				else {
					for(i1=0;i1<SIZE;i1++) {
800036e4:	2f f5       	sub	r5,-1
800036e6:	2f f7       	sub	r7,-1
						monomeLedBuffer[80+i1] = 0;						
						monomeLedBuffer[96+i1] = 0;						
						monomeLedBuffer[112+i1] = 0;
					}

					monomeLedBuffer[112] = 11;
800036e8:	12 37       	cp.w	r7,r9
800036ea:	cf 01       	brne	800036ca <refresh_mono+0x36a>
800036ec:	30 b9       	mov	r9,11
800036ee:	e0 68 1a dc 	mov	r8,6876
				}

			}
		}
		else if(edit_prob == 1) {
800036f2:	f1 69 00 70 	st.b	r8[112],r9
800036f6:	cc 38       	rjmp	8000387c <refresh_mono+0x51c>
800036f8:	f2 08 18 00 	cp.b	r8,r9
			for(i1=0;i1<SIZE;i1++) {
800036fc:	e0 81 00 c0 	brne	8000387c <refresh_mono+0x51c>
80003700:	e0 68 0a f4 	mov	r8,2804
80003704:	11 85       	ld.ub	r5,r8[0x0]
80003706:	e0 68 1a 77 	mov	r8,6775
8000370a:	11 88       	ld.ub	r8,r8[0x0]
8000370c:	a5 68       	lsl	r8,0x4
8000370e:	e0 69 00 ec 	mov	r9,236
80003712:	b3 3b       	mul	r11,r9
80003714:	f0 0b 00 0b 	add	r11,r8,r11
80003718:	e0 68 0b 0c 	mov	r8,2828
8000371c:	0e 94       	mov	r4,r7
8000371e:	f6 cb ff 34 	sub	r11,r11,-204
80003722:	30 09       	mov	r9,0
80003724:	10 0b       	add	r11,r8
				monomeLedBuffer[64+i1] = 0;
80003726:	12 9a       	mov	r10,r9
80003728:	ee c8 ff d0 	sub	r8,r7,-48
				monomeLedBuffer[80+i1] = 0;
8000372c:	3f f6       	mov	r6,-1
				monomeLedBuffer[96+i1] = 0;
8000372e:	29 07       	sub	r7,-112
80003730:	c2 08       	rjmp	80003770 <refresh_mono+0x410>
				monomeLedBuffer[112+i1] = 0;
80003732:	f1 6a 00 10 	st.b	r8[16],r10

				if(w.wp[pattern].cv_probs[edit_cv_ch][i1] == 255)
80003736:	f1 6a 00 20 	st.b	r8[32],r10
8000373a:	f1 6a 00 30 	st.b	r8[48],r10
					monomeLedBuffer[48+i1] = 11;
8000373e:	ae 8a       	st.b	r7[0x0],r10
				else if(w.wp[pattern].cv_probs[edit_cv_ch][i1] == 0) {
80003740:	17 8e       	ld.ub	lr,r11[0x0]
80003742:	ec 0e 18 00 	cp.b	lr,r6
					monomeLedBuffer[48+i1] = 0;
					monomeLedBuffer[112+i1] = 11;
80003746:	c0 31       	brne	8000374c <refresh_mono+0x3ec>
80003748:	b0 8c       	st.b	r8[0x0],r12
8000374a:	c0 f8       	rjmp	80003768 <refresh_mono+0x408>
8000374c:	58 0e       	cp.w	lr,0
8000374e:	c0 51       	brne	80003758 <refresh_mono+0x3f8>
80003750:	b0 8e       	st.b	r8[0x0],lr
80003752:	ae 8c       	st.b	r7[0x0],r12
80003754:	c0 a8       	rjmp	80003768 <refresh_mono+0x408>
80003756:	d7 03       	nop
80003758:	b0 8c       	st.b	r8[0x0],r12
8000375a:	a7 8e       	lsr	lr,0x6
8000375c:	fc 0e 11 07 	rsub	lr,lr,7
80003760:	a5 6e       	lsl	lr,0x4
80003762:	12 0e       	add	lr,r9
80003764:	e8 0e 0b 0c 	st.b	r4[lr],r12
				}
				else if(w.wp[pattern].cv_probs[edit_cv_ch][i1]) {
					monomeLedBuffer[48+i1] = 11;
80003768:	2f f9       	sub	r9,-1
					monomeLedBuffer[64+16*(3-(w.wp[pattern].cv_probs[edit_cv_ch][i1]>>6))+i1] = 11;
8000376a:	2f f8       	sub	r8,-1
8000376c:	2f f7       	sub	r7,-1
8000376e:	2f fb       	sub	r11,-1
80003770:	ea 09 18 00 	cp.b	r9,r5
80003774:	cd f3       	brcs	80003732 <refresh_mono+0x3d2>
80003776:	c8 38       	rjmp	8000387c <refresh_mono+0x51c>
80003778:	58 29       	cp.w	r9,2
8000377a:	e0 81 00 81 	brne	8000387c <refresh_mono+0x51c>
8000377e:	e0 68 0a f4 	mov	r8,2804
				}

			}
		}
		else if(edit_prob == 1) {
			for(i1=0;i1<SIZE;i1++) {
80003782:	11 81       	ld.ub	r1,r8[0x0]
80003784:	e0 68 1a 75 	mov	r8,6773
		}

	}

	// series
	else if(edit_mode == mSeries) {
80003788:	11 88       	ld.ub	r8,r8[0x0]
8000378a:	e0 6a 0b 0c 	mov	r10,2828
		for(i1 = 0;i1<6;i1++) {
			for(i2=0;i2<SIZE;i2++) {
8000378e:	50 38       	stdsp	sp[0xc],r8
				// start/end bars, clear
				if((scroll || key_alt) && (i1+scroll_pos == w.series_start || i1+scroll_pos == w.series_end)) monomeLedBuffer[32+i1*16+i2] = 11;
80003790:	f5 30 0f 40 	ld.ub	r0,r10[3904]
80003794:	e0 68 1a 83 	mov	r8,6787
80003798:	e0 69 0b 07 	mov	r9,2823
8000379c:	11 88       	ld.ub	r8,r8[0x0]
			// monomeLedBuffer[32+i1*16+((scroll_pos+i1)/(64/SIZE))] = 4;
			
			// sidebar selection indicators
			if((scroll || key_alt) && i1+scroll_pos > w.series_start && i1+scroll_pos < w.series_end) {
				monomeLedBuffer[32+i1*16] = 11;
				monomeLedBuffer[32+i1*16+LENGTH] = 11;
8000379e:	13 89       	ld.ub	r9,r9[0x0]
	// series
	else if(edit_mode == mSeries) {
		for(i1 = 0;i1<6;i1++) {
			for(i2=0;i2<SIZE;i2++) {
				// start/end bars, clear
				if((scroll || key_alt) && (i1+scroll_pos == w.series_start || i1+scroll_pos == w.series_end)) monomeLedBuffer[32+i1*16+i2] = 11;
800037a0:	f0 ce f8 a0 	sub	lr,r8,-1888
			// monomeLedBuffer[32+i1*16+((scroll_pos+i1)/(64/SIZE))] = 4;
			
			// sidebar selection indicators
			if((scroll || key_alt) && i1+scroll_pos > w.series_start && i1+scroll_pos < w.series_end) {
				monomeLedBuffer[32+i1*16] = 11;
				monomeLedBuffer[32+i1*16+LENGTH] = 11;
800037a4:	0e 09       	add	r9,r7
800037a6:	f4 0e 00 1e 	add	lr,r10,lr<<0x1
800037aa:	f5 3a 0f 41 	ld.ub	r10,r10[3905]
	// series
	else if(edit_mode == mSeries) {
		for(i1 = 0;i1<6;i1++) {
			for(i2=0;i2<SIZE;i2++) {
				// start/end bars, clear
				if((scroll || key_alt) && (i1+scroll_pos == w.series_start || i1+scroll_pos == w.series_end)) monomeLedBuffer[32+i1*16+i2] = 11;
800037ae:	50 49       	stdsp	sp[0x10],r9
800037b0:	50 1a       	stdsp	sp[0x4],r10
			// monomeLedBuffer[32+i1*16+((scroll_pos+i1)/(64/SIZE))] = 4;
			
			// sidebar selection indicators
			if((scroll || key_alt) && i1+scroll_pos > w.series_start && i1+scroll_pos < w.series_end) {
				monomeLedBuffer[32+i1*16] = 11;
				monomeLedBuffer[32+i1*16+LENGTH] = 11;
800037b2:	30 09       	mov	r9,0
	// series
	else if(edit_mode == mSeries) {
		for(i1 = 0;i1<6;i1++) {
			for(i2=0;i2<SIZE;i2++) {
				// start/end bars, clear
				if((scroll || key_alt) && (i1+scroll_pos == w.series_start || i1+scroll_pos == w.series_end)) monomeLedBuffer[32+i1*16+i2] = 11;
800037b4:	50 20       	stdsp	sp[0x8],r0
			// monomeLedBuffer[32+i1*16+((scroll_pos+i1)/(64/SIZE))] = 4;
			
			// sidebar selection indicators
			if((scroll || key_alt) && i1+scroll_pos > w.series_start && i1+scroll_pos < w.series_end) {
				monomeLedBuffer[32+i1*16] = 11;
				monomeLedBuffer[32+i1*16+LENGTH] = 11;
800037b6:	32 0a       	mov	r10,32
	// series
	else if(edit_mode == mSeries) {
		for(i1 = 0;i1<6;i1++) {
			for(i2=0;i2<SIZE;i2++) {
				// start/end bars, clear
				if((scroll || key_alt) && (i1+scroll_pos == w.series_start || i1+scroll_pos == w.series_end)) monomeLedBuffer[32+i1*16+i2] = 11;
800037b8:	c3 e8       	rjmp	80003834 <refresh_mono+0x4d4>
			// monomeLedBuffer[32+i1*16+((scroll_pos+i1)/(64/SIZE))] = 4;
			
			// sidebar selection indicators
			if((scroll || key_alt) && i1+scroll_pos > w.series_start && i1+scroll_pos < w.series_end) {
				monomeLedBuffer[32+i1*16] = 11;
				monomeLedBuffer[32+i1*16+LENGTH] = 11;
800037ba:	40 38       	lddsp	r8,sp[0xc]
800037bc:	58 08       	cp.w	r8,0
	// series
	else if(edit_mode == mSeries) {
		for(i1 = 0;i1<6;i1++) {
			for(i2=0;i2<SIZE;i2++) {
				// start/end bars, clear
				if((scroll || key_alt) && (i1+scroll_pos == w.series_start || i1+scroll_pos == w.series_end)) monomeLedBuffer[32+i1*16+i2] = 11;
800037be:	c0 31       	brne	800037c4 <refresh_mono+0x464>
800037c0:	58 06       	cp.w	r6,0
800037c2:	c0 90       	breq	800037d4 <refresh_mono+0x474>
800037c4:	40 28       	lddsp	r8,sp[0x8]
800037c6:	10 30       	cp.w	r0,r8
800037c8:	c0 40       	breq	800037d0 <refresh_mono+0x470>
800037ca:	40 18       	lddsp	r8,sp[0x4]
800037cc:	10 30       	cp.w	r0,r8
800037ce:	c0 31       	brne	800037d4 <refresh_mono+0x474>
800037d0:	aa 8c       	st.b	r5[0x0],r12
800037d2:	c0 38       	rjmp	800037d8 <refresh_mono+0x478>
800037d4:	30 08       	mov	r8,0
800037d6:	a8 88       	st.b	r4[0x0],r8
				else monomeLedBuffer[32+i1*16+i2] = 0;
800037d8:	2f f3       	sub	r3,-1
800037da:	2f f5       	sub	r5,-1
	}

	// series
	else if(edit_mode == mSeries) {
		for(i1 = 0;i1<6;i1++) {
			for(i2=0;i2<SIZE;i2++) {
800037dc:	5c 53       	castu.b	r3
800037de:	2f f4       	sub	r4,-1
800037e0:	e2 03 18 00 	cp.b	r3,r1
800037e4:	ce b3       	brcs	800037ba <refresh_mono+0x45a>
800037e6:	40 08       	lddsp	r8,sp[0x0]
800037e8:	40 35       	lddsp	r5,sp[0xc]
800037ea:	58 05       	cp.w	r5,0

			// scroll position helper
			// monomeLedBuffer[32+i1*16+((scroll_pos+i1)/(64/SIZE))] = 4;
			
			// sidebar selection indicators
			if((scroll || key_alt) && i1+scroll_pos > w.series_start && i1+scroll_pos < w.series_end) {
800037ec:	c0 31       	brne	800037f2 <refresh_mono+0x492>
800037ee:	58 06       	cp.w	r6,0
800037f0:	c0 f0       	breq	8000380e <refresh_mono+0x4ae>
800037f2:	f2 08 00 05 	add	r5,r9,r8
800037f6:	40 24       	lddsp	r4,sp[0x8]
800037f8:	08 35       	cp.w	r5,r4
800037fa:	e0 8a 00 0a 	brle	8000380e <refresh_mono+0x4ae>
800037fe:	40 10       	lddsp	r0,sp[0x4]
80003800:	00 35       	cp.w	r5,r0
80003802:	c0 64       	brge	8000380e <refresh_mono+0x4ae>
80003804:	ee 0a 0b 0c 	st.b	r7[r10],r12
				monomeLedBuffer[32+i1*16] = 11;
80003808:	40 45       	lddsp	r5,sp[0x10]
8000380a:	ea 0a 0b 0c 	st.b	r5[r10],r12
				monomeLedBuffer[32+i1*16+LENGTH] = 11;
8000380e:	30 05       	mov	r5,0
80003810:	c0 a8       	rjmp	80003824 <refresh_mono+0x4c4>
80003812:	9c 84       	ld.uh	r4,lr[0x0]
80003814:	e8 05 08 44 	asr	r4,r4,r5
			}

			for(i2=0;i2<SIZE;i2++) {
				// show possible states
				if((w.series_list[i1+scroll_pos] >> i2) & 1)
80003818:	e9 d4 c0 01 	bfextu	r4,r4,0x0,0x1
8000381c:	c0 20       	breq	80003820 <refresh_mono+0x4c0>
8000381e:	b6 8c       	st.b	r11[0x0],r12
80003820:	2f f5       	sub	r5,-1
					monomeLedBuffer[32+(i1*16)+i2] = 11;
80003822:	2f fb       	sub	r11,-1
80003824:	e2 05 18 00 	cp.b	r5,r1
			if((scroll || key_alt) && i1+scroll_pos > w.series_start && i1+scroll_pos < w.series_end) {
				monomeLedBuffer[32+i1*16] = 11;
				monomeLedBuffer[32+i1*16+LENGTH] = 11;
			}

			for(i2=0;i2<SIZE;i2++) {
80003828:	cf 53       	brcs	80003812 <refresh_mono+0x4b2>
8000382a:	2f f9       	sub	r9,-1
8000382c:	2f 0a       	sub	r10,-16
8000382e:	2f ee       	sub	lr,-2
80003830:	58 69       	cp.w	r9,6
80003832:	c0 a0       	breq	80003846 <refresh_mono+0x4e6>

	}

	// series
	else if(edit_mode == mSeries) {
		for(i1 = 0;i1<6;i1++) {
80003834:	f4 07 00 0b 	add	r11,r10,r7
80003838:	30 03       	mov	r3,0
8000383a:	16 94       	mov	r4,r11
8000383c:	16 95       	mov	r5,r11
8000383e:	f2 08 00 00 	add	r0,r9,r8
			for(i2=0;i2<SIZE;i2++) {
				// start/end bars, clear
				if((scroll || key_alt) && (i1+scroll_pos == w.series_start || i1+scroll_pos == w.series_end)) monomeLedBuffer[32+i1*16+i2] = 11;
80003842:	50 08       	stdsp	sp[0x0],r8
80003844:	cc eb       	rjmp	800037e0 <refresh_mono+0x480>
80003846:	e0 69 0b 05 	mov	r9,2821
			}

		}

		// highlight playhead
		if(series_pos >= scroll_pos && series_pos < scroll_pos+6 && (pos & 1)) {
8000384a:	13 89       	ld.ub	r9,r9[0x0]
8000384c:	f0 09 18 00 	cp.b	r9,r8
80003850:	c1 63       	brcs	8000387c <refresh_mono+0x51c>
80003852:	f0 ca ff fb 	sub	r10,r8,-5
80003856:	12 3a       	cp.w	r10,r9
80003858:	c1 25       	brlt	8000387c <refresh_mono+0x51c>
8000385a:	e5 d2 c0 01 	bfextu	r2,r2,0x0,0x1
8000385e:	c0 f0       	breq	8000387c <refresh_mono+0x51c>
80003860:	2f e9       	sub	r9,-2
			monomeLedBuffer[32+(series_pos-scroll_pos)*16+series_playing] = 0;
80003862:	f2 08 01 08 	sub	r8,r9,r8
80003866:	e0 69 1a 90 	mov	r9,6800
8000386a:	13 8a       	ld.ub	r10,r9[0x0]
8000386c:	e0 69 1a dc 	mov	r9,6876
80003870:	a5 68       	lsl	r8,0x4
80003872:	14 08       	add	r8,r10
80003874:	f2 08 00 08 	add	r8,r9,r8
80003878:	30 09       	mov	r9,0
		}
	}

	monome_set_quadrant_flag(0);
8000387a:	b0 89       	st.b	r8[0x0],r9
8000387c:	30 0c       	mov	r12,0
8000387e:	e0 a0 0c 9b 	rcall	800051b4 <monome_set_quadrant_flag>
	monome_set_quadrant_flag(1);
80003882:	30 1c       	mov	r12,1
80003884:	e0 a0 0c 98 	rcall	800051b4 <monome_set_quadrant_flag>
}
80003888:	2f bd       	sub	sp,-20
8000388a:	d8 32       	popm	r0-r7,pc

8000388c <refresh>:
8000388c:	d4 31       	pushm	r0-r7,lr
8000388e:	20 6d       	sub	sp,24
80003890:	e0 69 1a dc 	mov	r9,6876
80003894:	30 0a       	mov	r10,0
80003896:	f2 cb ff f0 	sub	r11,r9,-16
8000389a:	30 48       	mov	r8,4
8000389c:	b2 8a       	st.b	r9[0x0],r10
8000389e:	f3 6a 00 10 	st.b	r9[16],r10
800038a2:	f3 68 00 20 	st.b	r9[32],r8
800038a6:	f3 6a 00 30 	st.b	r9[48],r10
800038aa:	2f f9       	sub	r9,-1
800038ac:	16 39       	cp.w	r9,r11
800038ae:	cf 71       	brne	8000389c <refresh+0x10>
		monomeLedBuffer[32+i1] = 4;
		monomeLedBuffer[48+i1] = 0;
	}

	// dim mode
	if(edit_mode == mTrig) {
800038b0:	e0 69 1a 88 	mov	r9,6792
800038b4:	72 0a       	ld.w	r10,r9[0x0]
		monomeLedBuffer[0] = 4;
800038b6:	58 0a       	cp.w	r10,0
		monomeLedBuffer[1] = 4;
		monomeLedBuffer[2] = 4;
		monomeLedBuffer[3] = 4;
800038b8:	c0 81       	brne	800038c8 <refresh+0x3c>
		monomeLedBuffer[48+i1] = 0;
	}

	// dim mode
	if(edit_mode == mTrig) {
		monomeLedBuffer[0] = 4;
800038ba:	e0 69 1a dc 	mov	r9,6876
		monomeLedBuffer[1] = 4;
		monomeLedBuffer[2] = 4;
800038be:	b2 b8       	st.b	r9[0x3],r8
800038c0:	b2 88       	st.b	r9[0x0],r8
		monomeLedBuffer[3] = 4;
	}
	else if(edit_mode == mMap) {
800038c2:	b2 98       	st.b	r9[0x1],r8
800038c4:	b2 a8       	st.b	r9[0x2],r8
		if(SIZE==16) {
800038c6:	c2 98       	rjmp	80003918 <refresh+0x8c>
800038c8:	58 1a       	cp.w	r10,1
800038ca:	c1 b1       	brne	80003900 <refresh+0x74>
800038cc:	e0 69 0a f4 	mov	r9,2804
800038d0:	e0 64 1a dc 	mov	r4,6876
800038d4:	13 8c       	ld.ub	r12,r9[0x0]
			monomeLedBuffer[4+(edit_cv_ch*4)] = 4;
800038d6:	31 0b       	mov	r11,16
800038d8:	e0 69 1a 77 	mov	r9,6775
800038dc:	f6 0c 18 00 	cp.b	r12,r11
			monomeLedBuffer[5+(edit_cv_ch*4)] = 4;
800038e0:	c0 c1       	brne	800038f8 <refresh+0x6c>
800038e2:	13 89       	ld.ub	r9,r9[0x0]
			monomeLedBuffer[6+(edit_cv_ch*4)] = 4;
			monomeLedBuffer[7+(edit_cv_ch*4)] = 4;
800038e4:	f2 cb ff ff 	sub	r11,r9,-1
	}
	else if(edit_mode == mMap) {
		if(SIZE==16) {
			monomeLedBuffer[4+(edit_cv_ch*4)] = 4;
			monomeLedBuffer[5+(edit_cv_ch*4)] = 4;
			monomeLedBuffer[6+(edit_cv_ch*4)] = 4;
800038e8:	e8 0b 0b 28 	st.b	r4[r11<<0x2],r8
			monomeLedBuffer[7+(edit_cv_ch*4)] = 4;
		}
		else
			monomeLedBuffer[4+edit_cv_ch] = 4;
800038ec:	e8 09 00 24 	add	r4,r4,r9<<0x2
800038f0:	a8 f8       	st.b	r4[0x7],r8
800038f2:	a8 d8       	st.b	r4[0x5],r8
800038f4:	a8 e8       	st.b	r4[0x6],r8
800038f6:	c1 18       	rjmp	80003918 <refresh+0x8c>
800038f8:	13 89       	ld.ub	r9,r9[0x0]
800038fa:	12 04       	add	r4,r9
800038fc:	a8 c8       	st.b	r4[0x4],r8
800038fe:	c0 d8       	rjmp	80003918 <refresh+0x8c>
80003900:	58 2a       	cp.w	r10,2
80003902:	c0 b1       	brne	80003918 <refresh+0x8c>
	}
	else if(edit_mode == mSeries) {
80003904:	e0 69 1a dc 	mov	r9,6876
		monomeLedBuffer[LENGTH-1] = 7;
80003908:	e0 68 0b 07 	mov	r8,2823
8000390c:	11 88       	ld.ub	r8,r8[0x0]
8000390e:	f2 08 00 08 	add	r8,r9,r8
80003912:	30 79       	mov	r9,7
80003914:	f1 69 ff ff 	st.b	r8[-1],r9
	}

	// alt
	monomeLedBuffer[LENGTH] = 4;
80003918:	e0 68 0b 07 	mov	r8,2823
8000391c:	30 49       	mov	r9,4
8000391e:	11 84       	ld.ub	r4,r8[0x0]
80003920:	e0 68 1a dc 	mov	r8,6876
	if(key_alt) monomeLedBuffer[LENGTH] = 11;
80003924:	f0 04 0b 09 	st.b	r8[r4],r9
80003928:	e0 69 1a 5d 	mov	r9,6749
8000392c:	13 8b       	ld.ub	r11,r9[0x0]
8000392e:	30 09       	mov	r9,0
80003930:	f2 0b 18 00 	cp.b	r11,r9
80003934:	c0 40       	breq	8000393c <refresh+0xb0>

	// show on steps
	if(triggered) {
80003936:	30 b9       	mov	r9,11
80003938:	f0 04 0b 09 	st.b	r8[r4],r9
8000393c:	e0 68 1a 79 	mov	r8,6777
		if(triggered & 0x1) monomeLedBuffer[0] = 11;
80003940:	11 85       	ld.ub	r5,r8[0x0]
80003942:	58 05       	cp.w	r5,0
80003944:	c1 f0       	breq	80003982 <refresh+0xf6>
80003946:	f1 d5 c0 08 	bfextu	r8,r5,0x0,0x8
8000394a:	ed b8 00 00 	bld	r8,0x0
		if(triggered & 0x2) monomeLedBuffer[1] = 11;
8000394e:	c0 51       	brne	80003958 <refresh+0xcc>
80003950:	30 bb       	mov	r11,11
80003952:	e0 69 1a dc 	mov	r9,6876
80003956:	b2 8b       	st.b	r9[0x0],r11
80003958:	ed b8 00 01 	bld	r8,0x1
		if(triggered & 0x4) monomeLedBuffer[2] = 11;
8000395c:	c0 51       	brne	80003966 <refresh+0xda>
8000395e:	30 bb       	mov	r11,11
80003960:	e0 69 1a dc 	mov	r9,6876
80003964:	b2 9b       	st.b	r9[0x1],r11
		if(triggered & 0x8) monomeLedBuffer[3] = 11;
80003966:	ed b8 00 02 	bld	r8,0x2
8000396a:	c0 51       	brne	80003974 <refresh+0xe8>
8000396c:	30 bb       	mov	r11,11
8000396e:	e0 69 1a dc 	mov	r9,6876
	}

	// cv indication
	if(SIZE==16) {
80003972:	b2 ab       	st.b	r9[0x2],r11
80003974:	ed b8 00 03 	bld	r8,0x3
80003978:	c0 51       	brne	80003982 <refresh+0xf6>
8000397a:	30 b9       	mov	r9,11
8000397c:	e0 68 1a dc 	mov	r8,6876
		monomeLedBuffer[cv0 / 1024 + 4] = 11;
80003980:	b0 b9       	st.b	r8[0x3],r9
80003982:	e0 68 0a f4 	mov	r8,2804
80003986:	31 09       	mov	r9,16
80003988:	11 88       	ld.ub	r8,r8[0x0]
8000398a:	f2 08 18 00 	cp.b	r8,r9
		monomeLedBuffer[cv1 / 1024 + 8] = 11;
8000398e:	c1 21       	brne	800039b2 <refresh+0x126>
80003990:	e0 6b 1a dc 	mov	r11,6876
80003994:	30 b9       	mov	r9,11
80003996:	e0 6c 1a 56 	mov	r12,6742
	}

	// show pos loop dim
	if(w.wp[pattern].loop_dir) {	
8000399a:	98 8c       	ld.uh	r12,r12[0x0]
8000399c:	ab 8c       	lsr	r12,0xa
8000399e:	f6 0c 00 0c 	add	r12,r11,r12
800039a2:	b8 c9       	st.b	r12[0x4],r9
800039a4:	e0 6c 1a 6a 	mov	r12,6762
800039a8:	98 8c       	ld.uh	r12,r12[0x0]
800039aa:	ab 8c       	lsr	r12,0xa
800039ac:	18 0b       	add	r11,r12
800039ae:	f7 69 00 08 	st.b	r11[8],r9
800039b2:	e0 69 1a 5b 	mov	r9,6747
800039b6:	e0 6c 00 ec 	mov	r12,236
		for(i1=0;i1<SIZE;i1++) {
			if(w.wp[pattern].loop_dir == 1 && i1 >= w.wp[pattern].loop_start && i1 <= w.wp[pattern].loop_end)
				monomeLedBuffer[16+i1] = 4;
			else if(w.wp[pattern].loop_dir == 2 && (i1 <= w.wp[pattern].loop_end || i1 >= w.wp[pattern].loop_start)) 
800039ba:	13 87       	ld.ub	r7,r9[0x0]
				monomeLedBuffer[16+i1] = 4;
800039bc:	e0 69 0b 0c 	mov	r9,2828
	}

	// show pos loop dim
	if(w.wp[pattern].loop_dir) {	
		for(i1=0;i1<SIZE;i1++) {
			if(w.wp[pattern].loop_dir == 1 && i1 >= w.wp[pattern].loop_start && i1 <= w.wp[pattern].loop_end)
800039c0:	ee 0c 02 4c 	mul	r12,r7,r12
800039c4:	f2 0c 00 0c 	add	r12,r9,r12
800039c8:	19 be       	ld.ub	lr,r12[0x3]
800039ca:	58 0e       	cp.w	lr,0
800039cc:	c2 90       	breq	80003a1e <refresh+0x192>
800039ce:	e0 6b 1a dc 	mov	r11,6876
800039d2:	30 09       	mov	r9,0
800039d4:	2f 0b       	sub	r11,-16
800039d6:	30 12       	mov	r2,1
800039d8:	30 23       	mov	r3,2
800039da:	30 46       	mov	r6,4
800039dc:	c1 e8       	rjmp	80003a18 <refresh+0x18c>
800039de:	e4 0e 18 00 	cp.b	lr,r2
800039e2:	c0 b1       	brne	800039f8 <refresh+0x16c>
800039e4:	19 81       	ld.ub	r1,r12[0x0]
800039e6:	f2 01 18 00 	cp.b	r1,r9
800039ea:	e0 8b 00 14 	brhi	80003a12 <refresh+0x186>
800039ee:	19 91       	ld.ub	r1,r12[0x1]
800039f0:	f2 01 18 00 	cp.b	r1,r9
800039f4:	c0 f3       	brcs	80003a12 <refresh+0x186>
800039f6:	c0 d8       	rjmp	80003a10 <refresh+0x184>
800039f8:	e6 0e 18 00 	cp.b	lr,r3
800039fc:	c0 b1       	brne	80003a12 <refresh+0x186>
800039fe:	19 91       	ld.ub	r1,r12[0x1]
				monomeLedBuffer[16+i1] = 4;
			else if(w.wp[pattern].loop_dir == 2 && (i1 <= w.wp[pattern].loop_end || i1 >= w.wp[pattern].loop_start)) 
80003a00:	f2 01 18 00 	cp.b	r1,r9
80003a04:	c0 62       	brcc	80003a10 <refresh+0x184>
80003a06:	19 81       	ld.ub	r1,r12[0x0]
80003a08:	f2 01 18 00 	cp.b	r1,r9
80003a0c:	e0 8b 00 03 	brhi	80003a12 <refresh+0x186>
80003a10:	b6 86       	st.b	r11[0x0],r6
80003a12:	2f f9       	sub	r9,-1
80003a14:	2f fb       	sub	r11,-1
80003a16:	5c 59       	castu.b	r9
				monomeLedBuffer[16+i1] = 4;
80003a18:	f0 09 18 00 	cp.b	r9,r8
		monomeLedBuffer[cv1 / 1024 + 8] = 11;
	}

	// show pos loop dim
	if(w.wp[pattern].loop_dir) {	
		for(i1=0;i1<SIZE;i1++) {
80003a1c:	ce 13       	brcs	800039de <refresh+0x152>
80003a1e:	e0 69 1a 82 	mov	r9,6786
80003a22:	13 8b       	ld.ub	r11,r9[0x0]
80003a24:	30 09       	mov	r9,0
				monomeLedBuffer[16+i1] = 4;
		}
	}

	// show position and next cut
	if(cut_pos) monomeLedBuffer[16+next_pos] = 7;
80003a26:	f2 0b 18 00 	cp.b	r11,r9
80003a2a:	c0 c0       	breq	80003a42 <refresh+0x1b6>
80003a2c:	e0 6b 1a dc 	mov	r11,6876
80003a30:	e0 69 1a 53 	mov	r9,6739
80003a34:	f3 29 00 00 	ld.sb	r9,r9[0]
80003a38:	f6 09 00 09 	add	r9,r11,r9
80003a3c:	30 7b       	mov	r11,7
80003a3e:	f3 6b 00 10 	st.b	r9[16],r11
80003a42:	e0 6b 1a dc 	mov	r11,6876
	monomeLedBuffer[16+pos] = 15;
80003a46:	30 fe       	mov	lr,15
80003a48:	e0 69 0b 06 	mov	r9,2822
80003a4c:	f3 29 00 00 	ld.sb	r9,r9[0]
80003a50:	f6 09 00 0c 	add	r12,r11,r9
80003a54:	f9 6e 00 10 	st.b	r12[16],lr

	// show pattern
	monomeLedBuffer[32+pattern] = 11;
80003a58:	f6 07 00 0c 	add	r12,r11,r7
80003a5c:	30 be       	mov	lr,11
80003a5e:	f9 6e 00 20 	st.b	r12[32],lr
	if(pattern != next_pattern) monomeLedBuffer[32+next_pattern] = 7;
80003a62:	e0 6c 1a 84 	mov	r12,6788
80003a66:	19 8c       	ld.ub	r12,r12[0x0]
80003a68:	f8 07 18 00 	cp.b	r7,r12
80003a6c:	c0 50       	breq	80003a76 <refresh+0x1ea>
80003a6e:	18 0b       	add	r11,r12
80003a70:	30 7c       	mov	r12,7

	// show step data
	if(edit_mode == mTrig) {
80003a72:	f7 6c 00 20 	st.b	r11[32],r12
80003a76:	58 0a       	cp.w	r10,0
		if(edit_prob == 0) {
80003a78:	e0 81 00 ac 	brne	80003bd0 <refresh+0x344>
80003a7c:	e0 6b 1a 81 	mov	r11,6785
80003a80:	17 8b       	ld.ub	r11,r11[0x0]
80003a82:	58 0b       	cp.w	r11,0
80003a84:	c6 c1       	brne	80003b5c <refresh+0x2d0>
80003a86:	e0 6b 0b 0c 	mov	r11,2828
80003a8a:	e0 6c 1a dc 	mov	r12,6876
80003a8e:	e0 6e 00 ec 	mov	lr,236
			for(i1=0;i1<SIZE;i1++) {
	 			for(i2=0;i2<4;i2++) {
					if((w.wp[pattern].steps[i1] & (1<<i2)) && i1 == pos && (triggered & 1<<i2)) monomeLedBuffer[(i2+4)*16+i1] = 11;
80003a92:	ee 0e 02 4e 	mul	lr,r7,lr
80003a96:	2e 4e       	sub	lr,-28
80003a98:	16 0e       	add	lr,r11
					else if(w.wp[pattern].steps[i1] & (1<<i2) && (w.wp[pattern].step_choice & 1<<i1)) monomeLedBuffer[(i2+4)*16+i1] = 4;
80003a9a:	f2 cb ff c0 	sub	r11,r9,-64
80003a9e:	f8 0b 00 0b 	add	r11,r12,r11
	// show step data
	if(edit_mode == mTrig) {
		if(edit_prob == 0) {
			for(i1=0;i1<SIZE;i1++) {
	 			for(i2=0;i2<4;i2++) {
					if((w.wp[pattern].steps[i1] & (1<<i2)) && i1 == pos && (triggered & 1<<i2)) monomeLedBuffer[(i2+4)*16+i1] = 11;
80003aa2:	50 4b       	stdsp	sp[0x10],r11
					else if(w.wp[pattern].steps[i1] & (1<<i2) && (w.wp[pattern].step_choice & 1<<i1)) monomeLedBuffer[(i2+4)*16+i1] = 4;
80003aa4:	ee 0b 15 04 	lsl	r11,r7,0x4
	monomeLedBuffer[32+pattern] = 11;
	if(pattern != next_pattern) monomeLedBuffer[32+next_pattern] = 7;

	// show step data
	if(edit_mode == mTrig) {
		if(edit_prob == 0) {
80003aa8:	0e 1b       	sub	r11,r7
			for(i1=0;i1<SIZE;i1++) {
	 			for(i2=0;i2<4;i2++) {
					if((w.wp[pattern].steps[i1] & (1<<i2)) && i1 == pos && (triggered & 1<<i2)) monomeLedBuffer[(i2+4)*16+i1] = 11;
					else if(w.wp[pattern].steps[i1] & (1<<i2) && (w.wp[pattern].step_choice & 1<<i1)) monomeLedBuffer[(i2+4)*16+i1] = 4;
80003aaa:	a3 6b       	lsl	r11,0x2
80003aac:	18 94       	mov	r4,r12
80003aae:	f6 07 01 07 	sub	r7,r11,r7
	// show step data
	if(edit_mode == mTrig) {
		if(edit_prob == 0) {
			for(i1=0;i1<SIZE;i1++) {
	 			for(i2=0;i2<4;i2++) {
					if((w.wp[pattern].steps[i1] & (1<<i2)) && i1 == pos && (triggered & 1<<i2)) monomeLedBuffer[(i2+4)*16+i1] = 11;
80003ab2:	2d 0c       	sub	r12,-48
80003ab4:	ee cb ff ff 	sub	r11,r7,-1
80003ab8:	50 5b       	stdsp	sp[0x14],r11
80003aba:	c3 98       	rjmp	80003b2c <refresh+0x2a0>
80003abc:	40 28       	lddsp	r8,sp[0x8]
80003abe:	f0 0b 08 42 	asr	r2,r8,r11
80003ac2:	e5 d2 c0 01 	bfextu	r2,r2,0x0,0x1
80003ac6:	c1 a0       	breq	80003afa <refresh+0x26e>
80003ac8:	12 3a       	cp.w	r10,r9
80003aca:	c0 a1       	brne	80003ade <refresh+0x252>
80003acc:	40 30       	lddsp	r0,sp[0xc]
80003ace:	e0 0b 08 42 	asr	r2,r0,r11
80003ad2:	ed b2 00 00 	bld	r2,0x0
					else if(w.wp[pattern].steps[i1] & (1<<i2) && (w.wp[pattern].step_choice & 1<<i1)) monomeLedBuffer[(i2+4)*16+i1] = 4;
80003ad6:	c0 41       	brne	80003ade <refresh+0x252>
80003ad8:	30 b2       	mov	r2,11
80003ada:	ae 82       	st.b	r7[0x0],r2
80003adc:	c1 48       	rjmp	80003b04 <refresh+0x278>
80003ade:	40 58       	lddsp	r8,sp[0x14]
80003ae0:	e0 60 0b 0c 	mov	r0,2828
80003ae4:	e0 08 05 22 	ld.uh	r2,r0[r8<<0x2]
80003ae8:	40 18       	lddsp	r8,sp[0x4]
80003aea:	f1 e2 00 02 	and	r2,r8,r2
					else if(w.wp[pattern].steps[i1] & (1<<i2)) monomeLedBuffer[(i2+4)*16+i1] = 7;
					else if(i1 == pos) monomeLedBuffer[(i2+4)*16+i1] = 4;
80003aee:	e2 00 17 00 	moveq	r0,r1
80003af2:	e6 00 17 10 	movne	r0,r3
					else monomeLedBuffer[(i2+4)*16+i1] = 0;
80003af6:	ac 80       	st.b	r6[0x0],r0
80003af8:	c0 68       	rjmp	80003b04 <refresh+0x278>
80003afa:	12 3a       	cp.w	r10,r9
80003afc:	c0 31       	brne	80003b02 <refresh+0x276>

	// show step data
	if(edit_mode == mTrig) {
		if(edit_prob == 0) {
			for(i1=0;i1<SIZE;i1++) {
	 			for(i2=0;i2<4;i2++) {
80003afe:	ae 83       	st.b	r7[0x0],r3
80003b00:	c0 28       	rjmp	80003b04 <refresh+0x278>
					else if(i1 == pos) monomeLedBuffer[(i2+4)*16+i1] = 4;
					else monomeLedBuffer[(i2+4)*16+i1] = 0;
				}

				// probs
				if(w.wp[pattern].step_probs[i1] == 255) monomeLedBuffer[48+i1] = 11;
80003b02:	ac 82       	st.b	r6[0x0],r2
80003b04:	2f fb       	sub	r11,-1
80003b06:	2f 07       	sub	r7,-16
80003b08:	2f 06       	sub	r6,-16
80003b0a:	58 4b       	cp.w	r11,4
80003b0c:	cd 81       	brne	80003abc <refresh+0x230>
80003b0e:	1d 87       	ld.ub	r7,lr[0x0]
80003b10:	40 08       	lddsp	r8,sp[0x0]
80003b12:	3f f6       	mov	r6,-1
				else if(w.wp[pattern].step_probs[i1] > 0) monomeLedBuffer[48+i1] = 4;
80003b14:	0e 93       	mov	r3,r7
80003b16:	ec 07 18 00 	cp.b	r7,r6
80003b1a:	c0 31       	brne	80003b20 <refresh+0x294>
80003b1c:	30 bb       	mov	r11,11
80003b1e:	c0 38       	rjmp	80003b24 <refresh+0x298>
	if(pattern != next_pattern) monomeLedBuffer[32+next_pattern] = 7;

	// show step data
	if(edit_mode == mTrig) {
		if(edit_prob == 0) {
			for(i1=0;i1<SIZE;i1++) {
80003b20:	58 07       	cp.w	r7,0
80003b22:	c0 20       	breq	80003b26 <refresh+0x29a>
80003b24:	b8 8b       	st.b	r12[0x0],r11
80003b26:	2f fa       	sub	r10,-1
	 			for(i2=0;i2<4;i2++) {
					if((w.wp[pattern].steps[i1] & (1<<i2)) && i1 == pos && (triggered & 1<<i2)) monomeLedBuffer[(i2+4)*16+i1] = 11;
80003b28:	2f fc       	sub	r12,-1
80003b2a:	2f fe       	sub	lr,-1
80003b2c:	f0 0a 18 00 	cp.b	r10,r8
80003b30:	e0 82 02 39 	brhs	80003fa2 <refresh+0x716>
80003b34:	30 1b       	mov	r11,1
80003b36:	f6 0a 09 4b 	lsl	r11,r11,r10
80003b3a:	f4 c6 ff c0 	sub	r6,r10,-64
80003b3e:	50 1b       	stdsp	sp[0x4],r11
80003b40:	e1 d5 b0 08 	bfexts	r0,r5,0x0,0x8
					else if(w.wp[pattern].steps[i1] & (1<<i2) && (w.wp[pattern].step_choice & 1<<i1)) monomeLedBuffer[(i2+4)*16+i1] = 4;
					else if(w.wp[pattern].steps[i1] & (1<<i2)) monomeLedBuffer[(i2+4)*16+i1] = 7;
					else if(i1 == pos) monomeLedBuffer[(i2+4)*16+i1] = 4;
80003b44:	fd 32 ff f0 	ld.ub	r2,lr[-16]
	// show step data
	if(edit_mode == mTrig) {
		if(edit_prob == 0) {
			for(i1=0;i1<SIZE;i1++) {
	 			for(i2=0;i2<4;i2++) {
					if((w.wp[pattern].steps[i1] & (1<<i2)) && i1 == pos && (triggered & 1<<i2)) monomeLedBuffer[(i2+4)*16+i1] = 11;
80003b48:	08 06       	add	r6,r4
80003b4a:	50 22       	stdsp	sp[0x8],r2
80003b4c:	40 47       	lddsp	r7,sp[0x10]
80003b4e:	30 0b       	mov	r11,0
80003b50:	30 43       	mov	r3,4
80003b52:	30 71       	mov	r1,7
80003b54:	50 30       	stdsp	sp[0xc],r0
80003b56:	50 08       	stdsp	sp[0x0],r8
80003b58:	cb 2b       	rjmp	80003abc <refresh+0x230>
80003b5a:	d7 03       	nop
80003b5c:	30 19       	mov	r9,1
80003b5e:	f2 0b 18 00 	cp.b	r11,r9
80003b62:	e0 81 02 20 	brne	80003fa2 <refresh+0x716>
80003b66:	e0 69 00 ec 	mov	r9,236
80003b6a:	b3 37       	mul	r7,r9
				// probs
				if(w.wp[pattern].step_probs[i1] == 255) monomeLedBuffer[48+i1] = 11;
				else if(w.wp[pattern].step_probs[i1] > 0) monomeLedBuffer[48+i1] = 4;
			}
		}
		else if(edit_prob == 1) {
80003b6c:	e0 69 0b 0c 	mov	r9,2828
80003b70:	e0 6c 1a dc 	mov	r12,6876
80003b74:	2e 47       	sub	r7,-28
80003b76:	18 93       	mov	r3,r12
80003b78:	12 07       	add	r7,r9
80003b7a:	30 4b       	mov	r11,4
80003b7c:	f8 c9 ff d0 	sub	r9,r12,-48
80003b80:	3f f4       	mov	r4,-1
					monomeLedBuffer[48+i1] = 0;
					monomeLedBuffer[112+i1] = 7;
				}
				else if(w.wp[pattern].step_probs[i1]) {
					monomeLedBuffer[48+i1] = 4;
					monomeLedBuffer[64+16*(3-(w.wp[pattern].step_probs[i1]>>6))+i1] = 7;
80003b82:	29 0c       	sub	r12,-112
				// probs
				if(w.wp[pattern].step_probs[i1] == 255) monomeLedBuffer[48+i1] = 11;
				else if(w.wp[pattern].step_probs[i1] > 0) monomeLedBuffer[48+i1] = 4;
			}
		}
		else if(edit_prob == 1) {
80003b84:	30 76       	mov	r6,7
			for(i1=0;i1<SIZE;i1++) {
				monomeLedBuffer[64+i1] = 4;
80003b86:	30 b5       	mov	r5,11
				// probs
				if(w.wp[pattern].step_probs[i1] == 255) monomeLedBuffer[48+i1] = 11;
				else if(w.wp[pattern].step_probs[i1] > 0) monomeLedBuffer[48+i1] = 4;
			}
		}
		else if(edit_prob == 1) {
80003b88:	c1 f8       	rjmp	80003bc6 <refresh+0x33a>
80003b8a:	f3 6b 00 10 	st.b	r9[16],r11
80003b8e:	f3 6b 00 20 	st.b	r9[32],r11
				monomeLedBuffer[80+i1] = 4;
				monomeLedBuffer[96+i1] = 4;
				monomeLedBuffer[112+i1] = 4;

				if(w.wp[pattern].step_probs[i1] == 255)
					monomeLedBuffer[48+i1] = 11;
80003b92:	f3 6b 00 30 	st.b	r9[48],r11
				else if(w.wp[pattern].step_probs[i1] > 0) monomeLedBuffer[48+i1] = 4;
			}
		}
		else if(edit_prob == 1) {
			for(i1=0;i1<SIZE;i1++) {
				monomeLedBuffer[64+i1] = 4;
80003b96:	b8 8b       	st.b	r12[0x0],r11
80003b98:	0f 8e       	ld.ub	lr,r7[0x0]
				monomeLedBuffer[80+i1] = 4;
80003b9a:	e8 0e 18 00 	cp.b	lr,r4
				monomeLedBuffer[96+i1] = 4;
80003b9e:	c0 31       	brne	80003ba4 <refresh+0x318>
80003ba0:	b2 85       	st.b	r9[0x0],r5
				monomeLedBuffer[112+i1] = 4;
80003ba2:	c0 e8       	rjmp	80003bbe <refresh+0x332>

				if(w.wp[pattern].step_probs[i1] == 255)
80003ba4:	58 0e       	cp.w	lr,0
80003ba6:	c0 41       	brne	80003bae <refresh+0x322>
80003ba8:	b2 8e       	st.b	r9[0x0],lr
80003baa:	b8 86       	st.b	r12[0x0],r6
					monomeLedBuffer[48+i1] = 11;
80003bac:	c0 98       	rjmp	80003bbe <refresh+0x332>
80003bae:	b2 8b       	st.b	r9[0x0],r11
				else if(w.wp[pattern].step_probs[i1] == 0) {
80003bb0:	a7 8e       	lsr	lr,0x6
80003bb2:	fc 0e 11 07 	rsub	lr,lr,7
					monomeLedBuffer[48+i1] = 0;
					monomeLedBuffer[112+i1] = 7;
80003bb6:	a5 6e       	lsl	lr,0x4
80003bb8:	14 0e       	add	lr,r10
				}
				else if(w.wp[pattern].step_probs[i1]) {
					monomeLedBuffer[48+i1] = 4;
80003bba:	e6 0e 0b 06 	st.b	r3[lr],r6
					monomeLedBuffer[64+16*(3-(w.wp[pattern].step_probs[i1]>>6))+i1] = 7;
80003bbe:	2f fa       	sub	r10,-1
80003bc0:	2f f9       	sub	r9,-1
80003bc2:	2f fc       	sub	r12,-1
80003bc4:	2f f7       	sub	r7,-1
80003bc6:	f0 0a 18 00 	cp.b	r10,r8
80003bca:	ce 03       	brcs	80003b8a <refresh+0x2fe>
80003bcc:	e0 8f 01 eb 	bral	80003fa2 <refresh+0x716>
80003bd0:	58 1a       	cp.w	r10,1
				if(w.wp[pattern].step_probs[i1] == 255) monomeLedBuffer[48+i1] = 11;
				else if(w.wp[pattern].step_probs[i1] > 0) monomeLedBuffer[48+i1] = 4;
			}
		}
		else if(edit_prob == 1) {
			for(i1=0;i1<SIZE;i1++) {
80003bd2:	e0 81 01 75 	brne	80003ebc <refresh+0x630>
80003bd6:	e0 6b 1a 81 	mov	r11,6785
80003bda:	17 8b       	ld.ub	r11,r11[0x0]
			}
		}
	}

	// show map
	else if(edit_mode == mMap) {
80003bdc:	58 0b       	cp.w	r11,0
80003bde:	e0 81 01 2f 	brne	80003e3c <refresh+0x5b0>
		if(edit_prob == 0) {
80003be2:	e0 6a 1a 77 	mov	r10,6775
80003be6:	e0 66 0b 0c 	mov	r6,2828
80003bea:	15 8c       	ld.ub	r12,r10[0x0]
			// CURVES
			if(w.wp[pattern].cv_mode[edit_cv_ch] == 0) {
80003bec:	e0 6e 00 ec 	mov	lr,236
80003bf0:	ee 0e 02 4e 	mul	lr,r7,lr
80003bf4:	ec 0e 00 05 	add	r5,r6,lr
80003bf8:	18 05       	add	r5,r12
80003bfa:	0b e5       	ld.ub	r5,r5[0x6]
80003bfc:	f6 05 18 00 	cp.b	r5,r11
80003c00:	c7 01       	brne	80003ce0 <refresh+0x454>
80003c02:	f8 07 15 04 	lsl	r7,r12,0x4
80003c06:	f8 05 15 05 	lsl	r5,r12,0x5
80003c0a:	1c 07       	add	r7,lr
80003c0c:	e0 6a 1a dc 	mov	r10,6876
80003c10:	ee c7 ff 34 	sub	r7,r7,-204
80003c14:	1c 05       	add	r5,lr
80003c16:	0c 07       	add	r7,r6
80003c18:	ea c5 ff 74 	sub	r5,r5,-140
80003c1c:	2d 0a       	sub	r10,-48
80003c1e:	0c 05       	add	r5,r6
80003c20:	3f f1       	mov	r1,-1
80003c22:	30 72       	mov	r2,7
				for(i1=0;i1<SIZE;i1++) {
					// probs
					if(w.wp[pattern].cv_probs[edit_cv_ch][i1] == 255) monomeLedBuffer[48+i1] = 11;
80003c24:	30 b3       	mov	r3,11
					else if(w.wp[pattern].cv_probs[edit_cv_ch][i1] > 0) monomeLedBuffer[48+i1] = 7;
80003c26:	e0 64 03 ff 	mov	r4,1023

					monomeLedBuffer[112+i1] = (w.wp[pattern].cv_curves[edit_cv_ch][i1] > 1023) * 7;
80003c2a:	e0 66 07 ff 	mov	r6,2047
					monomeLedBuffer[96+i1] = (w.wp[pattern].cv_curves[edit_cv_ch][i1] > 2047) * 7;
80003c2e:	e0 6c 0b ff 	mov	r12,3071
					monomeLedBuffer[80+i1] = (w.wp[pattern].cv_curves[edit_cv_ch][i1] > 3071) * 7;
80003c32:	50 19       	stdsp	sp[0x4],r9
80003c34:	c3 58       	rjmp	80003c9e <refresh+0x412>
80003c36:	0f 8e       	ld.ub	lr,r7[0x0]
80003c38:	e2 0e 18 00 	cp.b	lr,r1
		if(edit_prob == 0) {
			// CURVES
			if(w.wp[pattern].cv_mode[edit_cv_ch] == 0) {
				for(i1=0;i1<SIZE;i1++) {
					// probs
					if(w.wp[pattern].cv_probs[edit_cv_ch][i1] == 255) monomeLedBuffer[48+i1] = 11;
80003c3c:	c0 31       	brne	80003c42 <refresh+0x3b6>
80003c3e:	b4 83       	st.b	r10[0x0],r3
80003c40:	c0 48       	rjmp	80003c48 <refresh+0x3bc>
80003c42:	58 0e       	cp.w	lr,0
80003c44:	c0 20       	breq	80003c48 <refresh+0x3bc>
					else if(w.wp[pattern].cv_probs[edit_cv_ch][i1] > 0) monomeLedBuffer[48+i1] = 7;
80003c46:	b4 82       	st.b	r10[0x0],r2
80003c48:	30 0e       	mov	lr,0
80003c4a:	f5 6e 00 10 	st.b	r10[16],lr

					monomeLedBuffer[112+i1] = (w.wp[pattern].cv_curves[edit_cv_ch][i1] > 1023) * 7;
					monomeLedBuffer[96+i1] = (w.wp[pattern].cv_curves[edit_cv_ch][i1] > 2047) * 7;
					monomeLedBuffer[80+i1] = (w.wp[pattern].cv_curves[edit_cv_ch][i1] > 3071) * 7;
					monomeLedBuffer[64+i1] = 0;
80003c4e:	0b 1e       	ld.sh	lr,r5++
80003c50:	fc 04 19 00 	cp.h	r4,lr
				for(i1=0;i1<SIZE;i1++) {
					// probs
					if(w.wp[pattern].cv_probs[edit_cv_ch][i1] == 255) monomeLedBuffer[48+i1] = 11;
					else if(w.wp[pattern].cv_probs[edit_cv_ch][i1] > 0) monomeLedBuffer[48+i1] = 7;

					monomeLedBuffer[112+i1] = (w.wp[pattern].cv_curves[edit_cv_ch][i1] > 1023) * 7;
80003c54:	f9 b0 03 07 	movlo	r0,7
80003c58:	f9 b0 02 00 	movhs	r0,0
80003c5c:	f5 60 00 40 	st.b	r10[64],r0
80003c60:	fc 06 19 00 	cp.h	r6,lr
					monomeLedBuffer[96+i1] = (w.wp[pattern].cv_curves[edit_cv_ch][i1] > 2047) * 7;
80003c64:	f9 b0 03 07 	movlo	r0,7
80003c68:	f9 b0 02 00 	movhs	r0,0
80003c6c:	f5 60 00 30 	st.b	r10[48],r0
80003c70:	fc 0c 19 00 	cp.h	r12,lr
					monomeLedBuffer[80+i1] = (w.wp[pattern].cv_curves[edit_cv_ch][i1] > 3071) * 7;
80003c74:	f9 b0 03 07 	movlo	r0,7
80003c78:	f9 b0 02 00 	movhs	r0,0
80003c7c:	f5 60 00 20 	st.b	r10[32],r0
80003c80:	5c 7e       	castu.h	lr
80003c82:	e0 69 1a dc 	mov	r9,6876
					monomeLedBuffer[64+i1] = 0;
					monomeLedBuffer[64+16*(3-(w.wp[pattern].cv_curves[edit_cv_ch][i1]>>10))+i1] = (w.wp[pattern].cv_curves[edit_cv_ch][i1]>>7) & 0x7;
80003c86:	e1 de c0 e3 	bfextu	r0,lr,0x7,0x3
80003c8a:	2f fa       	sub	r10,-1
80003c8c:	ab 8e       	lsr	lr,0xa
80003c8e:	2f f7       	sub	r7,-1
80003c90:	fc 0e 11 07 	rsub	lr,lr,7
80003c94:	a5 6e       	lsl	lr,0x4
80003c96:	16 0e       	add	lr,r11
80003c98:	2f fb       	sub	r11,-1
80003c9a:	f2 0e 0b 00 	st.b	r9[lr],r0
80003c9e:	f0 0b 18 00 	cp.b	r11,r8
	// show map
	else if(edit_mode == mMap) {
		if(edit_prob == 0) {
			// CURVES
			if(w.wp[pattern].cv_mode[edit_cv_ch] == 0) {
				for(i1=0;i1<SIZE;i1++) {
80003ca2:	cc a3       	brcs	80003c36 <refresh+0x3aa>
80003ca4:	40 19       	lddsp	r9,sp[0x4]
80003ca6:	f2 ca ff c0 	sub	r10,r9,-64
					monomeLedBuffer[64+i1] = 0;
					monomeLedBuffer[64+16*(3-(w.wp[pattern].cv_curves[edit_cv_ch][i1]>>10))+i1] = (w.wp[pattern].cv_curves[edit_cv_ch][i1]>>7) & 0x7;
				}

				// play step highlight
				monomeLedBuffer[64+pos] += 4;
80003caa:	e0 68 1a dc 	mov	r8,6876
80003cae:	f0 0a 07 0b 	ld.ub	r11,r8[r10]
80003cb2:	2f cb       	sub	r11,-4
80003cb4:	f0 0a 0b 0b 	st.b	r8[r10],r11
				monomeLedBuffer[80+pos] += 4;
80003cb8:	f2 ca ff b0 	sub	r10,r9,-80
80003cbc:	f0 0a 07 0b 	ld.ub	r11,r8[r10]
80003cc0:	2f cb       	sub	r11,-4
80003cc2:	f0 0a 0b 0b 	st.b	r8[r10],r11
				monomeLedBuffer[96+pos] += 4;
80003cc6:	f2 ca ff a0 	sub	r10,r9,-96
				monomeLedBuffer[112+pos] += 4;
80003cca:	29 09       	sub	r9,-112
				}

				// play step highlight
				monomeLedBuffer[64+pos] += 4;
				monomeLedBuffer[80+pos] += 4;
				monomeLedBuffer[96+pos] += 4;
80003ccc:	f0 0a 07 0b 	ld.ub	r11,r8[r10]
80003cd0:	2f cb       	sub	r11,-4
80003cd2:	f0 0a 0b 0b 	st.b	r8[r10],r11
				monomeLedBuffer[112+pos] += 4;
80003cd6:	f0 09 07 0a 	ld.ub	r10,r8[r9]
80003cda:	2f ca       	sub	r10,-4
80003cdc:	c6 19       	rjmp	80003f9e <refresh+0x712>
80003cde:	d7 03       	nop
80003ce0:	e0 65 1a 80 	mov	r5,6784
80003ce4:	e0 64 1a dc 	mov	r4,6876
80003ce8:	0b 83       	ld.ub	r3,r5[0x0]
80003cea:	f8 05 15 04 	lsl	r5,r12,0x4
80003cee:	f6 03 18 00 	cp.b	r3,r11
			}
			// MAP
			else {
				if(!scale_select) {
80003cf2:	c0 c0       	breq	80003d0a <refresh+0x47e>
80003cf4:	1c 05       	add	r5,lr
80003cf6:	2d 04       	sub	r4,-48
80003cf8:	ea c5 ff 34 	sub	r5,r5,-204
80003cfc:	3f f7       	mov	r7,-1
80003cfe:	ea 06 00 06 	add	r6,r5,r6
80003d02:	30 79       	mov	r9,7
80003d04:	30 be       	mov	lr,11
80003d06:	16 9c       	mov	r12,r11
					monomeLedBuffer[112+cv_chosen[edit_cv_ch]] = 11;
				}
				else {
					for(i1=0;i1<SIZE;i1++) {
						// probs
						if(w.wp[pattern].cv_probs[edit_cv_ch][i1] == 255) monomeLedBuffer[48+i1] = 11;
80003d08:	c9 18       	rjmp	80003e2a <refresh+0x59e>
				monomeLedBuffer[96+pos] += 4;
				monomeLedBuffer[112+pos] += 4;
			}
			// MAP
			else {
				if(!scale_select) {
80003d0a:	ee 07 10 76 	mul	r7,r7,118
				}
				else {
					for(i1=0;i1<SIZE;i1++) {
						// probs
						if(w.wp[pattern].cv_probs[edit_cv_ch][i1] == 255) monomeLedBuffer[48+i1] = 11;
						else if(w.wp[pattern].cv_probs[edit_cv_ch][i1] > 0) monomeLedBuffer[48+i1] = 7;
80003d0e:	ea 07 00 0a 	add	r10,r5,r7

						monomeLedBuffer[64+i1] = (i1<8) * 4;						
						monomeLedBuffer[80+i1] = (i1<8) * 4;						
						monomeLedBuffer[96+i1] = (i1<8) * 4;						
						monomeLedBuffer[112+i1] = 0;
80003d12:	1c 05       	add	r5,lr
80003d14:	ea c5 ff 34 	sub	r5,r5,-204
						// clear edit select line
						monomeLedBuffer[64+i1] = 4;

						// show current edit value, selected
						if(edit_cv_value != -1) {
							if((w.wp[pattern].cv_values[edit_cv_value] >> 8) >= i1)
80003d18:	0c 05       	add	r5,r6
							monomeLedBuffer[80+i1] = 0;
							monomeLedBuffer[96+i1] = 0;
						}

						// show steps
						if(w.wp[pattern].cv_steps[edit_cv_ch][edit_cv_step] & (1<<i1)) monomeLedBuffer[112+i1] = 7;
80003d1a:	e0 66 1a 68 	mov	r6,6760
80003d1e:	0d 81       	ld.ub	r1,r6[0x0]
80003d20:	e0 66 1a 5a 	mov	r6,6746
80003d24:	0d 83       	ld.ub	r3,r6[0x0]

						// clear edit select line
						monomeLedBuffer[64+i1] = 4;

						// show current edit value, selected
						if(edit_cv_value != -1) {
80003d26:	06 0a       	add	r10,r3
80003d28:	2d aa       	sub	r10,-38
							monomeLedBuffer[80+i1] = 0;
							monomeLedBuffer[96+i1] = 0;
						}

						// show steps
						if(w.wp[pattern].cv_steps[edit_cv_ch][edit_cv_step] & (1<<i1)) monomeLedBuffer[112+i1] = 7;
80003d2a:	50 2a       	stdsp	sp[0x8],r10
80003d2c:	f5 d1 b0 08 	bfexts	r10,r1,0x0,0x8
80003d30:	14 07       	add	r7,r10
80003d32:	ee c2 ff ea 	sub	r2,r7,-22
						// clear edit select line
						monomeLedBuffer[64+i1] = 4;

						// show current edit value, selected
						if(edit_cv_value != -1) {
							if((w.wp[pattern].cv_values[edit_cv_value] >> 8) >= i1)
80003d36:	e8 ce ff b0 	sub	lr,r4,-80
80003d3a:	50 12       	stdsp	sp[0x4],r2
80003d3c:	e8 c6 ff 90 	sub	r6,r4,-112
							monomeLedBuffer[80+i1] = 0;
							monomeLedBuffer[96+i1] = 0;
						}

						// show steps
						if(w.wp[pattern].cv_steps[edit_cv_ch][edit_cv_step] & (1<<i1)) monomeLedBuffer[112+i1] = 7;
80003d40:	e8 ca ff a0 	sub	r10,r4,-96
80003d44:	3f f2       	mov	r2,-1
80003d46:	30 77       	mov	r7,7
80003d48:	c3 f8       	rjmp	80003dc6 <refresh+0x53a>
80003d4a:	0b 84       	ld.ub	r4,r5[0x0]
			// MAP
			else {
				if(!scale_select) {
					for(i1=0;i1<SIZE;i1++) {
						// probs
						if(w.wp[pattern].cv_probs[edit_cv_ch][i1] == 255) monomeLedBuffer[48+i1] = 11;
80003d4c:	e4 04 18 00 	cp.b	r4,r2
						else if(w.wp[pattern].cv_probs[edit_cv_ch][i1] > 0) monomeLedBuffer[48+i1] = 7;
80003d50:	c0 51       	brne	80003d5a <refresh+0x4ce>
			// MAP
			else {
				if(!scale_select) {
					for(i1=0;i1<SIZE;i1++) {
						// probs
						if(w.wp[pattern].cv_probs[edit_cv_ch][i1] == 255) monomeLedBuffer[48+i1] = 11;
80003d52:	30 b4       	mov	r4,11
80003d54:	f5 64 ff d0 	st.b	r10[-48],r4
80003d58:	c0 58       	rjmp	80003d62 <refresh+0x4d6>
80003d5a:	58 04       	cp.w	r4,0
80003d5c:	c0 30       	breq	80003d62 <refresh+0x4d6>
80003d5e:	f5 67 ff d0 	st.b	r10[-48],r7
						else if(w.wp[pattern].cv_probs[edit_cv_ch][i1] > 0) monomeLedBuffer[48+i1] = 7;
80003d62:	30 44       	mov	r4,4
80003d64:	f5 64 ff e0 	st.b	r10[-32],r4
80003d68:	e4 01 18 00 	cp.b	r1,r2

						// clear edit select line
						monomeLedBuffer[64+i1] = 4;
80003d6c:	c1 70       	breq	80003d9a <refresh+0x50e>
80003d6e:	40 10       	lddsp	r0,sp[0x4]

						// show current edit value, selected
						if(edit_cv_value != -1) {
80003d70:	e0 64 0b 0c 	mov	r4,2828
80003d74:	e8 00 04 14 	ld.sh	r4,r4[r0<<0x1]
							if((w.wp[pattern].cv_values[edit_cv_value] >> 8) >= i1)
80003d78:	e1 d4 c1 08 	bfextu	r0,r4,0x8,0x8
80003d7c:	f6 00 19 00 	cp.h	r0,r11
80003d80:	c0 33       	brcs	80003d86 <refresh+0x4fa>
80003d82:	bc 87       	st.b	lr[0x0],r7
80003d84:	c0 38       	rjmp	80003d8a <refresh+0x4fe>
80003d86:	30 00       	mov	r0,0
								monomeLedBuffer[80+i1] = 7;
80003d88:	bc 80       	st.b	lr[0x0],r0
80003d8a:	e9 d4 c0 84 	bfextu	r4,r4,0x4,0x4
							else
								monomeLedBuffer[80+i1] = 0;
80003d8e:	16 34       	cp.w	r4,r11

							if(((w.wp[pattern].cv_values[edit_cv_value] >> 4) & 0xf) >= i1)
80003d90:	c0 35       	brlt	80003d96 <refresh+0x50a>
80003d92:	30 44       	mov	r4,4
80003d94:	c0 58       	rjmp	80003d9e <refresh+0x512>
80003d96:	30 04       	mov	r4,0
								monomeLedBuffer[96+i1] = 4;
80003d98:	c0 38       	rjmp	80003d9e <refresh+0x512>
80003d9a:	30 04       	mov	r4,0
							else
								monomeLedBuffer[96+i1] = 0;
80003d9c:	bc 84       	st.b	lr[0x0],r4
80003d9e:	b4 84       	st.b	r10[0x0],r4
						}
						else {
							monomeLedBuffer[80+i1] = 0;
80003da0:	40 20       	lddsp	r0,sp[0x8]
80003da2:	e0 64 0b 0c 	mov	r4,2828
							monomeLedBuffer[96+i1] = 0;
						}

						// show steps
						if(w.wp[pattern].cv_steps[edit_cv_ch][edit_cv_step] & (1<<i1)) monomeLedBuffer[112+i1] = 7;
80003da6:	2f fa       	sub	r10,-1
80003da8:	e8 00 05 14 	ld.uh	r4,r4[r0<<0x1]
80003dac:	2f fe       	sub	lr,-1
80003dae:	e8 0b 08 44 	asr	r4,r4,r11
80003db2:	2f f5       	sub	r5,-1
80003db4:	e9 d4 c0 01 	bfextu	r4,r4,0x0,0x1
80003db8:	2f fb       	sub	r11,-1
80003dba:	08 90       	mov	r0,r4
						else monomeLedBuffer[112+i1] = 0;
80003dbc:	58 04       	cp.w	r4,0
							monomeLedBuffer[80+i1] = 0;
							monomeLedBuffer[96+i1] = 0;
						}

						// show steps
						if(w.wp[pattern].cv_steps[edit_cv_ch][edit_cv_step] & (1<<i1)) monomeLedBuffer[112+i1] = 7;
80003dbe:	ee 00 17 10 	movne	r0,r7
80003dc2:	ac 80       	st.b	r6[0x0],r0
80003dc4:	2f f6       	sub	r6,-1
80003dc6:	f0 0b 18 00 	cp.b	r11,r8
				monomeLedBuffer[112+pos] += 4;
			}
			// MAP
			else {
				if(!scale_select) {
					for(i1=0;i1<SIZE;i1++) {
80003dca:	cc 03       	brcs	80003d4a <refresh+0x4be>
80003dcc:	e0 68 1a dc 	mov	r8,6876
						if(w.wp[pattern].cv_steps[edit_cv_ch][edit_cv_step] & (1<<i1)) monomeLedBuffer[112+i1] = 7;
						else monomeLedBuffer[112+i1] = 0;
					}

					// show play position
					monomeLedBuffer[64+pos] = 7;
80003dd0:	30 7a       	mov	r10,7
80003dd2:	f0 09 00 09 	add	r9,r8,r9
80003dd6:	f3 6a 00 40 	st.b	r9[64],r10
80003dda:	f0 03 00 03 	add	r3,r8,r3
					// show edit position
					monomeLedBuffer[64+edit_cv_step] = 11;
80003dde:	30 b9       	mov	r9,11
80003de0:	e0 6a 1a 58 	mov	r10,6744
80003de4:	e7 69 00 40 	st.b	r3[64],r9
					// show playing note
					monomeLedBuffer[112+cv_chosen[edit_cv_ch]] = 11;
80003de8:	f4 0c 07 0a 	ld.ub	r10,r10[r12]
80003dec:	14 08       	add	r8,r10
80003dee:	c2 48       	rjmp	80003e36 <refresh+0x5aa>
				}
				else {
					for(i1=0;i1<SIZE;i1++) {
						// probs
						if(w.wp[pattern].cv_probs[edit_cv_ch][i1] == 255) monomeLedBuffer[48+i1] = 11;
80003df0:	0d 8a       	ld.ub	r10,r6[0x0]
80003df2:	ee 0a 18 00 	cp.b	r10,r7
80003df6:	c0 31       	brne	80003dfc <refresh+0x570>
80003df8:	a8 8e       	st.b	r4[0x0],lr
80003dfa:	c0 48       	rjmp	80003e02 <refresh+0x576>
						else if(w.wp[pattern].cv_probs[edit_cv_ch][i1] > 0) monomeLedBuffer[48+i1] = 7;
80003dfc:	58 0a       	cp.w	r10,0
80003dfe:	c0 20       	breq	80003e02 <refresh+0x576>
80003e00:	a8 89       	st.b	r4[0x0],r9
					monomeLedBuffer[64+edit_cv_step] = 11;
					// show playing note
					monomeLedBuffer[112+cv_chosen[edit_cv_ch]] = 11;
				}
				else {
					for(i1=0;i1<SIZE;i1++) {
80003e02:	f6 ca ff ff 	sub	r10,r11,-1
						// probs
						if(w.wp[pattern].cv_probs[edit_cv_ch][i1] == 255) monomeLedBuffer[48+i1] = 11;
						else if(w.wp[pattern].cv_probs[edit_cv_ch][i1] > 0) monomeLedBuffer[48+i1] = 7;

						monomeLedBuffer[64+i1] = (i1<8) * 4;						
80003e06:	f6 09 18 00 	cp.b	r9,r11
80003e0a:	f9 bb 02 04 	movhs	r11,4
80003e0e:	f9 bb 03 00 	movlo	r11,0
						monomeLedBuffer[80+i1] = (i1<8) * 4;						
						monomeLedBuffer[96+i1] = (i1<8) * 4;						
						monomeLedBuffer[112+i1] = 0;
80003e12:	e9 6c 00 40 	st.b	r4[64],r12
						if(w.wp[pattern].cv_probs[edit_cv_ch][i1] == 255) monomeLedBuffer[48+i1] = 11;
						else if(w.wp[pattern].cv_probs[edit_cv_ch][i1] > 0) monomeLedBuffer[48+i1] = 7;

						monomeLedBuffer[64+i1] = (i1<8) * 4;						
						monomeLedBuffer[80+i1] = (i1<8) * 4;						
						monomeLedBuffer[96+i1] = (i1<8) * 4;						
80003e16:	e9 6b 00 30 	st.b	r4[48],r11
					for(i1=0;i1<SIZE;i1++) {
						// probs
						if(w.wp[pattern].cv_probs[edit_cv_ch][i1] == 255) monomeLedBuffer[48+i1] = 11;
						else if(w.wp[pattern].cv_probs[edit_cv_ch][i1] > 0) monomeLedBuffer[48+i1] = 7;

						monomeLedBuffer[64+i1] = (i1<8) * 4;						
80003e1a:	e9 6b 00 10 	st.b	r4[16],r11
						monomeLedBuffer[80+i1] = (i1<8) * 4;						
80003e1e:	e9 6b 00 20 	st.b	r4[32],r11
					monomeLedBuffer[64+edit_cv_step] = 11;
					// show playing note
					monomeLedBuffer[112+cv_chosen[edit_cv_ch]] = 11;
				}
				else {
					for(i1=0;i1<SIZE;i1++) {
80003e22:	2f f6       	sub	r6,-1
80003e24:	f7 da c0 08 	bfextu	r11,r10,0x0,0x8
80003e28:	2f f4       	sub	r4,-1
80003e2a:	f0 0b 18 00 	cp.b	r11,r8
80003e2e:	ce 11       	brne	80003df0 <refresh+0x564>
						monomeLedBuffer[80+i1] = (i1<8) * 4;						
						monomeLedBuffer[96+i1] = (i1<8) * 4;						
						monomeLedBuffer[112+i1] = 0;
					}

					monomeLedBuffer[112] = 7;
80003e30:	30 79       	mov	r9,7
80003e32:	e0 68 1a dc 	mov	r8,6876
80003e36:	f1 69 00 70 	st.b	r8[112],r9
80003e3a:	cb 48       	rjmp	80003fa2 <refresh+0x716>
80003e3c:	f4 0b 18 00 	cp.b	r11,r10
80003e40:	e0 81 00 b1 	brne	80003fa2 <refresh+0x716>
80003e44:	e0 69 1a 77 	mov	r9,6775
80003e48:	13 89       	ld.ub	r9,r9[0x0]
80003e4a:	a5 69       	lsl	r9,0x4
80003e4c:	e0 6a 00 ec 	mov	r10,236
80003e50:	b5 37       	mul	r7,r10
80003e52:	f2 07 00 07 	add	r7,r9,r7
				}

			}
		}
		else if(edit_prob == 1) {
80003e56:	e0 69 0b 0c 	mov	r9,2828
80003e5a:	e0 6c 1a dc 	mov	r12,6876
80003e5e:	ee c7 ff 34 	sub	r7,r7,-204
80003e62:	18 93       	mov	r3,r12
80003e64:	12 07       	add	r7,r9
80003e66:	30 0b       	mov	r11,0
80003e68:	f8 c9 ff d0 	sub	r9,r12,-48
80003e6c:	30 4a       	mov	r10,4
80003e6e:	29 0c       	sub	r12,-112
80003e70:	3f f4       	mov	r4,-1
80003e72:	30 76       	mov	r6,7
					monomeLedBuffer[48+i1] = 0;
					monomeLedBuffer[112+i1] = 7;
				}
				else if(w.wp[pattern].cv_probs[edit_cv_ch][i1]) {
					monomeLedBuffer[48+i1] = 4;
					monomeLedBuffer[64+16*(3-(w.wp[pattern].cv_probs[edit_cv_ch][i1]>>6))+i1] = 7;
80003e74:	30 b5       	mov	r5,11
					monomeLedBuffer[112] = 7;
				}

			}
		}
		else if(edit_prob == 1) {
80003e76:	c1 f8       	rjmp	80003eb4 <refresh+0x628>
80003e78:	f3 6a 00 10 	st.b	r9[16],r10
80003e7c:	f3 6a 00 20 	st.b	r9[32],r10
80003e80:	f3 6a 00 30 	st.b	r9[48],r10
					monomeLedBuffer[48+i1] = 0;
					monomeLedBuffer[112+i1] = 7;
				}
				else if(w.wp[pattern].cv_probs[edit_cv_ch][i1]) {
					monomeLedBuffer[48+i1] = 4;
					monomeLedBuffer[64+16*(3-(w.wp[pattern].cv_probs[edit_cv_ch][i1]>>6))+i1] = 7;
80003e84:	b8 8a       	st.b	r12[0x0],r10
				monomeLedBuffer[80+i1] = 4;
				monomeLedBuffer[96+i1] = 4;
				monomeLedBuffer[112+i1] = 4;

				if(w.wp[pattern].cv_probs[edit_cv_ch][i1] == 255)
					monomeLedBuffer[48+i1] = 11;
80003e86:	0f 8e       	ld.ub	lr,r7[0x0]
80003e88:	e8 0e 18 00 	cp.b	lr,r4

			}
		}
		else if(edit_prob == 1) {
			for(i1=0;i1<SIZE;i1++) {
				monomeLedBuffer[64+i1] = 4;
80003e8c:	c0 31       	brne	80003e92 <refresh+0x606>
				monomeLedBuffer[80+i1] = 4;
80003e8e:	b2 85       	st.b	r9[0x0],r5
80003e90:	c0 e8       	rjmp	80003eac <refresh+0x620>
				monomeLedBuffer[96+i1] = 4;
80003e92:	58 0e       	cp.w	lr,0
80003e94:	c0 41       	brne	80003e9c <refresh+0x610>
				monomeLedBuffer[112+i1] = 4;
80003e96:	b2 8e       	st.b	r9[0x0],lr

				if(w.wp[pattern].cv_probs[edit_cv_ch][i1] == 255)
80003e98:	b8 86       	st.b	r12[0x0],r6
80003e9a:	c0 98       	rjmp	80003eac <refresh+0x620>
80003e9c:	b2 8a       	st.b	r9[0x0],r10
80003e9e:	a7 8e       	lsr	lr,0x6
					monomeLedBuffer[48+i1] = 11;
80003ea0:	fc 0e 11 07 	rsub	lr,lr,7
				else if(w.wp[pattern].cv_probs[edit_cv_ch][i1] == 0) {
80003ea4:	a5 6e       	lsl	lr,0x4
80003ea6:	16 0e       	add	lr,r11
					monomeLedBuffer[48+i1] = 0;
80003ea8:	e6 0e 0b 06 	st.b	r3[lr],r6
					monomeLedBuffer[112+i1] = 7;
80003eac:	2f fb       	sub	r11,-1
				}
				else if(w.wp[pattern].cv_probs[edit_cv_ch][i1]) {
					monomeLedBuffer[48+i1] = 4;
80003eae:	2f f9       	sub	r9,-1
					monomeLedBuffer[64+16*(3-(w.wp[pattern].cv_probs[edit_cv_ch][i1]>>6))+i1] = 7;
80003eb0:	2f fc       	sub	r12,-1
80003eb2:	2f f7       	sub	r7,-1
80003eb4:	f0 0b 18 00 	cp.b	r11,r8
80003eb8:	ce 03       	brcs	80003e78 <refresh+0x5ec>
80003eba:	c7 48       	rjmp	80003fa2 <refresh+0x716>
80003ebc:	58 2a       	cp.w	r10,2
80003ebe:	c7 21       	brne	80003fa2 <refresh+0x716>
80003ec0:	34 07       	mov	r7,64
80003ec2:	ee 08 0c 06 	divs	r6,r7,r8
				}

			}
		}
		else if(edit_prob == 1) {
			for(i1=0;i1<SIZE;i1++) {
80003ec6:	e0 6b 0b 0c 	mov	r11,2828
80003eca:	e0 69 1a 83 	mov	r9,6787
		}

	}

	// series
	else if(edit_mode == mSeries) {
80003ece:	50 26       	stdsp	sp[0x8],r6
80003ed0:	13 89       	ld.ub	r9,r9[0x0]
				if(i1+scroll_pos == w.series_start || i1+scroll_pos == w.series_end) monomeLedBuffer[32+i1*16+i2] = 4;
				else monomeLedBuffer[32+i1*16+i2] = 0;
			}

			// scroll position helper
			monomeLedBuffer[32+i1*16+((scroll_pos+i1)/(64/SIZE))] = 4;
80003ed2:	f7 30 0f 40 	ld.ub	r0,r11[3904]
80003ed6:	f2 c6 f8 a0 	sub	r6,r9,-1888
	// series
	else if(edit_mode == mSeries) {
		for(i1 = 0;i1<6;i1++) {
			for(i2=0;i2<SIZE;i2++) {
				// start/end bars, clear
				if(i1+scroll_pos == w.series_start || i1+scroll_pos == w.series_end) monomeLedBuffer[32+i1*16+i2] = 4;
80003eda:	f6 06 00 16 	add	r6,r11,r6<<0x1
80003ede:	f7 3b 0f 41 	ld.ub	r11,r11[3905]
80003ee2:	2e 04       	sub	r4,-32
				else monomeLedBuffer[32+i1*16+i2] = 0;
			}

			// scroll position helper
			monomeLedBuffer[32+i1*16+((scroll_pos+i1)/(64/SIZE))] = 4;
80003ee4:	e0 65 1a dc 	mov	r5,6876
80003ee8:	50 1b       	stdsp	sp[0x4],r11
80003eea:	0a 04       	add	r4,r5
	// series
	else if(edit_mode == mSeries) {
		for(i1 = 0;i1<6;i1++) {
			for(i2=0;i2<SIZE;i2++) {
				// start/end bars, clear
				if(i1+scroll_pos == w.series_start || i1+scroll_pos == w.series_end) monomeLedBuffer[32+i1*16+i2] = 4;
80003eec:	30 0a       	mov	r10,0
80003eee:	32 0b       	mov	r11,32
				else monomeLedBuffer[32+i1*16+i2] = 0;
			}

			// scroll position helper
			monomeLedBuffer[32+i1*16+((scroll_pos+i1)/(64/SIZE))] = 4;
80003ef0:	30 47       	mov	r7,4
80003ef2:	c3 78       	rjmp	80003f60 <refresh+0x6d4>
	// series
	else if(edit_mode == mSeries) {
		for(i1 = 0;i1<6;i1++) {
			for(i2=0;i2<SIZE;i2++) {
				// start/end bars, clear
				if(i1+scroll_pos == w.series_start || i1+scroll_pos == w.series_end) monomeLedBuffer[32+i1*16+i2] = 4;
80003ef4:	00 3c       	cp.w	r12,r0
				else monomeLedBuffer[32+i1*16+i2] = 0;
			}

			// scroll position helper
			monomeLedBuffer[32+i1*16+((scroll_pos+i1)/(64/SIZE))] = 4;
80003ef6:	c0 40       	breq	80003efe <refresh+0x672>
80003ef8:	40 19       	lddsp	r9,sp[0x4]
80003efa:	12 3c       	cp.w	r12,r9
	// series
	else if(edit_mode == mSeries) {
		for(i1 = 0;i1<6;i1++) {
			for(i2=0;i2<SIZE;i2++) {
				// start/end bars, clear
				if(i1+scroll_pos == w.series_start || i1+scroll_pos == w.series_end) monomeLedBuffer[32+i1*16+i2] = 4;
80003efc:	c0 31       	brne	80003f02 <refresh+0x676>
80003efe:	a6 87       	st.b	r3[0x0],r7
80003f00:	c0 38       	rjmp	80003f06 <refresh+0x67a>
80003f02:	30 09       	mov	r9,0
80003f04:	a4 89       	st.b	r2[0x0],r9
80003f06:	2f f1       	sub	r1,-1
80003f08:	2f f3       	sub	r3,-1
80003f0a:	5c 51       	castu.b	r1
80003f0c:	2f f2       	sub	r2,-1
				else monomeLedBuffer[32+i1*16+i2] = 0;
80003f0e:	f0 01 18 00 	cp.b	r1,r8
	}

	// series
	else if(edit_mode == mSeries) {
		for(i1 = 0;i1<6;i1++) {
			for(i2=0;i2<SIZE;i2++) {
80003f12:	cf 13       	brcs	80003ef4 <refresh+0x668>
80003f14:	40 21       	lddsp	r1,sp[0x8]
80003f16:	f8 01 0c 02 	divs	r2,r12,r1
80003f1a:	ea 0b 00 01 	add	r1,r5,r11
80003f1e:	e2 02 0b 07 	st.b	r1[r2],r7
				if(i1+scroll_pos == w.series_start || i1+scroll_pos == w.series_end) monomeLedBuffer[32+i1*16+i2] = 4;
				else monomeLedBuffer[32+i1*16+i2] = 0;
			}

			// scroll position helper
			monomeLedBuffer[32+i1*16+((scroll_pos+i1)/(64/SIZE))] = 4;
80003f22:	40 39       	lddsp	r9,sp[0xc]
80003f24:	00 3c       	cp.w	r12,r0
80003f26:	e0 8a 00 08 	brle	80003f36 <refresh+0x6aa>
80003f2a:	40 13       	lddsp	r3,sp[0x4]
80003f2c:	06 3c       	cp.w	r12,r3
80003f2e:	c0 44       	brge	80003f36 <refresh+0x6aa>
			
			// sidebar selection indicators
			if(i1+scroll_pos > w.series_start && i1+scroll_pos < w.series_end) {
80003f30:	ea 0b 0b 07 	st.b	r5[r11],r7
80003f34:	a8 87       	st.b	r4[0x0],r7
80003f36:	30 0c       	mov	r12,0
80003f38:	c0 b8       	rjmp	80003f4e <refresh+0x6c2>
80003f3a:	8c 83       	ld.uh	r3,r6[0x0]
				monomeLedBuffer[32+i1*16] = 4;
80003f3c:	e6 0c 08 43 	asr	r3,r3,r12
				monomeLedBuffer[32+i1*16+LENGTH] = 4;
80003f40:	e7 d3 c0 01 	bfextu	r3,r3,0x0,0x1
80003f44:	c0 30       	breq	80003f4a <refresh+0x6be>
			}

			for(i2=0;i2<SIZE;i2++) {
				// show possible states
				if((w.series_list[i1+scroll_pos] >> i2) & 1)
80003f46:	30 72       	mov	r2,7
80003f48:	bc 82       	st.b	lr[0x0],r2
80003f4a:	2f fc       	sub	r12,-1
80003f4c:	2f fe       	sub	lr,-1
80003f4e:	f0 0c 18 00 	cp.b	r12,r8
					monomeLedBuffer[32+(i1*16)+i2] = 7;
80003f52:	cf 43       	brcs	80003f3a <refresh+0x6ae>
80003f54:	2f fa       	sub	r10,-1
80003f56:	2f 0b       	sub	r11,-16
80003f58:	2f e6       	sub	r6,-2
			if(i1+scroll_pos > w.series_start && i1+scroll_pos < w.series_end) {
				monomeLedBuffer[32+i1*16] = 4;
				monomeLedBuffer[32+i1*16+LENGTH] = 4;
			}

			for(i2=0;i2<SIZE;i2++) {
80003f5a:	2f 04       	sub	r4,-16
80003f5c:	58 6a       	cp.w	r10,6
80003f5e:	c0 b0       	breq	80003f74 <refresh+0x6e8>
80003f60:	f6 05 00 0e 	add	lr,r11,r5
80003f64:	30 01       	mov	r1,0
80003f66:	1c 92       	mov	r2,lr

	}

	// series
	else if(edit_mode == mSeries) {
		for(i1 = 0;i1<6;i1++) {
80003f68:	1c 93       	mov	r3,lr
80003f6a:	f4 09 00 0c 	add	r12,r10,r9
80003f6e:	50 39       	stdsp	sp[0xc],r9
80003f70:	cc fb       	rjmp	80003f0e <refresh+0x682>
80003f72:	d7 03       	nop
80003f74:	e0 68 0b 05 	mov	r8,2821
80003f78:	11 88       	ld.ub	r8,r8[0x0]
80003f7a:	f2 08 18 00 	cp.b	r8,r9
80003f7e:	c1 23       	brcs	80003fa2 <refresh+0x716>
80003f80:	f2 ca ff fb 	sub	r10,r9,-5
80003f84:	10 3a       	cp.w	r10,r8
80003f86:	c0 e5       	brlt	80003fa2 <refresh+0x716>
80003f88:	2f e8       	sub	r8,-2
80003f8a:	f0 09 01 09 	sub	r9,r8,r9
80003f8e:	e0 68 1a 90 	mov	r8,6800
			}

		}

		// highlight playhead
		if(series_pos >= scroll_pos && series_pos < scroll_pos+6) {
80003f92:	11 8a       	ld.ub	r10,r8[0x0]
80003f94:	a5 69       	lsl	r9,0x4
80003f96:	e0 68 1a dc 	mov	r8,6876
80003f9a:	14 09       	add	r9,r10
80003f9c:	30 ba       	mov	r10,11
80003f9e:	f0 09 0b 0a 	st.b	r8[r9],r10
			monomeLedBuffer[32+(series_pos-scroll_pos)*16+series_playing] = 11;
80003fa2:	30 0c       	mov	r12,0
80003fa4:	e0 a0 09 08 	rcall	800051b4 <monome_set_quadrant_flag>
80003fa8:	30 1c       	mov	r12,1
80003faa:	e0 a0 09 05 	rcall	800051b4 <monome_set_quadrant_flag>
80003fae:	2f ad       	sub	sp,-24
80003fb0:	d8 32       	popm	r0-r7,pc
80003fb2:	d7 03       	nop

80003fb4 <handler_MonomeConnect>:
80003fb4:	d4 01       	pushm	lr
80003fb6:	e0 69 1a 91 	mov	r9,6801
		}
	}

	monome_set_quadrant_flag(0);
80003fba:	30 08       	mov	r8,0
80003fbc:	b2 88       	st.b	r9[0x0],r8
	monome_set_quadrant_flag(1);
80003fbe:	e0 69 1a 69 	mov	r9,6761
80003fc2:	b2 88       	st.b	r9[0x0],r8
}
80003fc4:	e0 a0 09 02 	rcall	800051c8 <monome_size_x>
80003fc8:	e0 68 0a f4 	mov	r8,2804
80003fcc:	f8 c9 00 01 	sub	r9,r12,1
80003fd0:	b0 8c       	st.b	r8[0x0],r12
80003fd2:	e0 68 0b 07 	mov	r8,2823
80003fd6:	b0 89       	st.b	r8[0x0],r9
	key_count = 0;
	SIZE = monome_size_x();
	LENGTH = SIZE - 1;
	// print_dbg("\r monome size: ");
	// print_dbg_ulong(SIZE);
	VARI = monome_is_vari();
80003fd8:	e0 a0 08 fc 	rcall	800051d0 <monome_is_vari>
	// print_dbg("\r monome vari: ");
	// print_dbg_ulong(VARI);

	if(VARI) re = &refresh;
80003fdc:	e0 68 1a 51 	mov	r8,6737
80003fe0:	b0 8c       	st.b	r8[0x0],r12
	else re = &refresh_mono;

	for(i1=0;i1<16;i1++)
		if(w.wp[i1].loop_end > LENGTH)
80003fe2:	e0 68 0b 00 	mov	r8,2816
	timers_unset_monome();
	// event_t e = { .type = kEventMonomeDisconnect };
	// event_post(&e);
}

static void handler_MonomeConnect(s32 data) {
80003fe6:	58 0c       	cp.w	r12,0
80003fe8:	c0 d0       	breq	80004002 <handler_MonomeConnect+0x4e>

	if(VARI) re = &refresh;
	else re = &refresh_mono;

	for(i1=0;i1<16;i1++)
		if(w.wp[i1].loop_end > LENGTH)
80003fea:	fe c9 07 5e 	sub	r9,pc,1886
80003fee:	91 09       	st.w	r8[0x0],r9
	VARI = monome_is_vari();
	// print_dbg("\r monome vari: ");
	// print_dbg_ulong(VARI);

	if(VARI) re = &refresh;
	else re = &refresh_mono;
80003ff0:	e0 68 0b 0c 	mov	r8,2828

	for(i1=0;i1<16;i1++)
		if(w.wp[i1].loop_end > LENGTH)
80003ff4:	e0 69 0b 07 	mov	r9,2823
80003ff8:	f0 ca f1 3f 	sub	r10,r8,-3777
80003ffc:	13 89       	ld.ub	r9,r9[0x0]
			w.wp[i1].loop_end = LENGTH;
80003ffe:	2f f8       	sub	r8,-1
80004000:	c0 48       	rjmp	80004008 <handler_MonomeConnect+0x54>
80004002:	fe c9 0c a2 	sub	r9,pc,3234
	// print_dbg_ulong(VARI);

	if(VARI) re = &refresh;
	else re = &refresh_mono;

	for(i1=0;i1<16;i1++)
80004006:	cf 4b       	rjmp	80003fee <handler_MonomeConnect+0x3a>
			w.wp[i1].loop_end = LENGTH;
	

	// monome_set_quadrant_flag(0);
	// monome_set_quadrant_flag(1);
	timers_set_monome();
80004008:	11 8b       	ld.ub	r11,r8[0x0]
8000400a:	f2 0b 18 00 	cp.b	r11,r9
}
8000400e:	e0 88 00 03 	brls	80004014 <handler_MonomeConnect+0x60>
80004012:	b0 89       	st.b	r8[0x0],r9
80004014:	f0 c8 ff 14 	sub	r8,r8,-236
80004018:	14 38       	cp.w	r8,r10
8000401a:	cf 71       	brne	80004008 <handler_MonomeConnect+0x54>
8000401c:	fe b0 f1 6c 	rcall	800022f4 <timers_set_monome>
80004020:	d8 02       	popm	pc
80004022:	d7 03       	nop

80004024 <handler_FtdiConnect>:
80004024:	d4 01       	pushm	lr
80004026:	e0 a0 0d d3 	rcall	80005bcc <ftdi_setup>
8000402a:	d8 02       	popm	pc

8000402c <handler_KeyTimer>:
8000402c:	d4 31       	pushm	r0-r7,lr
8000402e:	20 cd       	sub	sp,48
80004030:	e0 67 1a 5e 	mov	r7,6750
80004034:	0f 88       	ld.ub	r8,r7[0x0]
80004036:	58 08       	cp.w	r8,0
80004038:	c1 60       	breq	80004064 <handler_KeyTimer+0x38>
8000403a:	30 19       	mov	r9,1
8000403c:	f2 08 18 00 	cp.b	r8,r9
	static u16 i1,x,n1;

	if(front_timer) {
		if(front_timer == 1) {
			static event_t e;
			e.type = kEventSaveFlash;
80004040:	c1 01       	brne	80004060 <handler_KeyTimer+0x34>
80004042:	e0 68 05 dc 	mov	r8,1500
80004046:	30 59       	mov	r9,5
			event_post(&e);
80004048:	10 9c       	mov	r12,r8
8000404a:	91 09       	st.w	r8[0x0],r9

			preset_mode = 0;
			front_timer--;
8000404c:	e0 a0 07 26 	rcall	80004e98 <event_post>
		if(front_timer == 1) {
			static event_t e;
			e.type = kEventSaveFlash;
			event_post(&e);

			preset_mode = 0;
80004050:	0f 88       	ld.ub	r8,r7[0x0]
			front_timer--;
80004052:	20 18       	sub	r8,1
		if(front_timer == 1) {
			static event_t e;
			e.type = kEventSaveFlash;
			event_post(&e);

			preset_mode = 0;
80004054:	30 09       	mov	r9,0
80004056:	ae 88       	st.b	r7[0x0],r8
80004058:	e0 68 1a 50 	mov	r8,6736
			front_timer--;
		}
		else front_timer--;
8000405c:	b0 89       	st.b	r8[0x0],r9
	}

	for(i1=0;i1<key_count;i1++) {
8000405e:	c0 38       	rjmp	80004064 <handler_KeyTimer+0x38>
80004060:	20 18       	sub	r8,1
80004062:	ae 88       	st.b	r7[0x0],r8
80004064:	e0 68 05 9c 	mov	r8,1436
		if(--key_times[held_keys[i1]]==0) {
			if(edit_mode != mSeries && preset_mode == 0) {
				// preset copy
				if(held_keys[i1] / 16 == 2) {
					x = held_keys[i1] % 16;
					for(n1=0;n1<16;n1++) {
80004068:	30 09       	mov	r9,0
						w.wp[x].steps[n1] = w.wp[pattern].steps[n1];
8000406a:	e0 67 0b 0c 	mov	r7,2828
8000406e:	10 94       	mov	r4,r8
			front_timer--;
		}
		else front_timer--;
	}

	for(i1=0;i1<key_count;i1++) {
80004070:	b0 09       	st.h	r8[0x0],r9
		if(key_times[held_keys[i1]])
80004072:	30 f3       	mov	r3,15
80004074:	e0 65 00 ec 	mov	r5,236
80004078:	0e 96       	mov	r6,r7
8000407a:	ce 08       	rjmp	8000423a <handler_KeyTimer+0x20e>
8000407c:	5c 78       	castu.h	r8
8000407e:	e0 6b 09 d4 	mov	r11,2516
80004082:	f6 08 07 0e 	ld.ub	lr,r11[r8]
		if(--key_times[held_keys[i1]]==0) {
80004086:	e0 68 09 f4 	mov	r8,2548
8000408a:	f0 0e 07 0a 	ld.ub	r10,r8[lr]
8000408e:	58 0a       	cp.w	r10,0
80004090:	e0 80 00 d2 	breq	80004234 <handler_KeyTimer+0x208>
			if(edit_mode != mSeries && preset_mode == 0) {
80004094:	20 1a       	sub	r10,1
80004096:	5c 5a       	castu.b	r10
80004098:	f0 0e 0b 0a 	st.b	r8[lr],r10
8000409c:	e0 81 00 cc 	brne	80004234 <handler_KeyTimer+0x208>
800040a0:	e0 68 1a 88 	mov	r8,6792
800040a4:	70 08       	ld.w	r8,r8[0x0]
800040a6:	58 28       	cp.w	r8,2
				// preset copy
				if(held_keys[i1] / 16 == 2) {
800040a8:	e0 80 00 b0 	breq	80004208 <handler_KeyTimer+0x1dc>
800040ac:	e0 68 1a 50 	mov	r8,6736
800040b0:	11 89       	ld.ub	r9,r8[0x0]
800040b2:	f4 09 18 00 	cp.b	r9,r10
					x = held_keys[i1] % 16;
800040b6:	e0 81 00 a9 	brne	80004208 <handler_KeyTimer+0x1dc>
800040ba:	fc c9 00 20 	sub	r9,lr,32
800040be:	30 f8       	mov	r8,15
					for(n1=0;n1<16;n1++) {
						w.wp[x].steps[n1] = w.wp[pattern].steps[n1];
800040c0:	f0 09 18 00 	cp.b	r9,r8
800040c4:	e0 8b 00 b8 	brhi	80004234 <handler_KeyTimer+0x208>
		if(key_times[held_keys[i1]])
		if(--key_times[held_keys[i1]]==0) {
			if(edit_mode != mSeries && preset_mode == 0) {
				// preset copy
				if(held_keys[i1] / 16 == 2) {
					x = held_keys[i1] % 16;
800040c8:	fd de c0 04 	bfextu	lr,lr,0x0,0x4
					for(n1=0;n1<16;n1++) {
						w.wp[x].steps[n1] = w.wp[pattern].steps[n1];
800040cc:	e0 68 05 d8 	mov	r8,1496
						w.wp[x].step_probs[n1] = w.wp[pattern].step_probs[n1];
						w.wp[x].cv_values[n1] = w.wp[pattern].cv_values[n1];
800040d0:	f3 de c0 10 	bfextu	r9,lr,0x0,0x10
800040d4:	f2 05 02 4b 	mul	r11,r9,r5
			if(edit_mode != mSeries && preset_mode == 0) {
				// preset copy
				if(held_keys[i1] / 16 == 2) {
					x = held_keys[i1] % 16;
					for(n1=0;n1<16;n1++) {
						w.wp[x].steps[n1] = w.wp[pattern].steps[n1];
800040d8:	ee 0b 00 0b 	add	r11,r7,r11
800040dc:	b0 0e       	st.h	r8[0x0],lr
800040de:	50 9b       	stdsp	sp[0x24],r11
800040e0:	e0 68 1a 5b 	mov	r8,6747
		if(--key_times[held_keys[i1]]==0) {
			if(edit_mode != mSeries && preset_mode == 0) {
				// preset copy
				if(held_keys[i1] / 16 == 2) {
					x = held_keys[i1] % 16;
					for(n1=0;n1<16;n1++) {
800040e4:	f2 01 10 76 	mul	r1,r9,118
800040e8:	11 88       	ld.ub	r8,r8[0x0]
800040ea:	50 b1       	stdsp	sp[0x2c],r1
800040ec:	f0 05 02 4b 	mul	r11,r8,r5
800040f0:	50 09       	stdsp	sp[0x0],r9
800040f2:	ee 0b 00 0b 	add	r11,r7,r11
800040f6:	50 ab       	stdsp	sp[0x28],r11
800040f8:	c2 f8       	rjmp	80004156 <handler_KeyTimer+0x12a>
800040fa:	d7 03       	nop
800040fc:	f7 30 00 0c 	ld.ub	r0,r11[12]
80004100:	f9 60 00 0c 	st.b	r12[12],r0
80004104:	f7 30 00 1c 	ld.ub	r0,r11[28]
80004108:	f9 60 00 1c 	st.b	r12[28],r0
8000410c:	40 10       	lddsp	r0,sp[0x4]
8000410e:	ee 01 04 11 	ld.sh	r1,r7[r1<<0x1]
						w.wp[x].steps[n1] = w.wp[pattern].steps[n1];
80004112:	ee 00 0a 11 	st.h	r7[r0<<0x1],r1
80004116:	40 30       	lddsp	r0,sp[0xc]
						w.wp[x].step_probs[n1] = w.wp[pattern].step_probs[n1];
80004118:	ee 00 04 11 	ld.sh	r1,r7[r0<<0x1]
8000411c:	40 20       	lddsp	r0,sp[0x8]
8000411e:	ee 00 0a 11 	st.h	r7[r0<<0x1],r1
						w.wp[x].cv_values[n1] = w.wp[pattern].cv_values[n1];
80004122:	40 50       	lddsp	r0,sp[0x14]
80004124:	ee 00 04 11 	ld.sh	r1,r7[r0<<0x1]
80004128:	40 40       	lddsp	r0,sp[0x10]
						w.wp[x].cv_steps[0][n1] = w.wp[pattern].cv_steps[0][n1];
8000412a:	ee 00 0a 11 	st.h	r7[r0<<0x1],r1
8000412e:	f7 31 00 cc 	ld.ub	r1,r11[204]
80004132:	f9 61 00 cc 	st.b	r12[204],r1
						w.wp[x].cv_curves[0][n1] = w.wp[pattern].cv_curves[0][n1];
80004136:	40 70       	lddsp	r0,sp[0x1c]
80004138:	ee 00 04 11 	ld.sh	r1,r7[r0<<0x1]
8000413c:	40 60       	lddsp	r0,sp[0x18]
8000413e:	ee 00 0a 11 	st.h	r7[r0<<0x1],r1
						w.wp[x].cv_probs[0][n1] = w.wp[pattern].cv_probs[0][n1];
80004142:	ee 09 04 11 	ld.sh	r1,r7[r9<<0x1]
80004146:	ee 02 0a 11 	st.h	r7[r2<<0x1],r1
						w.wp[x].cv_steps[1][n1] = w.wp[pattern].cv_steps[1][n1];
8000414a:	2f fa       	sub	r10,-1
8000414c:	f7 3b 00 dc 	ld.ub	r11,r11[220]
80004150:	5c 8a       	casts.h	r10
80004152:	f9 6b 00 dc 	st.b	r12[220],r11
						w.wp[x].cv_curves[1][n1] = w.wp[pattern].cv_curves[1][n1];
80004156:	e3 da c0 10 	bfextu	r1,r10,0x0,0x10
8000415a:	40 b2       	lddsp	r2,sp[0x2c]
8000415c:	02 02       	add	r2,r1
						w.wp[x].cv_probs[1][n1] = w.wp[pattern].cv_probs[1][n1];
8000415e:	e4 c9 ff ea 	sub	r9,r2,-22
80004162:	50 19       	stdsp	sp[0x4],r9
80004164:	e4 c9 ff da 	sub	r9,r2,-38
80004168:	f0 00 10 76 	mul	r0,r8,118
			if(edit_mode != mSeries && preset_mode == 0) {
				// preset copy
				if(held_keys[i1] / 16 == 2) {
					x = held_keys[i1] % 16;
					for(n1=0;n1<16;n1++) {
						w.wp[x].steps[n1] = w.wp[pattern].steps[n1];
8000416c:	50 29       	stdsp	sp[0x8],r9
						w.wp[x].step_probs[n1] = w.wp[pattern].step_probs[n1];
						w.wp[x].cv_values[n1] = w.wp[pattern].cv_values[n1];
8000416e:	02 00       	add	r0,r1
80004170:	e0 c9 ff da 	sub	r9,r0,-38
80004174:	50 39       	stdsp	sp[0xc],r9
80004176:	e4 c9 ff ba 	sub	r9,r2,-70
						w.wp[x].cv_steps[0][n1] = w.wp[pattern].cv_steps[0][n1];
8000417a:	50 49       	stdsp	sp[0x10],r9
				if(held_keys[i1] / 16 == 2) {
					x = held_keys[i1] % 16;
					for(n1=0;n1<16;n1++) {
						w.wp[x].steps[n1] = w.wp[pattern].steps[n1];
						w.wp[x].step_probs[n1] = w.wp[pattern].step_probs[n1];
						w.wp[x].cv_values[n1] = w.wp[pattern].cv_values[n1];
8000417c:	e0 c9 ff ba 	sub	r9,r0,-70
						w.wp[x].cv_steps[0][n1] = w.wp[pattern].cv_steps[0][n1];
80004180:	50 59       	stdsp	sp[0x14],r9
				if(held_keys[i1] / 16 == 2) {
					x = held_keys[i1] % 16;
					for(n1=0;n1<16;n1++) {
						w.wp[x].steps[n1] = w.wp[pattern].steps[n1];
						w.wp[x].step_probs[n1] = w.wp[pattern].step_probs[n1];
						w.wp[x].cv_values[n1] = w.wp[pattern].cv_values[n1];
80004182:	e4 c9 ff ca 	sub	r9,r2,-54
						w.wp[x].cv_steps[0][n1] = w.wp[pattern].cv_steps[0][n1];
80004186:	50 69       	stdsp	sp[0x18],r9
80004188:	e0 c9 ff ca 	sub	r9,r0,-54
						w.wp[x].cv_curves[0][n1] = w.wp[pattern].cv_curves[0][n1];
8000418c:	50 79       	stdsp	sp[0x1c],r9
8000418e:	40 9c       	lddsp	r12,sp[0x24]
80004190:	40 ab       	lddsp	r11,sp[0x28]
80004192:	02 0c       	add	r12,r1
80004194:	02 0b       	add	r11,r1
						w.wp[x].cv_probs[0][n1] = w.wp[pattern].cv_probs[0][n1];
						w.wp[x].cv_steps[1][n1] = w.wp[pattern].cv_steps[1][n1];
80004196:	2a a2       	sub	r2,-86
80004198:	e0 c1 ff ea 	sub	r1,r0,-22
8000419c:	e0 c9 ff aa 	sub	r9,r0,-86
800041a0:	e6 0a 19 00 	cp.h	r10,r3
			if(edit_mode != mSeries && preset_mode == 0) {
				// preset copy
				if(held_keys[i1] / 16 == 2) {
					x = held_keys[i1] % 16;
					for(n1=0;n1<16;n1++) {
						w.wp[x].steps[n1] = w.wp[pattern].steps[n1];
800041a4:	fe 98 ff ac 	brls	800040fc <handler_KeyTimer+0xd0>
800041a8:	40 09       	lddsp	r9,sp[0x0]
						w.wp[x].cv_values[n1] = w.wp[pattern].cv_values[n1];
						w.wp[x].cv_steps[0][n1] = w.wp[pattern].cv_steps[0][n1];
						w.wp[x].cv_curves[0][n1] = w.wp[pattern].cv_curves[0][n1];
						w.wp[x].cv_probs[0][n1] = w.wp[pattern].cv_probs[0][n1];
						w.wp[x].cv_steps[1][n1] = w.wp[pattern].cv_steps[1][n1];
						w.wp[x].cv_curves[1][n1] = w.wp[pattern].cv_curves[1][n1];
800041aa:	f0 0c 15 04 	lsl	r12,r8,0x4
				if(held_keys[i1] / 16 == 2) {
					x = held_keys[i1] % 16;
					for(n1=0;n1<16;n1++) {
						w.wp[x].steps[n1] = w.wp[pattern].steps[n1];
						w.wp[x].step_probs[n1] = w.wp[pattern].step_probs[n1];
						w.wp[x].cv_values[n1] = w.wp[pattern].cv_values[n1];
800041ae:	f2 0b 15 04 	lsl	r11,r9,0x4
						w.wp[x].cv_steps[0][n1] = w.wp[pattern].cv_steps[0][n1];
						w.wp[x].cv_curves[0][n1] = w.wp[pattern].cv_curves[0][n1];
						w.wp[x].cv_probs[0][n1] = w.wp[pattern].cv_probs[0][n1];
						w.wp[x].cv_steps[1][n1] = w.wp[pattern].cv_steps[1][n1];
						w.wp[x].cv_curves[1][n1] = w.wp[pattern].cv_curves[1][n1];
800041b2:	10 1c       	sub	r12,r8
		if(--key_times[held_keys[i1]]==0) {
			if(edit_mode != mSeries && preset_mode == 0) {
				// preset copy
				if(held_keys[i1] / 16 == 2) {
					x = held_keys[i1] % 16;
					for(n1=0;n1<16;n1++) {
800041b4:	12 1b       	sub	r11,r9
800041b6:	a3 6c       	lsl	r12,0x2
800041b8:	a3 6b       	lsl	r11,0x2
800041ba:	10 1c       	sub	r12,r8
800041bc:	12 1b       	sub	r11,r9
						w.wp[x].cv_steps[1][n1] = w.wp[pattern].cv_steps[1][n1];
						w.wp[x].cv_curves[1][n1] = w.wp[pattern].cv_curves[1][n1];
						w.wp[x].cv_probs[1][n1] = w.wp[pattern].cv_probs[1][n1];
					}

					w.wp[x].cv_mode[0] = w.wp[pattern].cv_mode[0];
800041be:	ec 0c 00 2c 	add	r12,r6,r12<<0x2
800041c2:	ec 0b 00 2b 	add	r11,r6,r11<<0x2
800041c6:	19 ec       	ld.ub	r12,r12[0x6]
800041c8:	b6 ec       	st.b	r11[0x6],r12
800041ca:	ab 39       	mul	r9,r5
800041cc:	ab 38       	mul	r8,r5
800041ce:	ec 09 00 09 	add	r9,r6,r9
800041d2:	ec 08 00 08 	add	r8,r6,r8
800041d6:	11 fc       	ld.ub	r12,r8[0x7]
800041d8:	b2 fc       	st.b	r9[0x7],r12
800041da:	e0 6b 07 66 	mov	r11,1894
					w.wp[x].cv_mode[1] = w.wp[pattern].cv_mode[1];
800041de:	17 8c       	ld.ub	r12,r11[0x0]
800041e0:	2f fc       	sub	r12,-1
800041e2:	b6 8c       	st.b	r11[0x0],r12
800041e4:	11 8b       	ld.ub	r11,r8[0x0]
800041e6:	b2 8b       	st.b	r9[0x0],r11
800041e8:	e0 6b 05 a8 	mov	r11,1448
800041ec:	b6 0a       	st.h	r11[0x0],r10
					w.wp[x].loop_len = w.wp[pattern].loop_len;
					w.wp[x].loop_dir = w.wp[pattern].loop_dir;

					pattern = x;
					next_pattern = x;
					monomeFrameDirty++;
800041ee:	11 9a       	ld.ub	r10,r8[0x1]
800041f0:	b2 9a       	st.b	r9[0x1],r10
800041f2:	e0 6a 1a 5b 	mov	r10,6747
					}

					w.wp[x].cv_mode[0] = w.wp[pattern].cv_mode[0];
					w.wp[x].cv_mode[1] = w.wp[pattern].cv_mode[1];

					w.wp[x].loop_start = w.wp[pattern].loop_start;
800041f6:	b4 8e       	st.b	r10[0x0],lr
800041f8:	11 aa       	ld.ub	r10,r8[0x2]
		if(--key_times[held_keys[i1]]==0) {
			if(edit_mode != mSeries && preset_mode == 0) {
				// preset copy
				if(held_keys[i1] / 16 == 2) {
					x = held_keys[i1] % 16;
					for(n1=0;n1<16;n1++) {
800041fa:	b2 aa       	st.b	r9[0x2],r10
800041fc:	11 b8       	ld.ub	r8,r8[0x3]

					w.wp[x].cv_mode[0] = w.wp[pattern].cv_mode[0];
					w.wp[x].cv_mode[1] = w.wp[pattern].cv_mode[1];

					w.wp[x].loop_start = w.wp[pattern].loop_start;
					w.wp[x].loop_end = w.wp[pattern].loop_end;
800041fe:	b2 b8       	st.b	r9[0x3],r8
80004200:	e0 68 1a 84 	mov	r8,6788
					w.wp[x].loop_len = w.wp[pattern].loop_len;
					w.wp[x].loop_dir = w.wp[pattern].loop_dir;

					pattern = x;
80004204:	b0 8e       	st.b	r8[0x0],lr
					w.wp[x].cv_mode[0] = w.wp[pattern].cv_mode[0];
					w.wp[x].cv_mode[1] = w.wp[pattern].cv_mode[1];

					w.wp[x].loop_start = w.wp[pattern].loop_start;
					w.wp[x].loop_end = w.wp[pattern].loop_end;
					w.wp[x].loop_len = w.wp[pattern].loop_len;
80004206:	c1 78       	rjmp	80004234 <handler_KeyTimer+0x208>
80004208:	e0 62 1a 50 	mov	r2,6736
					w.wp[x].loop_dir = w.wp[pattern].loop_dir;
8000420c:	30 18       	mov	r8,1

					pattern = x;
					next_pattern = x;
8000420e:	05 89       	ld.ub	r9,r2[0x0]
80004210:	f0 09 18 00 	cp.b	r9,r8

					// print_dbg("\r\n saved pattern: ");
					// print_dbg_ulong(x);
				}
			}
			else if(preset_mode == 1) {
80004214:	c1 01       	brne	80004234 <handler_KeyTimer+0x208>
80004216:	e3 de c0 04 	bfextu	r1,lr,0x0,0x4
8000421a:	c0 d1       	brne	80004234 <handler_KeyTimer+0x208>
8000421c:	e0 69 0b 04 	mov	r9,2820
				if(held_keys[i1] % 16 == 0) {
80004220:	e0 68 06 0c 	mov	r8,1548
80004224:	a5 8e       	lsr	lr,0x4
					preset_select = held_keys[i1] / 16;
80004226:	b2 8e       	st.b	r9[0x0],lr
					// flash_write();
					static event_t e;
					e.type = kEventSaveFlash;
80004228:	30 59       	mov	r9,5
					// print_dbg_ulong(x);
				}
			}
			else if(preset_mode == 1) {
				if(held_keys[i1] % 16 == 0) {
					preset_select = held_keys[i1] / 16;
8000422a:	10 9c       	mov	r12,r8
8000422c:	91 09       	st.w	r8[0x0],r9
					// flash_write();
					static event_t e;
					e.type = kEventSaveFlash;
8000422e:	e0 a0 06 35 	rcall	80004e98 <event_post>
80004232:	a4 81       	st.b	r2[0x0],r1
					event_post(&e);
80004234:	88 08       	ld.sh	r8,r4[0x0]
80004236:	2f f8       	sub	r8,-1
					preset_mode = 0;
80004238:	a8 08       	st.h	r4[0x0],r8
			front_timer--;
		}
		else front_timer--;
	}

	for(i1=0;i1<key_count;i1++) {
8000423a:	e0 61 1a 69 	mov	r1,6761
8000423e:	88 08       	ld.sh	r8,r4[0x0]
80004240:	03 89       	ld.ub	r9,r1[0x0]
80004242:	f0 09 19 00 	cp.h	r9,r8
80004246:	fe 9b ff 1b 	brhi	8000407c <handler_KeyTimer+0x50>
8000424a:	2f 4d       	sub	sp,-48
8000424c:	d8 32       	popm	r0-r7,pc

			// print_dbg("\rlong press: "); 
			// print_dbg_ulong(held_keys[i1]);
		}
	}
}
8000424e:	d7 03       	nop

80004250 <adcTimer_callback>:
80004250:	d4 01       	pushm	lr
80004252:	30 39       	mov	r9,3
80004254:	e0 68 05 d0 	mov	r8,1488
80004258:	91 09       	st.w	r8[0x0],r9
8000425a:	30 09       	mov	r9,0
8000425c:	10 9c       	mov	r12,r8
8000425e:	91 19       	st.w	r8[0x4],r9
80004260:	e0 a0 06 1c 	rcall	80004e98 <event_post>
80004264:	d8 02       	popm	pc
80004266:	d7 03       	nop

80004268 <keyTimer_callback>:
80004268:	d4 01       	pushm	lr
8000426a:	30 49       	mov	r9,4
8000426c:	e0 68 05 c8 	mov	r8,1480
80004270:	91 09       	st.w	r8[0x0],r9
80004272:	30 09       	mov	r9,0
80004274:	10 9c       	mov	r12,r8
80004276:	91 19       	st.w	r8[0x4],r9

static void keyTimer_callback(void* o) {  
	static event_t e;
	e.type = kEventKeyTimer;
	e.data = 0;
	event_post(&e);
80004278:	e0 a0 06 10 	rcall	80004e98 <event_post>
}
8000427c:	d8 02       	popm	pc
8000427e:	d7 03       	nop

80004280 <monome_refresh_timer_callback>:
80004280:	d4 01       	pushm	lr
80004282:	e0 68 07 66 	mov	r8,1894
	ftdi_read();
}

// monome refresh callback
static void monome_refresh_timer_callback(void* obj) {
	if(monomeFrameDirty > 0) {
80004286:	11 89       	ld.ub	r9,r8[0x0]
80004288:	30 08       	mov	r8,0
8000428a:	f0 09 18 00 	cp.b	r9,r8
		static event_t e;
		e.type = kEventMonomeRefresh;
8000428e:	c0 80       	breq	8000429e <monome_refresh_timer_callback+0x1e>
80004290:	e0 68 06 04 	mov	r8,1540
80004294:	30 b9       	mov	r9,11
		event_post(&e);
80004296:	10 9c       	mov	r12,r8
80004298:	91 09       	st.w	r8[0x0],r9
8000429a:	e0 a0 05 ff 	rcall	80004e98 <event_post>
8000429e:	d8 02       	popm	pc

800042a0 <handler_PollADC>:
800042a0:	d4 21       	pushm	r4-r7,lr
800042a2:	e0 67 1a 60 	mov	r7,6752
800042a6:	0e 9c       	mov	r12,r7
	monomeFrameDirty++;
}

static void handler_PollADC(s32 data) {
	u16 i;
	adc_convert(&adc);
800042a8:	e0 a0 05 6a 	rcall	80004d7c <adc_convert>

	// CLOCK POT INPUT
	i = adc[0];
	i = i>>2;
800042ac:	e0 68 1a 8c 	mov	r8,6796
800042b0:	8e 87       	ld.uh	r7,r7[0x0]
	if(i != clock_temp) {
800042b2:	90 08       	ld.sh	r8,r8[0x0]
800042b4:	a3 87       	lsr	r7,0x2
800042b6:	ee 08 19 00 	cp.h	r8,r7
		// 1000ms - 24ms
		clock_time = 25000 / (i + 25);
800042ba:	c1 00       	breq	800042da <handler_PollADC+0x3a>
800042bc:	ee c9 ff e7 	sub	r9,r7,-25
800042c0:	e0 68 61 a8 	mov	r8,25000
800042c4:	f0 09 0c 08 	divs	r8,r8,r9
		// print_dbg("\r\nnew clock (ms): ");
		// print_dbg_ulong(clock_time);

		timer_set(&clockTimer, clock_time);
800042c8:	e0 69 1a 86 	mov	r9,6790
	// CLOCK POT INPUT
	i = adc[0];
	i = i>>2;
	if(i != clock_temp) {
		// 1000ms - 24ms
		clock_time = 25000 / (i + 25);
800042cc:	e0 6c 06 14 	mov	r12,1556
		// print_dbg("\r\nnew clock (ms): ");
		// print_dbg_ulong(clock_time);

		timer_set(&clockTimer, clock_time);
800042d0:	f7 d8 c0 10 	bfextu	r11,r8,0x0,0x10
	}
	clock_temp = i;
800042d4:	b2 08       	st.h	r9[0x0],r8

	// PARAM POT INPUT
	if(param_accept && edit_prob) {
800042d6:	e0 a0 0b bd 	rcall	80005a50 <timer_set>
800042da:	e0 68 1a 8c 	mov	r8,6796
800042de:	b0 07       	st.h	r8[0x0],r7
800042e0:	30 09       	mov	r9,0
800042e2:	e0 68 1a 78 	mov	r8,6776
800042e6:	11 88       	ld.ub	r8,r8[0x0]
800042e8:	f2 08 18 00 	cp.b	r8,r9
800042ec:	c1 a0       	breq	80004320 <handler_PollADC+0x80>
		*param_dest8 = adc[1] >> 4; // scale to 0-255;
800042ee:	e0 68 1a 81 	mov	r8,6785
800042f2:	11 8a       	ld.ub	r10,r8[0x0]
800042f4:	e0 68 1a 60 	mov	r8,6752
		// print_dbg_ulong(*param_dest8);
		// print_dbg("\t" );
		// print_dbg_ulong(adc[1]);
	}
	else if(param_accept) {
		*param_dest = adc[1];
800042f8:	f2 0a 18 00 	cp.b	r10,r9
800042fc:	c0 70       	breq	8000430a <handler_PollADC+0x6a>
800042fe:	90 99       	ld.uh	r9,r8[0x2]
		monomeFrameDirty++;
80004300:	e0 68 1a 7c 	mov	r8,6780
80004304:	a5 89       	lsr	r9,0x4
80004306:	70 08       	ld.w	r8,r8[0x0]
80004308:	c0 a8       	rjmp	8000431c <handler_PollADC+0x7c>
	}
	else if(scroll) {
8000430a:	90 19       	ld.sh	r9,r8[0x2]
8000430c:	e0 68 0a f8 	mov	r8,2808
80004310:	70 08       	ld.w	r8,r8[0x0]
80004312:	b0 09       	st.h	r8[0x0],r9
		i = adc[1]>>6;
80004314:	e0 68 07 66 	mov	r8,1894
80004318:	11 89       	ld.ub	r9,r8[0x0]
8000431a:	2f f9       	sub	r9,-1
8000431c:	b0 89       	st.b	r8[0x0],r9
8000431e:	d8 22       	popm	r4-r7,pc
80004320:	e0 69 1a 75 	mov	r9,6773
		if(i > 58) i = 58;
		if(i != scroll_pos) {
80004324:	13 89       	ld.ub	r9,r9[0x0]
80004326:	f0 09 18 00 	cp.b	r9,r8
8000432a:	c1 60       	breq	80004356 <handler_PollADC+0xb6>
8000432c:	e0 68 1a 60 	mov	r8,6752
			scroll_pos = i;
			monomeFrameDirty++;
80004330:	90 99       	ld.uh	r9,r8[0x2]
80004332:	33 a8       	mov	r8,58
80004334:	a7 89       	lsr	r9,0x6
80004336:	f2 08 19 00 	cp.h	r8,r9
8000433a:	f9 b9 03 3a 	movlo	r9,58
8000433e:	e0 68 1a 83 	mov	r8,6787
80004342:	11 8a       	ld.ub	r10,r8[0x0]
80004344:	f2 0a 19 00 	cp.h	r10,r9
80004348:	c0 70       	breq	80004356 <handler_PollADC+0xb6>
8000434a:	b0 89       	st.b	r8[0x0],r9
8000434c:	e0 68 07 66 	mov	r8,1894
80004350:	11 89       	ld.ub	r9,r8[0x0]
80004352:	2f f9       	sub	r9,-1
80004354:	b0 89       	st.b	r8[0x0],r9
80004356:	d8 22       	popm	r4-r7,pc

80004358 <main>:
80004358:	d4 31       	pushm	r0-r7,lr
8000435a:	20 2d       	sub	sp,8
8000435c:	e0 a0 20 76 	rcall	80008448 <sysclk_init>
80004360:	e0 6c 87 00 	mov	r12,34560
80004364:	ea 1c 03 93 	orh	r12,0x393
80004368:	e0 a0 1d 0a 	rcall	80007d7c <init_dbg_rs232>
8000436c:	e0 a0 06 54 	rcall	80005014 <init_gpio>
}


// assign event handlers
static inline void assign_main_event_handlers(void) {
	app_event_handlers[ kEventFront ]	= &handler_Front;
80004370:	fe c9 22 5c 	sub	r9,pc,8796
80004374:	e0 68 1a 94 	mov	r8,6804
	// app_event_handlers[ kEventTimer ]	= &handler_Timer;
	app_event_handlers[ kEventPollADC ]	= &handler_PollADC;
80004378:	91 19       	st.w	r8[0x4],r9
	app_event_handlers[ kEventKeyTimer ] = &handler_KeyTimer;
8000437a:	fe c9 00 da 	sub	r9,pc,218
	app_event_handlers[ kEventSaveFlash ] = &handler_SaveFlash;
8000437e:	91 39       	st.w	r8[0xc],r9
80004380:	fe c9 03 54 	sub	r9,pc,852
	app_event_handlers[ kEventFtdiConnect ]	= &handler_FtdiConnect ;
80004384:	91 49       	st.w	r8[0x10],r9
	app_event_handlers[ kEventFtdiDisconnect ]	= &handler_FtdiDisconnect ;
80004386:	fe c9 20 9a 	sub	r9,pc,8346
	app_event_handlers[ kEventMonomeConnect ]	= &handler_MonomeConnect ;
8000438a:	91 59       	st.w	r8[0x14],r9
8000438c:	fe c9 03 68 	sub	r9,pc,872
	app_event_handlers[ kEventMonomeDisconnect ]	= &handler_None ;
80004390:	91 69       	st.w	r8[0x18],r9
	app_event_handlers[ kEventMonomePoll ]	= &handler_MonomePoll ;
80004392:	fe c9 f6 a2 	sub	r9,pc,-2398
	app_event_handlers[ kEventMonomeRefresh ]	= &handler_MonomeRefresh ;
80004396:	91 79       	st.w	r8[0x1c],r9
80004398:	fe c9 03 e4 	sub	r9,pc,996
	app_event_handlers[ kEventMonomeGridKey ]	= &handler_MonomeGridKey ;
8000439c:	91 89       	st.w	r8[0x20],r9

	init_dbg_rs232(FMCK_HZ);

	init_gpio();
	assign_main_event_handlers();
	init_events();
8000439e:	fe c9 22 ca 	sub	r9,pc,8906
	init_tc();
800043a2:	91 99       	st.w	r8[0x24],r9
800043a4:	fe c9 22 9c 	sub	r9,pc,8860
	init_spi();
800043a8:	91 a9       	st.w	r8[0x28],r9
	init_adc();
800043aa:	fe c9 10 e6 	sub	r9,pc,4326

	irq_initialize_vectors();
800043ae:	91 b9       	st.w	r8[0x2c],r9
800043b0:	fe c9 20 98 	sub	r9,pc,8344
	register_interrupts();
800043b4:	91 c9       	st.w	r8[0x30],r9
	cpu_irq_enable();
800043b6:	e0 a0 05 5f 	rcall	80004e74 <init_events>

	init_usb_host();
800043ba:	e0 a0 06 11 	rcall	80004fdc <init_tc>
	init_monome();
800043be:	e0 a0 05 bf 	rcall	80004f3c <init_spi>


	print_dbg("\r\n\n// white whale //////////////////////////////// ");
800043c2:	e0 a0 04 9f 	rcall	80004d00 <init_adc>
	print_dbg_ulong(sizeof(flashy));
800043c6:	e0 a0 10 a7 	rcall	80006514 <INTC_init_interrupts>
800043ca:	e0 a0 06 4d 	rcall	80005064 <register_interrupts>

	print_dbg(" ");
800043ce:	d5 03       	csrf	0x10
800043d0:	e0 a0 05 b2 	rcall	80004f34 <init_usb_host>
	print_dbg_ulong(sizeof(w));
800043d4:	e0 a0 06 da 	rcall	80005188 <init_monome>
800043d8:	fe cc ac 94 	sub	r12,pc,-21356

	print_dbg(" ");
800043dc:	e0 a0 1c ae 	rcall	80007d38 <print_dbg>
800043e0:	e0 6c 7a 6c 	mov	r12,31340
	print_dbg_ulong(sizeof(glyph));
800043e4:	e0 a0 1c a4 	rcall	80007d2c <print_dbg_ulong>

	if(flash_is_fresh()) {
800043e8:	fe cc ac 70 	sub	r12,pc,-21392
800043ec:	e0 a0 1c a6 	rcall	80007d38 <print_dbg>
800043f0:	e0 6c 0f 44 	mov	r12,3908
800043f4:	e0 a0 1c 9c 	rcall	80007d2c <print_dbg_ulong>
		print_dbg("\rfirst run.");
800043f8:	fe cc ac 80 	sub	r12,pc,-21376
		flash_unfresh();
800043fc:	e0 a0 1c 9e 	rcall	80007d38 <print_dbg>
		flashc_memset8((void*)&(flashy.edit_mode), mTrig, 4, true);
80004400:	30 8c       	mov	r12,8
80004402:	e0 a0 1c 95 	rcall	80007d2c <print_dbg_ulong>
80004406:	32 28       	mov	r8,34
80004408:	49 57       	lddpc	r7,8000445c <main+0x104>
8000440a:	0f 89       	ld.ub	r9,r7[0x0]
8000440c:	f0 09 18 00 	cp.b	r9,r8
		flashc_memset32((void*)&(flashy.preset_select), 0, 4, true);
80004410:	e0 80 00 96 	breq	8000453c <main+0x1e4>
80004414:	fe cc ac 98 	sub	r12,pc,-21352
80004418:	e0 a0 1c 90 	rcall	80007d38 <print_dbg>


		// clear out some reasonable defaults
		for(i1=0;i1<16;i1++) {
8000441c:	fe b0 ef 2e 	rcall	80002278 <flash_unfresh>

	if(flash_is_fresh()) {
		print_dbg("\rfirst run.");
		flash_unfresh();
		flashc_memset8((void*)&(flashy.edit_mode), mTrig, 4, true);
		flashc_memset32((void*)&(flashy.preset_select), 0, 4, true);
80004420:	30 4a       	mov	r10,4
80004422:	30 19       	mov	r9,1


		// clear out some reasonable defaults
		for(i1=0;i1<16;i1++) {
80004424:	ee 0a 00 0c 	add	r12,r7,r10

	if(flash_is_fresh()) {
		print_dbg("\rfirst run.");
		flash_unfresh();
		flashc_memset8((void*)&(flashy.edit_mode), mTrig, 4, true);
		flashc_memset32((void*)&(flashy.preset_select), 0, 4, true);
80004428:	30 0b       	mov	r11,0
8000442a:	e0 a0 0f 3b 	rcall	800062a0 <flashc_memset8>


		// clear out some reasonable defaults
		for(i1=0;i1<16;i1++) {
			for(i2=0;i2<16;i2++) {
				w.wp[i1].steps[i2] = 0;
8000442e:	ee cc ff f8 	sub	r12,r7,-8
80004432:	30 19       	mov	r9,1
				w.wp[i1].step_probs[i2] = 255;
				w.wp[i1].cv_probs[0][i2] = 255;
				w.wp[i1].cv_probs[1][i2] = 255;
				w.wp[i1].cv_curves[0][i2] = 0;
80004434:	30 4a       	mov	r10,4
80004436:	30 0b       	mov	r11,0
80004438:	e0 a0 0f 22 	rcall	8000627c <flashc_memset32>
8000443c:	fe c8 b0 24 	sub	r8,pc,-20444
80004440:	2c 08       	sub	r8,-64
80004442:	30 09       	mov	r9,0
80004444:	e0 64 0b 0c 	mov	r4,2828
80004448:	50 18       	stdsp	sp[0x4],r8
8000444a:	12 97       	mov	r7,r9
8000444c:	e8 c6 ff fc 	sub	r6,r4,-4
80004450:	08 98       	mov	r8,r4
80004452:	12 9c       	mov	r12,r9
80004454:	3f f3       	mov	r3,-1
80004456:	12 90       	mov	r0,r9
80004458:	12 91       	mov	r1,r9
8000445a:	c2 e8       	rjmp	800044b6 <main+0x15e>
8000445c:	80 03       	ld.sh	r3,r0[0x0]
8000445e:	00 00       	add	r0,r0
80004460:	b6 8c       	st.b	r11[0x0],r12
80004462:	f7 63 00 10 	st.b	r11[16],r3
80004466:	f7 63 00 c0 	st.b	r11[192],r3
8000446a:	f7 63 00 d0 	st.b	r11[208],r3
8000446e:	30 18       	mov	r8,1
80004470:	f0 0e 09 42 	lsl	r2,r8,lr
80004474:	b4 07       	st.h	r10[0x0],r7
80004476:	f5 52 ff e0 	st.h	r10[-32],r2
8000447a:	f5 52 ff c0 	st.h	r10[-64],r2
8000447e:	f5 57 00 20 	st.h	r10[32],r7
80004482:	0b 12       	ld.sh	r2,r5++
80004484:	f5 52 ff a0 	st.h	r10[-96],r2
80004488:	10 0e       	add	lr,r8
8000448a:	10 0b       	add	r11,r8
8000448c:	2f ea       	sub	r10,-2
8000448e:	59 0e       	cp.w	lr,16
80004490:	ce 81       	brne	80004460 <main+0x108>
80004492:	40 08       	lddsp	r8,sp[0x0]
80004494:	30 fa       	mov	r10,15
80004496:	ac 01       	st.h	r6[0x0],r1
80004498:	b0 aa       	st.b	r8[0x2],r10
8000449a:	b0 9a       	st.b	r8[0x1],r10
8000449c:	b0 80       	st.b	r8[0x0],r0
8000449e:	b0 b7       	st.b	r8[0x3],r7
800044a0:	30 0a       	mov	r10,0
800044a2:	91 2a       	st.w	r8[0x8],r10
800044a4:	ac ac       	st.b	r6[0x2],r12
800044a6:	b0 fc       	st.b	r8[0x7],r12
800044a8:	2f f9       	sub	r9,-1
800044aa:	ec c6 ff 14 	sub	r6,r6,-236
800044ae:	f0 c8 ff 14 	sub	r8,r8,-236
800044b2:	59 09       	cp.w	r9,16
800044b4:	c1 00       	breq	800044d4 <main+0x17c>
800044b6:	e0 6e 0b 0c 	mov	lr,2828
800044ba:	e0 6b 00 ec 	mov	r11,236
800044be:	40 15       	lddsp	r5,sp[0x4]


		// clear out some reasonable defaults
		for(i1=0;i1<16;i1++) {
			for(i2=0;i2<16;i2++) {
				w.wp[i1].steps[i2] = 0;
800044c0:	f2 0b 02 4b 	mul	r11,r9,r11
				w.wp[i1].step_probs[i2] = 255;
800044c4:	50 08       	stdsp	sp[0x0],r8
				w.wp[i1].cv_probs[0][i2] = 255;
800044c6:	f6 ca ff 74 	sub	r10,r11,-140
				w.wp[i1].cv_probs[1][i2] = 255;
800044ca:	2f 4b       	sub	r11,-12
800044cc:	1c 0a       	add	r10,lr
				w.wp[i1].cv_curves[0][i2] = 0;
				w.wp[i1].cv_curves[1][i2] = 0;
				w.wp[i1].cv_values[i2] = SCALES[2][i2];
				w.wp[i1].cv_steps[0][i2] = 1<<i2;
800044ce:	1c 0b       	add	r11,lr
800044d0:	30 0e       	mov	lr,0
800044d2:	cc 7b       	rjmp	80004460 <main+0x108>
			for(i2=0;i2<16;i2++) {
				w.wp[i1].steps[i2] = 0;
				w.wp[i1].step_probs[i2] = 255;
				w.wp[i1].cv_probs[0][i2] = 255;
				w.wp[i1].cv_probs[1][i2] = 255;
				w.wp[i1].cv_curves[0][i2] = 0;
800044d4:	e0 68 0b 0c 	mov	r8,2828
				w.wp[i1].cv_curves[1][i2] = 0;
				w.wp[i1].cv_values[i2] = SCALES[2][i2];
				w.wp[i1].cv_steps[0][i2] = 1<<i2;
				w.wp[i1].cv_steps[1][i2] = 1<<i2;
800044d8:	30 3a       	mov	r10,3
				w.wp[i1].cv_probs[0][i2] = 255;
				w.wp[i1].cv_probs[1][i2] = 255;
				w.wp[i1].cv_curves[0][i2] = 0;
				w.wp[i1].cv_curves[1][i2] = 0;
				w.wp[i1].cv_values[i2] = SCALES[2][i2];
				w.wp[i1].cv_steps[0][i2] = 1<<i2;
800044da:	f1 6c 0f 40 	st.b	r8[3904],r12
				w.wp[i1].steps[i2] = 0;
				w.wp[i1].step_probs[i2] = 255;
				w.wp[i1].cv_probs[0][i2] = 255;
				w.wp[i1].cv_probs[1][i2] = 255;
				w.wp[i1].cv_curves[0][i2] = 0;
				w.wp[i1].cv_curves[1][i2] = 0;
800044de:	f0 c9 f1 40 	sub	r9,r8,-3776
				w.wp[i1].cv_values[i2] = SCALES[2][i2];
800044e2:	f1 6a 0f 41 	st.b	r8[3905],r10
800044e6:	e8 c4 f0 c0 	sub	r4,r4,-3904
				w.wp[i1].cv_steps[0][i2] = 1<<i2;
				w.wp[i1].cv_steps[1][i2] = 1<<i2;
800044ea:	30 18       	mov	r8,1
800044ec:	12 b8       	st.h	r9++,r8
		flashc_memset32((void*)&(flashy.preset_select), 0, 4, true);


		// clear out some reasonable defaults
		for(i1=0;i1<16;i1++) {
			for(i2=0;i2<16;i2++) {
800044ee:	08 39       	cp.w	r9,r4
800044f0:	cf e1       	brne	800044ec <main+0x194>
800044f2:	49 26       	lddpc	r6,80004538 <main+0x1e0>
				w.wp[i1].cv_values[i2] = SCALES[2][i2];
				w.wp[i1].cv_steps[0][i2] = 1<<i2;
				w.wp[i1].cv_steps[1][i2] = 1<<i2;
			}
			w.wp[i1].step_choice = 0;
			w.wp[i1].loop_end = 15;
800044f4:	30 07       	mov	r7,0
				w.wp[i1].cv_curves[1][i2] = 0;
				w.wp[i1].cv_values[i2] = SCALES[2][i2];
				w.wp[i1].cv_steps[0][i2] = 1<<i2;
				w.wp[i1].cv_steps[1][i2] = 1<<i2;
			}
			w.wp[i1].step_choice = 0;
800044f6:	ec c5 ff f7 	sub	r5,r6,-9
			w.wp[i1].loop_end = 15;
800044fa:	30 14       	mov	r4,1
			w.wp[i1].loop_len = 15;
			w.wp[i1].loop_start = 0;
800044fc:	2b 46       	sub	r6,-76
			w.wp[i1].loop_dir = 0;
800044fe:	e0 63 1a 6c 	mov	r3,6764
			w.wp[i1].step_mode = mForward;
80004502:	30 19       	mov	r9,1
			w.wp[i1].cv_mode[0] = 0;
80004504:	e0 6a 0f 44 	mov	r10,3908
			w.wp[i1].cv_mode[1] = 0;
80004508:	e0 6b 0b 0c 	mov	r11,2828
8000450c:	0c 9c       	mov	r12,r6
8000450e:	e0 a0 0e cf 	rcall	800062ac <flashc_memcpy>
		flashc_memset8((void*)&(flashy.edit_mode), mTrig, 4, true);
		flashc_memset32((void*)&(flashy.preset_select), 0, 4, true);


		// clear out some reasonable defaults
		for(i1=0;i1<16;i1++) {
80004512:	e8 07 09 48 	lsl	r8,r4,r7
80004516:	0a 9c       	mov	r12,r5
80004518:	e6 07 0b 08 	st.b	r3[r7],r8
8000451c:	ec c6 f0 bc 	sub	r6,r6,-3908
80004520:	2f f7       	sub	r7,-1
80004522:	2f 85       	sub	r5,-8
80004524:	30 19       	mov	r9,1
80004526:	30 8a       	mov	r10,8
80004528:	e0 6b 1a 6c 	mov	r11,6764
8000452c:	e0 a0 0e c0 	rcall	800062ac <flashc_memcpy>
80004530:	58 87       	cp.w	r7,8
			w.wp[i1].step_mode = mForward;
			w.wp[i1].cv_mode[0] = 0;
			w.wp[i1].cv_mode[1] = 0;
		}

		w.series_start = 0;
80004532:	ce 81       	brne	80004502 <main+0x1aa>
		w.series_end = 3;
80004534:	c1 c8       	rjmp	8000456c <main+0x214>
			w.wp[i1].step_mode = mForward;
			w.wp[i1].cv_mode[0] = 0;
			w.wp[i1].cv_mode[1] = 0;
		}

		w.series_start = 0;
80004536:	d7 03       	nop
80004538:	80 03       	ld.sh	r3,r0[0x0]
		w.series_end = 3;
8000453a:	00 00       	add	r0,r0
8000453c:	ef 38 00 08 	ld.ub	r8,r7[8]
80004540:	6e 19       	ld.w	r9,r7[0x4]
////////////////////////////////////////////////////////////////////////////////
////////////////////////////////////////////////////////////////////////////////
////////////////////////////////////////////////////////////////////////////////
// main

int main(void)
80004542:	e0 66 0b 04 	mov	r6,2820
		}

		w.series_start = 0;
		w.series_end = 3;
		for(i1=0;i1<64;i1++)
			w.series_list[i1] = 1;
80004546:	ac 88       	st.b	r6[0x0],r8
80004548:	e0 68 1a 88 	mov	r8,6792
			w.wp[i1].cv_mode[1] = 0;
		}

		w.series_start = 0;
		w.series_end = 3;
		for(i1=0;i1<64;i1++)
8000454c:	91 09       	st.w	r8[0x0],r9
8000454e:	fe b0 ee 01 	rcall	80002150 <flash_read>
80004552:	0d 88       	ld.ub	r8,r6[0x0]
80004554:	2f f8       	sub	r8,-1
			w.series_list[i1] = 1;

		// save all presets, clear glyphs
		for(i1=0;i1<8;i1++) {
			flashc_memcpy((void *)&flashy.w[i1], &w, sizeof(w), true);
80004556:	ee 08 00 37 	add	r7,r7,r8<<0x3
			glyph[i1] = (1<<i1);
8000455a:	e0 68 1a 6c 	mov	r8,6764
		for(i1=0;i1<64;i1++)
			w.series_list[i1] = 1;

		// save all presets, clear glyphs
		for(i1=0;i1<8;i1++) {
			flashc_memcpy((void *)&flashy.w[i1], &w, sizeof(w), true);
8000455e:	2f f7       	sub	r7,-1
80004560:	f0 c9 ff f8 	sub	r9,r8,-8
80004564:	0f 3a       	ld.ub	r10,r7++
80004566:	10 ca       	st.b	r8++,r10
80004568:	12 38       	cp.w	r8,r9
			glyph[i1] = (1<<i1);
8000456a:	cf d1       	brne	80004564 <main+0x20c>
8000456c:	30 f9       	mov	r9,15
			flashc_memcpy((void *)&flashy.glyph[i1], &glyph, sizeof(glyph), true);
8000456e:	e0 68 0b 07 	mov	r8,2823
			w.series_list[i1] = 1;

		// save all presets, clear glyphs
		for(i1=0;i1<8;i1++) {
			flashc_memcpy((void *)&flashy.w[i1], &w, sizeof(w), true);
			glyph[i1] = (1<<i1);
80004572:	b0 89       	st.b	r8[0x0],r9
			flashc_memcpy((void *)&flashy.glyph[i1], &glyph, sizeof(glyph), true);
80004574:	31 09       	mov	r9,16
80004576:	e0 68 0a f4 	mov	r8,2804
8000457a:	b0 89       	st.b	r8[0x0],r9
8000457c:	fe c9 0c f0 	sub	r9,pc,3312
80004580:	e0 68 0b 00 	mov	r8,2816
80004584:	91 09       	st.w	r8[0x0],r9
		w.series_end = 3;
		for(i1=0;i1<64;i1++)
			w.series_list[i1] = 1;

		// save all presets, clear glyphs
		for(i1=0;i1<8;i1++) {
80004586:	fe c9 ff 8e 	sub	r9,pc,-114
8000458a:	31 c8       	mov	r8,28
8000458c:	32 9c       	mov	r12,41
8000458e:	91 09       	st.w	r8[0x0],r9
80004590:	e0 a0 0f 2f 	rcall	800063ee <gpio_get_pin_value>
80004594:	e0 68 1a cc 	mov	r8,6860
80004598:	ec 1c 00 01 	eorl	r12,0x1
			flashc_memcpy((void *)&flashy.glyph[i1], &glyph, sizeof(glyph), true);
		}
	}
	else {
		// load from flash at startup
		preset_select = flashy.preset_select;
8000459c:	30 09       	mov	r9,0
8000459e:	b0 8c       	st.b	r8[0x0],r12
		edit_mode = flashy.edit_mode;
800045a0:	fe ca 24 c8 	sub	r10,pc,9416
			flashc_memcpy((void *)&flashy.glyph[i1], &glyph, sizeof(glyph), true);
		}
	}
	else {
		// load from flash at startup
		preset_select = flashy.preset_select;
800045a4:	37 8b       	mov	r11,120
		edit_mode = flashy.edit_mode;
800045a6:	e0 6c 06 14 	mov	r12,1556
		flash_read();
800045aa:	e0 a0 0a 8f 	rcall	80005ac8 <timer_add>
800045ae:	30 09       	mov	r9,0
800045b0:	fe ca 03 48 	sub	r10,pc,840
800045b4:	33 2b       	mov	r11,50
800045b6:	e0 6c 05 ac 	mov	r12,1452
////////////////////////////////////////////////////////////////////////////////
////////////////////////////////////////////////////////////////////////////////
////////////////////////////////////////////////////////////////////////////////
// main

int main(void)
800045ba:	e0 a0 0a 87 	rcall	80005ac8 <timer_add>
		// load from flash at startup
		preset_select = flashy.preset_select;
		edit_mode = flashy.edit_mode;
		flash_read();
		for(i1=0;i1<8;i1++)
			glyph[i1] = flashy.glyph[preset_select][i1];
800045be:	30 09       	mov	r9,0
800045c0:	fe ca 03 70 	sub	r10,pc,880
	else {
		// load from flash at startup
		preset_select = flashy.preset_select;
		edit_mode = flashy.edit_mode;
		flash_read();
		for(i1=0;i1<8;i1++)
800045c4:	36 4b       	mov	r11,100
			glyph[i1] = flashy.glyph[preset_select][i1];
	}

	LENGTH = 15;
800045c6:	e0 6c 05 84 	mov	r12,1412
800045ca:	e0 a0 0a 7f 	rcall	80005ac8 <timer_add>
	SIZE = 16;
800045ce:	e0 69 27 10 	mov	r9,10000

	re = &refresh;
800045d2:	e0 68 1a 8c 	mov	r8,6796
800045d6:	e0 67 05 a0 	mov	r7,1440

	clock_pulse = &clock;
800045da:	b0 09       	st.h	r8[0x0],r9
	clock_external = !gpio_get_pin_value(B09);
800045dc:	e0 66 1a 94 	mov	r6,6804
800045e0:	e0 6c 05 a0 	mov	r12,1440
800045e4:	e0 a0 04 82 	rcall	80004ee8 <event_next>
800045e8:	cf c0       	breq	800045e0 <main+0x288>

	timer_add(&clockTimer,120,&clockTimer_callback, NULL);
800045ea:	6e 08       	ld.w	r8,r7[0x0]
	SIZE = 16;

	re = &refresh;

	clock_pulse = &clock;
	clock_external = !gpio_get_pin_value(B09);
800045ec:	6e 1c       	ld.w	r12,r7[0x4]

	timer_add(&clockTimer,120,&clockTimer_callback, NULL);
800045ee:	ec 08 03 28 	ld.w	r8,r6[r8<<0x2]
800045f2:	5d 18       	icall	r8
800045f4:	cf 6b       	rjmp	800045e0 <main+0x288>
800045f6:	d7 03       	nop

800045f8 <clock>:
	timer_add(&keyTimer,50,&keyTimer_callback, NULL);
800045f8:	d4 21       	pushm	r4-r7,lr
800045fa:	58 0c       	cp.w	r12,0
800045fc:	e0 80 03 60 	breq	80004cbc <clock+0x6c4>
80004600:	32 ac       	mov	r12,42
80004602:	e0 a0 0f 01 	rcall	80006404 <gpio_set_gpio_pin>
	timer_add(&adcTimer,100,&adcTimer_callback, NULL);
80004606:	e0 68 1a 76 	mov	r8,6774
8000460a:	30 09       	mov	r9,0
8000460c:	11 8a       	ld.ub	r10,r8[0x0]
8000460e:	f2 0a 18 00 	cp.b	r10,r9
	clock_temp = 10000; // out of ADC range to force tempo
80004612:	c0 80       	breq	80004622 <clock+0x2a>
80004614:	b0 89       	st.b	r8[0x0],r9
}

// app event loop
void check_events(void) {
	static event_t e;
	if( event_next(&e) ) {
80004616:	e0 68 1a 84 	mov	r8,6788
		(app_event_handlers)[e.type](e.data);
8000461a:	11 89       	ld.ub	r9,r8[0x0]
}

// app event loop
void check_events(void) {
	static event_t e;
	if( event_next(&e) ) {
8000461c:	e0 68 1a 5b 	mov	r8,6747
80004620:	b0 89       	st.b	r8[0x0],r9
80004622:	e0 68 1a 8e 	mov	r8,6798
		(app_event_handlers)[e.type](e.data);
80004626:	11 89       	ld.ub	r9,r8[0x0]
80004628:	30 08       	mov	r8,0
8000462a:	f0 09 18 00 	cp.b	r9,r8
8000462e:	c6 40       	breq	800046f6 <clock+0xfe>
80004630:	e0 6a 0b 05 	mov	r10,2821
80004634:	e0 68 0b 08 	mov	r8,2824
80004638:	11 89       	ld.ub	r9,r8[0x0]
8000463a:	b4 89       	st.b	r10[0x0],r9
8000463c:	e0 6a 0b 0c 	mov	r10,2828
80004640:	f5 3c 0f 41 	ld.ub	r12,r10[3905]
80004644:	f2 0c 18 00 	cp.b	r12,r9
80004648:	c0 41       	brne	80004650 <clock+0x58>
8000464a:	f5 39 0f 40 	ld.ub	r9,r10[3904]
8000464e:	c0 28       	rjmp	80004652 <clock+0x5a>
80004650:	2f f9       	sub	r9,-1
80004652:	b0 89       	st.b	r8[0x0],r9
80004654:	e0 68 0b 05 	mov	r8,2821
80004658:	30 fc       	mov	r12,15
8000465a:	11 87       	ld.ub	r7,r8[0x0]
8000465c:	e0 6b 0b 0c 	mov	r11,2828
80004660:	30 08       	mov	r8,0
80004662:	ee c7 f8 a0 	sub	r7,r7,-1888
80004666:	10 99       	mov	r9,r8
80004668:	e0 6a 05 e4 	mov	r10,1508
8000466c:	c1 28       	rjmp	80004690 <clock+0x98>
8000466e:	f6 07 05 15 	ld.uh	r5,r11[r7<<0x1]
80004672:	f0 ce ff ff 	sub	lr,r8,-1
80004676:	f2 c6 ff ff 	sub	r6,r9,-1
8000467a:	ea 08 08 45 	asr	r5,r5,r8
8000467e:	ed b5 00 00 	bld	r5,0x0
80004682:	c0 51       	brne	8000468c <clock+0x94>
80004684:	f4 09 0a 18 	st.h	r10[r9<<0x1],r8
80004688:	f3 d6 c0 08 	bfextu	r9,r6,0x0,0x8
			// print_dbg_ulong(series_next);
			// print_dbg(" pos ");
			// print_dbg_ulong(series_pos);

			count = 0;
			for(i1=0;i1<16;i1++) {
8000468c:	f1 de c0 08 	bfextu	r8,lr,0x0,0x8
					found[count] = i1;
					count++;
				}
			}

			if(count == 1)
80004690:	f8 08 18 00 	cp.b	r8,r12
80004694:	fe 98 ff ed 	brls	8000466e <clock+0x76>
				next_pattern = found[0];
80004698:	e0 65 06 2c 	mov	r5,1580
8000469c:	e0 6a 05 c4 	mov	r10,1476
800046a0:	aa 89       	st.b	r5[0x0],r9
800046a2:	b4 88       	st.b	r10[0x0],r8
800046a4:	e0 66 1a 84 	mov	r6,6788
800046a8:	e0 67 05 e4 	mov	r7,1508
800046ac:	30 18       	mov	r8,1
800046ae:	f0 09 18 00 	cp.b	r9,r8
800046b2:	c0 31       	brne	800046b8 <clock+0xc0>
800046b4:	8e 08       	ld.sh	r8,r7[0x0]
800046b6:	c0 88       	rjmp	800046c6 <clock+0xce>
800046b8:	e0 a0 0a 46 	rcall	80005b44 <rnd>
800046bc:	0b 88       	ld.ub	r8,r5[0x0]
800046be:	f8 08 0d 08 	divu	r8,r12,r8
800046c2:	ee 09 04 18 	ld.sh	r8,r7[r9<<0x1]
800046c6:	e0 69 1a 5b 	mov	r9,6747
			else {

				next_pattern = found[rnd()%count];
800046ca:	ac 88       	st.b	r6[0x0],r8
800046cc:	e0 68 1a 84 	mov	r8,6788
800046d0:	11 88       	ld.ub	r8,r8[0x0]
800046d2:	b2 88       	st.b	r9[0x0],r8
800046d4:	e0 69 1a 90 	mov	r9,6800
800046d8:	b2 88       	st.b	r9[0x0],r8
			}

			pattern = next_pattern;
800046da:	e0 69 00 ec 	mov	r9,236
800046de:	b3 38       	mul	r8,r9
			series_playing = pattern;
800046e0:	e0 69 0b 0c 	mov	r9,2828
			next_pos = w.wp[pattern].loop_start;
800046e4:	f2 08 07 09 	ld.ub	r9,r9[r8]
800046e8:	e0 68 1a 53 	mov	r8,6739
800046ec:	b0 89       	st.b	r8[0x0],r9
800046ee:	30 09       	mov	r9,0
800046f0:	e0 68 1a 8e 	mov	r8,6798

			series_jump = 0;
800046f4:	b0 89       	st.b	r8[0x0],r9
800046f6:	e0 68 1a 53 	mov	r8,6739
		}

		pos = next_pos;
800046fa:	11 8a       	ld.ub	r10,r8[0x0]
800046fc:	e0 68 0b 06 	mov	r8,2822
80004700:	b0 8a       	st.b	r8[0x0],r10

		// live param record
		if(param_accept && live_in) {
80004702:	e0 68 1a 78 	mov	r8,6776
80004706:	11 89       	ld.ub	r9,r8[0x0]
80004708:	30 08       	mov	r8,0
8000470a:	f0 09 18 00 	cp.b	r9,r8
8000470e:	c2 a0       	breq	80004762 <clock+0x16a>
80004710:	e0 69 1a 54 	mov	r9,6740
80004714:	13 89       	ld.ub	r9,r9[0x0]
80004716:	f0 09 18 00 	cp.b	r9,r8
			param_dest = &w.wp[pattern].cv_curves[edit_cv_ch][pos];
8000471a:	c2 40       	breq	80004762 <clock+0x16a>
8000471c:	e0 68 0b 0c 	mov	r8,2828
80004720:	e0 6b 1a 5b 	mov	r11,6747
80004724:	e0 67 00 ec 	mov	r7,236
80004728:	17 8b       	ld.ub	r11,r11[0x0]
8000472a:	f6 07 02 47 	mul	r7,r11,r7
8000472e:	ee c7 ff 74 	sub	r7,r7,-140
			w.wp[pattern].cv_curves[edit_cv_ch][pos] = adc[1];
80004732:	10 07       	add	r7,r8

		pos = next_pos;

		// live param record
		if(param_accept && live_in) {
			param_dest = &w.wp[pattern].cv_curves[edit_cv_ch][pos];
80004734:	f3 da b0 08 	bfexts	r9,r10,0x0,0x8
80004738:	f6 0c 10 76 	mul	r12,r11,118
			w.wp[pattern].cv_curves[edit_cv_ch][pos] = adc[1];
8000473c:	e0 6b 1a 77 	mov	r11,6775

		pos = next_pos;

		// live param record
		if(param_accept && live_in) {
			param_dest = &w.wp[pattern].cv_curves[edit_cv_ch][pos];
80004740:	17 8b       	ld.ub	r11,r11[0x0]
80004742:	a5 6b       	lsl	r11,0x4
80004744:	f6 0c 00 0c 	add	r12,r11,r12
			w.wp[pattern].cv_curves[edit_cv_ch][pos] = adc[1];
80004748:	12 0b       	add	r11,r9
8000474a:	ee 0b 00 1b 	add	r11,r7,r11<<0x1
8000474e:	e0 67 0a f8 	mov	r7,2808
80004752:	8f 0b       	st.w	r7[0x0],r11
		}

		// calc next step
		if(w.wp[pattern].step_mode == mForward) { 		// FORWARD
80004754:	12 0c       	add	r12,r9
80004756:	e0 69 1a 60 	mov	r9,6752
8000475a:	2b ac       	sub	r12,-70
8000475c:	92 19       	ld.sh	r9,r9[0x2]
8000475e:	f0 0c 0a 19 	st.h	r8[r12<<0x1],r9
80004762:	e0 65 1a 5b 	mov	r5,6747
80004766:	e0 67 0b 0c 	mov	r7,2828
			if(pos == w.wp[pattern].loop_end) next_pos = w.wp[pattern].loop_start;
8000476a:	0b 88       	ld.ub	r8,r5[0x0]
8000476c:	e0 66 00 ec 	mov	r6,236
80004770:	ad 38       	mul	r8,r6
80004772:	ee 08 00 08 	add	r8,r7,r8
			else if(pos >= LENGTH) next_pos = 0;
80004776:	70 29       	ld.w	r9,r8[0x8]
80004778:	58 09       	cp.w	r9,0
8000477a:	c1 11       	brne	8000479c <clock+0x1a4>
8000477c:	5c 6a       	casts.b	r10
8000477e:	11 9b       	ld.ub	r11,r8[0x1]
			else next_pos++;
80004780:	16 3a       	cp.w	r10,r11
80004782:	c0 31       	brne	80004788 <clock+0x190>
80004784:	11 89       	ld.ub	r9,r8[0x0]
			cut_pos = 0;
		}
		else if(w.wp[pattern].step_mode == mReverse) {	// REVERSE
80004786:	c1 38       	rjmp	800047ac <clock+0x1b4>
80004788:	e0 68 0b 07 	mov	r8,2823
			if(pos == w.wp[pattern].loop_start)
8000478c:	11 8b       	ld.ub	r11,r8[0x0]
8000478e:	e0 68 1a 53 	mov	r8,6739
80004792:	16 3a       	cp.w	r10,r11
				next_pos = w.wp[pattern].loop_end;
80004794:	c1 c4       	brge	800047cc <clock+0x1d4>
80004796:	11 89       	ld.ub	r9,r8[0x0]
80004798:	2f f9       	sub	r9,-1
8000479a:	c1 98       	rjmp	800047cc <clock+0x1d4>
			else if(pos <= 0)
8000479c:	58 19       	cp.w	r9,1
8000479e:	c1 b1       	brne	800047d4 <clock+0x1dc>
800047a0:	f7 da b0 08 	bfexts	r11,r10,0x0,0x8
800047a4:	11 89       	ld.ub	r9,r8[0x0]
				next_pos = LENGTH;
800047a6:	12 3b       	cp.w	r11,r9
800047a8:	c0 51       	brne	800047b2 <clock+0x1ba>
800047aa:	11 99       	ld.ub	r9,r8[0x1]
			else next_pos--;
800047ac:	e0 68 1a 53 	mov	r8,6739
800047b0:	c0 e8       	rjmp	800047cc <clock+0x1d4>
			cut_pos = 0;
800047b2:	e0 68 1a 53 	mov	r8,6739
800047b6:	30 09       	mov	r9,0
800047b8:	f2 0a 18 00 	cp.b	r10,r9
800047bc:	e0 89 00 06 	brgt	800047c8 <clock+0x1d0>
800047c0:	e0 69 0b 07 	mov	r9,2823
800047c4:	13 89       	ld.ub	r9,r9[0x0]
800047c6:	c0 38       	rjmp	800047cc <clock+0x1d4>
800047c8:	11 89       	ld.ub	r9,r8[0x0]
800047ca:	20 19       	sub	r9,1
800047cc:	b0 89       	st.b	r8[0x0],r9
800047ce:	30 09       	mov	r9,0
800047d0:	c8 b8       	rjmp	800048e6 <clock+0x2ee>
800047d2:	d7 03       	nop
800047d4:	58 29       	cp.w	r9,2
800047d6:	c7 71       	brne	800048c4 <clock+0x2cc>
800047d8:	e0 67 1a 74 	mov	r7,6772
800047dc:	0f 86       	ld.ub	r6,r7[0x0]
800047de:	e0 a0 09 b3 	rcall	80005b44 <rnd>
800047e2:	20 16       	sub	r6,1
800047e4:	30 38       	mov	r8,3
800047e6:	f8 08 0d 08 	divu	r8,r12,r8
800047ea:	12 06       	add	r6,r9
800047ec:	5c 56       	castu.b	r6
800047ee:	ae 86       	st.b	r7[0x0],r6
		}
		else if(w.wp[pattern].step_mode == mDrunk) {	// DRUNK
800047f0:	3f f8       	mov	r8,-1
800047f2:	f0 06 18 00 	cp.b	r6,r8
			drunk_step += (rnd() % 3) - 1; // -1 to 1
800047f6:	c0 65       	brlt	80004802 <clock+0x20a>
800047f8:	30 18       	mov	r8,1
800047fa:	f0 06 18 00 	cp.b	r6,r8
800047fe:	e0 8a 00 03 	brle	80004804 <clock+0x20c>
80004802:	ae 88       	st.b	r7[0x0],r8
80004804:	e0 68 1a 74 	mov	r8,6772
80004808:	e0 6a 1a 53 	mov	r10,6739
			if(drunk_step < -1) drunk_step = -1;
8000480c:	11 89       	ld.ub	r9,r8[0x0]
8000480e:	15 88       	ld.ub	r8,r10[0x0]
80004810:	f2 08 00 08 	add	r8,r9,r8
			else if(drunk_step > 1) drunk_step = 1;
80004814:	5c 58       	castu.b	r8
80004816:	b4 88       	st.b	r10[0x0],r8
80004818:	30 09       	mov	r9,0
8000481a:	f2 08 18 00 	cp.b	r8,r9

			next_pos += drunk_step;
8000481e:	c0 e4       	brge	8000483a <clock+0x242>
80004820:	e0 69 1a 5b 	mov	r9,6747
80004824:	13 8b       	ld.ub	r11,r9[0x0]
80004826:	e0 69 00 ec 	mov	r9,236
8000482a:	f6 09 02 49 	mul	r9,r11,r9
			if(next_pos < 0) 
8000482e:	e0 6b 0b 0c 	mov	r11,2828
80004832:	f6 09 00 09 	add	r9,r11,r9
				next_pos += w.wp[pattern].loop_end;
80004836:	13 99       	ld.ub	r9,r9[0x1]
80004838:	c2 58       	rjmp	80004882 <clock+0x28a>
8000483a:	e0 69 0b 07 	mov	r9,2823
8000483e:	f7 d8 b0 08 	bfexts	r11,r8,0x0,0x8
80004842:	13 8c       	ld.ub	r12,r9[0x0]
80004844:	e0 67 0b 0c 	mov	r7,2828
80004848:	e0 69 1a 5b 	mov	r9,6747
			else if(next_pos > LENGTH) 
8000484c:	18 3b       	cp.w	r11,r12
8000484e:	e0 8a 00 0a 	brle	80004862 <clock+0x26a>
80004852:	13 8b       	ld.ub	r11,r9[0x0]
80004854:	e0 69 00 ec 	mov	r9,236
80004858:	f6 09 02 49 	mul	r9,r11,r9
8000485c:	ee 09 07 09 	ld.ub	r9,r7[r9]
				next_pos -= (LENGTH-w.wp[pattern].loop_start);
80004860:	c2 58       	rjmp	800048aa <clock+0x2b2>
80004862:	13 86       	ld.ub	r6,r9[0x0]
80004864:	e0 69 00 ec 	mov	r9,236
80004868:	ec 09 02 49 	mul	r9,r6,r9
8000486c:	30 16       	mov	r6,1
			else if(w.wp[pattern].loop_dir == 1 && next_pos < w.wp[pattern].loop_start)
8000486e:	ee 09 00 09 	add	r9,r7,r9
80004872:	13 b7       	ld.ub	r7,r9[0x3]
80004874:	ec 07 18 00 	cp.b	r7,r6
80004878:	c1 11       	brne	8000489a <clock+0x2a2>
8000487a:	13 8c       	ld.ub	r12,r9[0x0]
8000487c:	18 3b       	cp.w	r11,r12
8000487e:	c0 54       	brge	80004888 <clock+0x290>
80004880:	13 a9       	ld.ub	r9,r9[0x2]
80004882:	f2 08 00 08 	add	r8,r9,r8
80004886:	c2 e8       	rjmp	800048e2 <clock+0x2ea>
80004888:	13 9c       	ld.ub	r12,r9[0x1]
8000488a:	18 3b       	cp.w	r11,r12
				next_pos += w.wp[pattern].loop_len;
8000488c:	e0 8a 00 2c 	brle	800048e4 <clock+0x2ec>
80004890:	13 a9       	ld.ub	r9,r9[0x2]
80004892:	f0 09 01 09 	sub	r9,r8,r9
			else if(w.wp[pattern].loop_dir == 1 && next_pos > w.wp[pattern].loop_end)
80004896:	b4 89       	st.b	r10[0x0],r9
80004898:	c2 68       	rjmp	800048e4 <clock+0x2ec>
8000489a:	30 26       	mov	r6,2
				next_pos -= w.wp[pattern].loop_len;
8000489c:	ec 07 18 00 	cp.b	r7,r6
800048a0:	c2 21       	brne	800048e4 <clock+0x2ec>
800048a2:	13 87       	ld.ub	r7,r9[0x0]
				next_pos += w.wp[pattern].loop_end;
			else if(next_pos > LENGTH) 
				next_pos -= (LENGTH-w.wp[pattern].loop_start);
			else if(w.wp[pattern].loop_dir == 1 && next_pos < w.wp[pattern].loop_start)
				next_pos += w.wp[pattern].loop_len;
			else if(w.wp[pattern].loop_dir == 1 && next_pos > w.wp[pattern].loop_end)
800048a4:	0e 3b       	cp.w	r11,r7
				next_pos -= w.wp[pattern].loop_len;
			else if(w.wp[pattern].loop_dir == 2 && next_pos < w.wp[pattern].loop_start)
800048a6:	c0 54       	brge	800048b0 <clock+0x2b8>
800048a8:	13 a9       	ld.ub	r9,r9[0x2]
800048aa:	f2 0c 01 0c 	sub	r12,r9,r12
800048ae:	c0 88       	rjmp	800048be <clock+0x2c6>
800048b0:	13 97       	ld.ub	r7,r9[0x1]
800048b2:	0e 3b       	cp.w	r11,r7
				next_pos += w.wp[pattern].loop_len - LENGTH;
800048b4:	e0 8a 00 18 	brle	800048e4 <clock+0x2ec>
800048b8:	5c 3c       	neg	r12
800048ba:	13 a9       	ld.ub	r9,r9[0x2]
			else if(w.wp[pattern].loop_dir == 2 && next_pos > w.wp[pattern].loop_end)
800048bc:	12 1c       	sub	r12,r9
800048be:	f8 08 00 08 	add	r8,r12,r8
800048c2:	c1 08       	rjmp	800048e2 <clock+0x2ea>
				next_pos -= w.wp[pattern].loop_len + LENGTH;
800048c4:	58 39       	cp.w	r9,3
800048c6:	c1 31       	brne	800048ec <clock+0x2f4>
800048c8:	e0 a0 09 3e 	rcall	80005b44 <rnd>
800048cc:	0b 88       	ld.ub	r8,r5[0x0]
800048ce:	f0 06 03 47 	mac	r7,r8,r6
800048d2:	0f a9       	ld.ub	r9,r7[0x2]
800048d4:	2f f9       	sub	r9,-1
800048d6:	f8 09 0d 0a 	divu	r10,r12,r9
800048da:	0f 88       	ld.ub	r8,r7[0x0]
800048dc:	e0 6a 1a 53 	mov	r10,6739
800048e0:	16 08       	add	r8,r11
800048e2:	b4 88       	st.b	r10[0x0],r8
800048e4:	30 19       	mov	r9,1
800048e6:	e0 68 1a 82 	mov	r8,6786

			cut_pos = 1;
 		}
		else if(w.wp[pattern].step_mode == mRandom) {	// RANDOM
800048ea:	b0 89       	st.b	r8[0x0],r9
			next_pos = (rnd() % (w.wp[pattern].loop_len + 1)) + w.wp[pattern].loop_start;
800048ec:	e0 69 0b 06 	mov	r9,2822
800048f0:	e0 68 1a 5b 	mov	r8,6747
800048f4:	f3 2a 00 00 	ld.sb	r10,r9[0]
800048f8:	11 88       	ld.ub	r8,r8[0x0]
800048fa:	e0 69 00 ec 	mov	r9,236
800048fe:	e0 6b 0b 0c 	mov	r11,2828
80004902:	f0 09 02 49 	mul	r9,r8,r9
			cut_pos = 1;
80004906:	f6 09 00 09 	add	r9,r11,r9
8000490a:	13 99       	ld.ub	r9,r9[0x1]
		}

		// next pattern?
		if(pos == w.wp[pattern].loop_end) {
8000490c:	12 3a       	cp.w	r10,r9
8000490e:	c1 41       	brne	80004936 <clock+0x33e>
80004910:	e0 69 1a 88 	mov	r9,6792
80004914:	72 09       	ld.w	r9,r9[0x0]
80004916:	58 29       	cp.w	r9,2
80004918:	c0 41       	brne	80004920 <clock+0x328>
8000491a:	e0 68 1a 8e 	mov	r8,6798
8000491e:	c0 98       	rjmp	80004930 <clock+0x338>
80004920:	e0 69 1a 84 	mov	r9,6788
80004924:	13 89       	ld.ub	r9,r9[0x0]
80004926:	f0 09 18 00 	cp.b	r9,r8
			if(edit_mode == mSeries) 
8000492a:	c0 60       	breq	80004936 <clock+0x33e>
8000492c:	e0 68 1a 76 	mov	r8,6774
80004930:	11 89       	ld.ub	r9,r8[0x0]
				series_jump++;
80004932:	2f f9       	sub	r9,-1
80004934:	b0 89       	st.b	r8[0x0],r9
			else if(next_pattern != pattern)
80004936:	30 08       	mov	r8,0
80004938:	e0 67 1a 79 	mov	r7,6777
8000493c:	ae 88       	st.b	r7[0x0],r8
8000493e:	e0 a0 09 03 	rcall	80005b44 <rnd>
				pattern_jump++;
80004942:	e0 6a 00 ff 	mov	r10,255
80004946:	f8 0a 0d 0a 	divu	r10,r12,r10
		}



		// TRIGGER
		triggered = 0;
8000494a:	e0 68 1a 5b 	mov	r8,6747
		if((rnd() % 255) < w.wp[pattern].step_probs[pos]) {
8000494e:	e0 69 0b 06 	mov	r9,2822
80004952:	11 88       	ld.ub	r8,r8[0x0]
80004954:	f3 29 00 00 	ld.sb	r9,r9[0]
80004958:	16 9a       	mov	r10,r11
8000495a:	e0 66 0b 0c 	mov	r6,2828
8000495e:	e0 6b 00 ec 	mov	r11,236
80004962:	f0 0b 02 4b 	mul	r11,r8,r11
80004966:	ec 0b 00 0b 	add	r11,r6,r11
8000496a:	12 0b       	add	r11,r9
8000496c:	f7 35 00 1c 	ld.ub	r5,r11[28]
80004970:	0a 3a       	cp.w	r10,r5
80004972:	c7 42       	brcc	80004a5a <clock+0x462>
80004974:	f0 0a 15 04 	lsl	r10,r8,0x4
80004978:	10 1a       	sub	r10,r8
8000497a:	a3 6a       	lsl	r10,0x2
8000497c:	f4 08 01 08 	sub	r8,r10,r8
			
			if(w.wp[pattern].step_choice & 1<<pos) {
80004980:	2f f8       	sub	r8,-1
80004982:	ec 08 05 28 	ld.uh	r8,r6[r8<<0x2]
80004986:	f0 09 08 49 	asr	r9,r8,r9
8000498a:	ed b9 00 00 	bld	r9,0x0
8000498e:	c3 f1       	brne	80004a0c <clock+0x414>
80004990:	30 09       	mov	r9,0
80004992:	2f 4b       	sub	r11,-12
80004994:	30 3c       	mov	r12,3
80004996:	12 98       	mov	r8,r9
80004998:	e0 6a 05 e4 	mov	r10,1508
8000499c:	c1 18       	rjmp	800049be <clock+0x3c6>
				count = 0;
				for(i1=0;i1<4;i1++)
					if(w.wp[pattern].steps[pos] >> i1 & 1) {
8000499e:	17 86       	ld.ub	r6,r11[0x0]
		triggered = 0;
		if((rnd() % 255) < w.wp[pattern].step_probs[pos]) {
			
			if(w.wp[pattern].step_choice & 1<<pos) {
				count = 0;
				for(i1=0;i1<4;i1++)
800049a0:	f2 ce ff ff 	sub	lr,r9,-1
					if(w.wp[pattern].steps[pos] >> i1 & 1) {
						found[count] = i1;
800049a4:	f0 c7 ff ff 	sub	r7,r8,-1
		if((rnd() % 255) < w.wp[pattern].step_probs[pos]) {
			
			if(w.wp[pattern].step_choice & 1<<pos) {
				count = 0;
				for(i1=0;i1<4;i1++)
					if(w.wp[pattern].steps[pos] >> i1 & 1) {
800049a8:	ec 09 08 46 	asr	r6,r6,r9
						found[count] = i1;
						count++;
800049ac:	ed b6 00 00 	bld	r6,0x0
800049b0:	c0 51       	brne	800049ba <clock+0x3c2>
		if((rnd() % 255) < w.wp[pattern].step_probs[pos]) {
			
			if(w.wp[pattern].step_choice & 1<<pos) {
				count = 0;
				for(i1=0;i1<4;i1++)
					if(w.wp[pattern].steps[pos] >> i1 & 1) {
800049b2:	f4 08 0a 19 	st.h	r10[r8<<0x1],r9
800049b6:	f1 d7 c0 08 	bfextu	r8,r7,0x0,0x8
800049ba:	f3 de c0 08 	bfextu	r9,lr,0x0,0x8
						found[count] = i1;
800049be:	f8 09 18 00 	cp.b	r9,r12
						count++;
800049c2:	fe 98 ff ee 	brls	8000499e <clock+0x3a6>
800049c6:	e0 65 06 2c 	mov	r5,1580
		triggered = 0;
		if((rnd() % 255) < w.wp[pattern].step_probs[pos]) {
			
			if(w.wp[pattern].step_choice & 1<<pos) {
				count = 0;
				for(i1=0;i1<4;i1++)
800049ca:	e0 6a 05 c4 	mov	r10,1476
800049ce:	aa 88       	st.b	r5[0x0],r8
800049d0:	b4 89       	st.b	r10[0x0],r9
800049d2:	58 08       	cp.w	r8,0
800049d4:	c0 51       	brne	800049de <clock+0x3e6>
800049d6:	e0 69 1a 79 	mov	r9,6777
					if(w.wp[pattern].steps[pos] >> i1 & 1) {
						found[count] = i1;
						count++;
					}

				if(count == 0)
800049da:	b2 88       	st.b	r9[0x0],r8
					triggered = 0;
800049dc:	c1 b8       	rjmp	80004a12 <clock+0x41a>
800049de:	e0 67 05 e4 	mov	r7,1508
800049e2:	e0 66 1a 79 	mov	r6,6777
				else if(count == 1)
800049e6:	30 19       	mov	r9,1
800049e8:	f2 08 18 00 	cp.b	r8,r9
800049ec:	c0 31       	brne	800049f2 <clock+0x3fa>
					triggered = 1<<found[0];
800049ee:	8e 88       	ld.uh	r8,r7[0x0]
800049f0:	c0 88       	rjmp	80004a00 <clock+0x408>
				else
					triggered = 1<<found[rnd()%count];
800049f2:	e0 a0 08 a9 	rcall	80005b44 <rnd>
800049f6:	0b 88       	ld.ub	r8,r5[0x0]
800049f8:	f8 08 0d 08 	divu	r8,r12,r8
800049fc:	ee 09 05 18 	ld.uh	r8,r7[r9<<0x1]
80004a00:	30 19       	mov	r9,1
80004a02:	f2 08 09 48 	lsl	r8,r9,r8
80004a06:	ac 88       	st.b	r6[0x0],r8
80004a08:	c0 58       	rjmp	80004a12 <clock+0x41a>
80004a0a:	d7 03       	nop
80004a0c:	f7 38 00 0c 	ld.ub	r8,r11[12]
80004a10:	ae 88       	st.b	r7[0x0],r8
80004a12:	e0 68 1a 79 	mov	r8,6777
80004a16:	11 88       	ld.ub	r8,r8[0x0]
80004a18:	ed b8 00 00 	bld	r8,0x0
80004a1c:	c0 41       	brne	80004a24 <clock+0x42c>
80004a1e:	32 0c       	mov	r12,32
80004a20:	e0 a0 0c f2 	rcall	80006404 <gpio_set_gpio_pin>
80004a24:	e0 68 1a 79 	mov	r8,6777
80004a28:	11 88       	ld.ub	r8,r8[0x0]
80004a2a:	ed b8 00 01 	bld	r8,0x1
80004a2e:	c0 41       	brne	80004a36 <clock+0x43e>
80004a30:	32 1c       	mov	r12,33
80004a32:	e0 a0 0c e9 	rcall	80006404 <gpio_set_gpio_pin>
80004a36:	e0 68 1a 79 	mov	r8,6777
80004a3a:	11 88       	ld.ub	r8,r8[0x0]
80004a3c:	ed b8 00 02 	bld	r8,0x2
80004a40:	c0 41       	brne	80004a48 <clock+0x450>
80004a42:	32 2c       	mov	r12,34
			}	
			else {
				triggered = w.wp[pattern].steps[pos];
80004a44:	e0 a0 0c e0 	rcall	80006404 <gpio_set_gpio_pin>
80004a48:	e0 68 1a 79 	mov	r8,6777
			}
			
			if(triggered & 0x1) gpio_set_gpio_pin(B00);
80004a4c:	11 88       	ld.ub	r8,r8[0x0]
80004a4e:	ed b8 00 03 	bld	r8,0x3
80004a52:	c0 41       	brne	80004a5a <clock+0x462>
80004a54:	32 3c       	mov	r12,35
80004a56:	e0 a0 0c d7 	rcall	80006404 <gpio_set_gpio_pin>
			if(triggered & 0x2) gpio_set_gpio_pin(B01);
80004a5a:	e0 68 07 66 	mov	r8,1894
80004a5e:	11 89       	ld.ub	r9,r8[0x0]
80004a60:	2f f9       	sub	r9,-1
80004a62:	b0 89       	st.b	r8[0x0],r9
80004a64:	e0 a0 08 70 	rcall	80005b44 <rnd>
80004a68:	e0 6a 00 ff 	mov	r10,255
			if(triggered & 0x4) gpio_set_gpio_pin(B02);
80004a6c:	f8 0a 0d 0a 	divu	r10,r12,r10
80004a70:	e0 68 1a 5b 	mov	r8,6747
80004a74:	e0 69 0b 06 	mov	r9,2822
80004a78:	11 88       	ld.ub	r8,r8[0x0]
			if(triggered & 0x8) gpio_set_gpio_pin(B03);
80004a7a:	f3 29 00 00 	ld.sb	r9,r9[0]
80004a7e:	16 9a       	mov	r10,r11
80004a80:	e0 6c 00 ec 	mov	r12,236
80004a84:	e0 6b 0b 0c 	mov	r11,2828
80004a88:	f0 0c 02 4c 	mul	r12,r8,r12
		}

		monomeFrameDirty++;
80004a8c:	f6 0c 00 0c 	add	r12,r11,r12
80004a90:	12 0c       	add	r12,r9


		// PARAM 0
		if((rnd() % 255) < w.wp[pattern].cv_probs[0][pos]) {
80004a92:	f9 37 00 cc 	ld.ub	r7,r12[204]
80004a96:	0e 3a       	cp.w	r10,r7
80004a98:	c5 f2       	brcc	80004b56 <clock+0x55e>
80004a9a:	f0 0a 15 04 	lsl	r10,r8,0x4
80004a9e:	10 1a       	sub	r10,r8
80004aa0:	a3 6a       	lsl	r10,0x2
80004aa2:	10 1a       	sub	r10,r8
80004aa4:	f6 0a 00 2a 	add	r10,r11,r10<<0x2
80004aa8:	15 ec       	ld.ub	r12,r10[0x6]
80004aaa:	30 0a       	mov	r10,0
80004aac:	f4 0c 18 00 	cp.b	r12,r10
80004ab0:	c0 91       	brne	80004ac2 <clock+0x4ca>
80004ab2:	f0 08 10 76 	mul	r8,r8,118
80004ab6:	f0 09 00 09 	add	r9,r8,r9
80004aba:	2b a9       	sub	r9,-70
80004abc:	f6 09 04 19 	ld.sh	r9,r11[r9<<0x1]
80004ac0:	c4 88       	rjmp	80004b50 <clock+0x558>
			if(w.wp[pattern].cv_mode[0] == 0) {
80004ac2:	f0 08 10 76 	mul	r8,r8,118
80004ac6:	30 0a       	mov	r10,0
80004ac8:	f0 09 00 09 	add	r9,r8,r9
80004acc:	30 f7       	mov	r7,15
80004ace:	16 98       	mov	r8,r11
80004ad0:	2d a9       	sub	r9,-38
80004ad2:	14 9b       	mov	r11,r10
80004ad4:	e0 6c 05 e4 	mov	r12,1508
80004ad8:	c1 28       	rjmp	80004afc <clock+0x504>
				cv0 = w.wp[pattern].cv_curves[0][pos];
80004ada:	f0 09 05 15 	ld.uh	r5,r8[r9<<0x1]
80004ade:	f4 ce ff ff 	sub	lr,r10,-1
80004ae2:	f6 c6 ff ff 	sub	r6,r11,-1
80004ae6:	ea 0a 08 45 	asr	r5,r5,r10
			}
			else {
				count = 0;
				for(i1=0;i1<16;i1++)
					if(w.wp[pattern].cv_steps[0][pos] & (1<<i1)) {
80004aea:	ed b5 00 00 	bld	r5,0x0


		// PARAM 0
		if((rnd() % 255) < w.wp[pattern].cv_probs[0][pos]) {
			if(w.wp[pattern].cv_mode[0] == 0) {
				cv0 = w.wp[pattern].cv_curves[0][pos];
80004aee:	c0 51       	brne	80004af8 <clock+0x500>
			}
			else {
				count = 0;
				for(i1=0;i1<16;i1++)
					if(w.wp[pattern].cv_steps[0][pos] & (1<<i1)) {
80004af0:	f8 0b 0a 1a 	st.h	r12[r11<<0x1],r10
			if(w.wp[pattern].cv_mode[0] == 0) {
				cv0 = w.wp[pattern].cv_curves[0][pos];
			}
			else {
				count = 0;
				for(i1=0;i1<16;i1++)
80004af4:	f7 d6 c0 08 	bfextu	r11,r6,0x0,0x8
					if(w.wp[pattern].cv_steps[0][pos] & (1<<i1)) {
80004af8:	f5 de c0 08 	bfextu	r10,lr,0x0,0x8
						found[count] = i1;
80004afc:	ee 0a 18 00 	cp.b	r10,r7
				cv0 = w.wp[pattern].cv_curves[0][pos];
			}
			else {
				count = 0;
				for(i1=0;i1<16;i1++)
					if(w.wp[pattern].cv_steps[0][pos] & (1<<i1)) {
80004b00:	fe 98 ff ed 	brls	80004ada <clock+0x4e2>
						found[count] = i1;
						count++;
80004b04:	e0 68 05 c4 	mov	r8,1476
80004b08:	e0 65 06 2c 	mov	r5,1580
				cv0 = w.wp[pattern].cv_curves[0][pos];
			}
			else {
				count = 0;
				for(i1=0;i1<16;i1++)
					if(w.wp[pattern].cv_steps[0][pos] & (1<<i1)) {
80004b0c:	b0 8a       	st.b	r8[0x0],r10
80004b0e:	aa 8b       	st.b	r5[0x0],r11
80004b10:	e0 67 05 e4 	mov	r7,1508
80004b14:	e0 66 1a 58 	mov	r6,6744
						found[count] = i1;
80004b18:	30 18       	mov	r8,1
						count++;
80004b1a:	f0 0b 18 00 	cp.b	r11,r8
80004b1e:	c0 31       	brne	80004b24 <clock+0x52c>
80004b20:	8e 08       	ld.sh	r8,r7[0x0]
			if(w.wp[pattern].cv_mode[0] == 0) {
				cv0 = w.wp[pattern].cv_curves[0][pos];
			}
			else {
				count = 0;
				for(i1=0;i1<16;i1++)
80004b22:	c0 88       	rjmp	80004b32 <clock+0x53a>
80004b24:	e0 a0 08 10 	rcall	80005b44 <rnd>
80004b28:	0b 88       	ld.ub	r8,r5[0x0]
80004b2a:	f8 08 0d 08 	divu	r8,r12,r8
80004b2e:	ee 09 04 18 	ld.sh	r8,r7[r9<<0x1]
80004b32:	ac 88       	st.b	r6[0x0],r8
80004b34:	e0 68 1a 58 	mov	r8,6744
					if(w.wp[pattern].cv_steps[0][pos] & (1<<i1)) {
						found[count] = i1;
						count++;
					}
				if(count == 1) 
80004b38:	11 88       	ld.ub	r8,r8[0x0]
80004b3a:	e0 69 1a 5b 	mov	r9,6747
					cv_chosen[0] = found[0];
80004b3e:	13 89       	ld.ub	r9,r9[0x0]
80004b40:	f2 09 10 76 	mul	r9,r9,118
80004b44:	10 09       	add	r9,r8
80004b46:	e0 68 0b 0c 	mov	r8,2828
80004b4a:	2e a9       	sub	r9,-22
80004b4c:	f0 09 04 19 	ld.sh	r9,r8[r9<<0x1]
80004b50:	e0 68 1a 56 	mov	r8,6742
80004b54:	b0 09       	st.h	r8[0x0],r9
80004b56:	e0 a0 07 f7 	rcall	80005b44 <rnd>
80004b5a:	e0 68 1a 5b 	mov	r8,6747
80004b5e:	e0 6a 00 ff 	mov	r10,255
80004b62:	f8 0a 0d 0a 	divu	r10,r12,r10
80004b66:	11 89       	ld.ub	r9,r8[0x0]
80004b68:	16 9a       	mov	r10,r11
80004b6a:	e0 68 0b 06 	mov	r8,2822
80004b6e:	e0 6b 0b 0c 	mov	r11,2828
				else
					cv_chosen[0] = found[rnd() % count];
80004b72:	f1 28 00 00 	ld.sb	r8,r8[0]
80004b76:	e0 67 00 ec 	mov	r7,236
80004b7a:	f2 07 02 47 	mul	r7,r9,r7
80004b7e:	f6 07 00 07 	add	r7,r11,r7
				cv0 = w.wp[pattern].cv_values[cv_chosen[0]];			
80004b82:	ee 08 00 0c 	add	r12,r7,r8
80004b86:	f9 36 00 dc 	ld.ub	r6,r12[220]
80004b8a:	0c 3a       	cp.w	r10,r6
80004b8c:	c5 92       	brcc	80004c3e <clock+0x646>
80004b8e:	0f fc       	ld.ub	r12,r7[0x7]
80004b90:	30 0a       	mov	r10,0
80004b92:	f4 0c 18 00 	cp.b	r12,r10
80004b96:	c0 91       	brne	80004ba8 <clock+0x5b0>
80004b98:	f2 09 10 76 	mul	r9,r9,118
			}
		}

		// PARAM 1
		if((rnd() % 255) < w.wp[pattern].cv_probs[1][pos]) {
80004b9c:	f2 08 00 08 	add	r8,r9,r8
80004ba0:	2a a8       	sub	r8,-86
80004ba2:	f6 08 04 19 	ld.sh	r9,r11[r8<<0x1]
80004ba6:	c4 98       	rjmp	80004c38 <clock+0x640>
80004ba8:	f2 09 10 76 	mul	r9,r9,118
80004bac:	30 0a       	mov	r10,0
80004bae:	f2 08 00 08 	add	r8,r9,r8
80004bb2:	30 f7       	mov	r7,15
80004bb4:	16 99       	mov	r9,r11
80004bb6:	2c a8       	sub	r8,-54
80004bb8:	14 9b       	mov	r11,r10
80004bba:	e0 6c 05 e4 	mov	r12,1508
80004bbe:	c1 28       	rjmp	80004be2 <clock+0x5ea>
80004bc0:	f2 08 05 1e 	ld.uh	lr,r9[r8<<0x1]
80004bc4:	f4 c6 ff ff 	sub	r6,r10,-1
80004bc8:	f6 c5 ff ff 	sub	r5,r11,-1
			if(w.wp[pattern].cv_mode[1] == 0) {
80004bcc:	fc 0a 08 4e 	asr	lr,lr,r10
80004bd0:	ed be 00 00 	bld	lr,0x0
80004bd4:	c0 51       	brne	80004bde <clock+0x5e6>
				cv1 = w.wp[pattern].cv_curves[1][pos];
80004bd6:	f8 0b 0a 1a 	st.h	r12[r11<<0x1],r10
80004bda:	f7 d5 c0 08 	bfextu	r11,r5,0x0,0x8
80004bde:	f5 d6 c0 08 	bfextu	r10,r6,0x0,0x8
80004be2:	ee 0a 18 00 	cp.b	r10,r7
			}
			else {
				count = 0;
				for(i1=0;i1<16;i1++)
					if(w.wp[pattern].cv_steps[1][pos] & (1<<i1)) {
80004be6:	fe 98 ff ed 	brls	80004bc0 <clock+0x5c8>
		}

		// PARAM 1
		if((rnd() % 255) < w.wp[pattern].cv_probs[1][pos]) {
			if(w.wp[pattern].cv_mode[1] == 0) {
				cv1 = w.wp[pattern].cv_curves[1][pos];
80004bea:	e0 68 05 c4 	mov	r8,1476
			}
			else {
				count = 0;
				for(i1=0;i1<16;i1++)
					if(w.wp[pattern].cv_steps[1][pos] & (1<<i1)) {
80004bee:	e0 65 06 2c 	mov	r5,1580
80004bf2:	b0 8a       	st.b	r8[0x0],r10
80004bf4:	aa 8b       	st.b	r5[0x0],r11
		}

		// PARAM 1
		if((rnd() % 255) < w.wp[pattern].cv_probs[1][pos]) {
			if(w.wp[pattern].cv_mode[1] == 0) {
				cv1 = w.wp[pattern].cv_curves[1][pos];
80004bf6:	e0 67 05 e4 	mov	r7,1508
			}
			else {
				count = 0;
				for(i1=0;i1<16;i1++)
80004bfa:	e0 66 1a 58 	mov	r6,6744
					if(w.wp[pattern].cv_steps[1][pos] & (1<<i1)) {
80004bfe:	30 18       	mov	r8,1
						found[count] = i1;
						count++;
80004c00:	f0 0b 18 00 	cp.b	r11,r8
80004c04:	c0 41       	brne	80004c0c <clock+0x614>
80004c06:	8e 08       	ld.sh	r8,r7[0x0]
				cv1 = w.wp[pattern].cv_curves[1][pos];
			}
			else {
				count = 0;
				for(i1=0;i1<16;i1++)
					if(w.wp[pattern].cv_steps[1][pos] & (1<<i1)) {
80004c08:	c0 98       	rjmp	80004c1a <clock+0x622>
80004c0a:	d7 03       	nop
80004c0c:	e0 a0 07 9c 	rcall	80005b44 <rnd>
80004c10:	0b 88       	ld.ub	r8,r5[0x0]
						found[count] = i1;
80004c12:	f8 08 0d 08 	divu	r8,r12,r8
						count++;
80004c16:	ee 09 04 18 	ld.sh	r8,r7[r9<<0x1]
80004c1a:	ac 98       	st.b	r6[0x1],r8
80004c1c:	e0 68 1a 58 	mov	r8,6744
			if(w.wp[pattern].cv_mode[1] == 0) {
				cv1 = w.wp[pattern].cv_curves[1][pos];
			}
			else {
				count = 0;
				for(i1=0;i1<16;i1++)
80004c20:	11 98       	ld.ub	r8,r8[0x1]
80004c22:	e0 69 1a 5b 	mov	r9,6747
80004c26:	13 89       	ld.ub	r9,r9[0x0]
80004c28:	f2 09 10 76 	mul	r9,r9,118
80004c2c:	10 09       	add	r9,r8
80004c2e:	e0 68 0b 0c 	mov	r8,2828
					if(w.wp[pattern].cv_steps[1][pos] & (1<<i1)) {
						found[count] = i1;
						count++;
					}
				if(count == 1) 
80004c32:	2e a9       	sub	r9,-22
80004c34:	f0 09 04 19 	ld.sh	r9,r8[r9<<0x1]
80004c38:	e0 68 1a 6a 	mov	r8,6762
					cv_chosen[1] = found[0];
80004c3c:	b0 09       	st.h	r8[0x0],r9
80004c3e:	30 0b       	mov	r11,0
80004c40:	fe 7c 24 00 	mov	r12,-56320
80004c44:	e0 a0 0c e8 	rcall	80006614 <spi_selectChip>
80004c48:	33 1b       	mov	r11,49
80004c4a:	fe 7c 24 00 	mov	r12,-56320
80004c4e:	e0 a0 0d 72 	rcall	80006732 <spi_write>
80004c52:	fe 7c 24 00 	mov	r12,-56320
80004c56:	e0 67 1a 56 	mov	r7,6742
80004c5a:	8e 8b       	ld.uh	r11,r7[0x0]
80004c5c:	a5 8b       	lsr	r11,0x4
80004c5e:	e0 a0 0d 6a 	rcall	80006732 <spi_write>
80004c62:	8e 0b       	ld.sh	r11,r7[0x0]
				else
					cv_chosen[1] = found[rnd() % count];
80004c64:	fe 7c 24 00 	mov	r12,-56320
80004c68:	a5 6b       	lsl	r11,0x4
80004c6a:	e2 1b ff f0 	andl	r11,0xfff0,COH
80004c6e:	e0 a0 0d 62 	rcall	80006732 <spi_write>
80004c72:	30 0b       	mov	r11,0

				cv1 = w.wp[pattern].cv_values[cv_chosen[1]];			
80004c74:	fe 7c 24 00 	mov	r12,-56320
80004c78:	e0 a0 0c f6 	rcall	80006664 <spi_unselectChip>
80004c7c:	30 0b       	mov	r11,0
80004c7e:	fe 7c 24 00 	mov	r12,-56320
80004c82:	e0 a0 0c c9 	rcall	80006614 <spi_selectChip>
80004c86:	33 8b       	mov	r11,56
80004c88:	fe 7c 24 00 	mov	r12,-56320
80004c8c:	e0 a0 0d 53 	rcall	80006732 <spi_write>
			}
		}


		// write to DAC
		spi_selectChip(SPI,DAC_SPI);
80004c90:	fe 7c 24 00 	mov	r12,-56320
80004c94:	e0 67 1a 6a 	mov	r7,6762
		 // spi_write(SPI,0x39);	// update both
		spi_write(SPI,0x31);	// update A
80004c98:	8e 8b       	ld.uh	r11,r7[0x0]
80004c9a:	a5 8b       	lsr	r11,0x4
80004c9c:	e0 a0 0d 4b 	rcall	80006732 <spi_write>
80004ca0:	8e 0b       	ld.sh	r11,r7[0x0]
		// spi_write(SPI,0x38);	// update B
		// spi_write(SPI,pos*15);	// send position
 		// spi_write(SPI,0);
 		spi_write(SPI,cv0>>4);
80004ca2:	fe 7c 24 00 	mov	r12,-56320
80004ca6:	a5 6b       	lsl	r11,0x4
80004ca8:	e2 1b ff f0 	andl	r11,0xfff0,COH
80004cac:	e0 a0 0d 43 	rcall	80006732 <spi_write>
 		spi_write(SPI,cv0<<4);
80004cb0:	30 0b       	mov	r11,0
80004cb2:	fe 7c 24 00 	mov	r12,-56320
80004cb6:	e0 a0 0c d7 	rcall	80006664 <spi_unselectChip>
80004cba:	d8 22       	popm	r4-r7,pc
80004cbc:	32 ac       	mov	r12,42
80004cbe:	e0 a0 0b b0 	rcall	8000641e <gpio_clr_gpio_pin>
		spi_unselectChip(SPI,DAC_SPI);
80004cc2:	32 0c       	mov	r12,32
80004cc4:	e0 a0 0b ad 	rcall	8000641e <gpio_clr_gpio_pin>
80004cc8:	32 1c       	mov	r12,33

		spi_selectChip(SPI,DAC_SPI);
80004cca:	e0 a0 0b aa 	rcall	8000641e <gpio_clr_gpio_pin>
80004cce:	32 2c       	mov	r12,34
80004cd0:	e0 a0 0b a7 	rcall	8000641e <gpio_clr_gpio_pin>
		spi_write(SPI,0x38);	// update B
80004cd4:	32 3c       	mov	r12,35
80004cd6:	e0 a0 0b a4 	rcall	8000641e <gpio_clr_gpio_pin>
80004cda:	d8 22       	popm	r4-r7,pc

80004cdc <timers_unset_monome>:
80004cdc:	d4 01       	pushm	lr
		spi_write(SPI,cv1>>4);
80004cde:	e0 6c 05 6c 	mov	r12,1388
80004ce2:	e0 a0 06 bd 	rcall	80005a5c <timer_remove>
80004ce6:	e0 6c 06 30 	mov	r12,1584
80004cea:	e0 a0 06 b9 	rcall	80005a5c <timer_remove>
		spi_write(SPI,cv1<<4);
80004cee:	d8 02       	popm	pc

80004cf0 <handler_FtdiDisconnect>:
80004cf0:	d4 01       	pushm	lr
80004cf2:	cf 5f       	rcall	80004cdc <timers_unset_monome>
80004cf4:	d8 02       	popm	pc
80004cf6:	d7 03       	nop

80004cf8 <monome_poll_timer_callback>:
80004cf8:	d4 01       	pushm	lr
80004cfa:	e0 a0 07 8b 	rcall	80005c10 <ftdi_read>
		spi_unselectChip(SPI,DAC_SPI);
80004cfe:	d8 02       	popm	pc

80004d00 <init_adc>:
  (*dst)[3] = val & 0xfff;

}

// setup ad7923
void init_adc(void) {
80004d00:	d4 21       	pushm	r4-r7,lr
  u16 cmd;

  // at powerup, the part wants a dummy conversion with DIN high
  spi_selectChip(SPI, ADC_SPI);
80004d02:	30 1b       	mov	r11,1
80004d04:	fe 7c 24 00 	mov	r12,-56320
80004d08:	e0 a0 0c 86 	rcall	80006614 <spi_selectChip>
  spi_write(SPI, 0xffff);
80004d0c:	e0 6b ff ff 	mov	r11,65535
80004d10:	fe 7c 24 00 	mov	r12,-56320
80004d14:	e0 a0 0d 0f 	rcall	80006732 <spi_write>
  spi_unselectChip(SPI, ADC_SPI);
80004d18:	30 1b       	mov	r11,1
80004d1a:	fe 7c 24 00 	mov	r12,-56320
80004d1e:	e0 a0 0c a3 	rcall	80006664 <spi_unselectChip>
 * \param  delay:   (input) delay in CPU cycles before timeout.
 * \param  cpu_time: (output) internal information used by the timer API.
 */
__always_inline static void cpu_set_timeout(unsigned long delay, t_cpu_time *cpu_time)
{
  cpu_time->delay_start_cycle = Get_system_register(AVR32_COUNT);
80004d22:	e1 b7 00 42 	mfsr	r7,0x108
  cpu_time->delay_end_cycle   = cpu_time->delay_start_cycle + delay;
80004d26:	ee 78 42 40 	mov	r8,1000000
80004d2a:	30 09       	mov	r9,0
80004d2c:	e0 6a e5 3f 	mov	r10,58687
80004d30:	ea 1a 11 f0 	orh	r10,0x11f0
80004d34:	30 0b       	mov	r11,0
80004d36:	e0 a0 1b af 	rcall	80008494 <__avr32_udiv64>
80004d3a:	ee 0a 00 0a 	add	r10,r7,r10
 *
 * \return true if timeout occurred, otherwise false.
 */
__always_inline static unsigned long cpu_is_timeout(t_cpu_time *cpu_time)
{
  unsigned long current_cycle_count = Get_system_register(AVR32_COUNT);
80004d3e:	e1 b8 00 42 	mfsr	r8,0x108
  // Test if the timeout as already occurred.
  else if (cpu_time->timer_state == CPU_TIMER_STATE_REACHED)
    return true;

  // If the ending cycle count of this timeout is wrapped, ...
  else if (cpu_time->delay_start_cycle > cpu_time->delay_end_cycle)
80004d42:	14 37       	cp.w	r7,r10
80004d44:	e0 88 00 05 	brls	80004d4e <init_adc+0x4e>
  {
    if (current_cycle_count < cpu_time->delay_start_cycle && current_cycle_count > cpu_time->delay_end_cycle)
80004d48:	0e 38       	cp.w	r8,r7
80004d4a:	cf a2       	brcc	80004d3e <init_adc+0x3e>
80004d4c:	c0 38       	rjmp	80004d52 <init_adc+0x52>
    }
    return false;
  }
  else
  {
    if (current_cycle_count < cpu_time->delay_start_cycle || current_cycle_count > cpu_time->delay_end_cycle)
80004d4e:	0e 38       	cp.w	r8,r7
80004d50:	c0 43       	brcs	80004d58 <init_adc+0x58>
80004d52:	14 38       	cp.w	r8,r10
80004d54:	fe 98 ff f5 	brls	80004d3e <init_adc+0x3e>
  // wait for powerup time (5us in datasheet)
  delay_us(5);
  
  // write base configuration
  cmd = AD7923_CMD_BASE << 4;
  spi_selectChip(SPI, ADC_SPI );
80004d58:	30 1b       	mov	r11,1
80004d5a:	fe 7c 24 00 	mov	r12,-56320
80004d5e:	e0 a0 0c 5b 	rcall	80006614 <spi_selectChip>
  spi_write(SPI, cmd );
80004d62:	e0 6b 83 10 	mov	r11,33552
80004d66:	fe 7c 24 00 	mov	r12,-56320
80004d6a:	e0 a0 0c e4 	rcall	80006732 <spi_write>
  spi_unselectChip(SPI, ADC_SPI );
80004d6e:	30 1b       	mov	r11,1
80004d70:	fe 7c 24 00 	mov	r12,-56320
80004d74:	e0 a0 0c 78 	rcall	80006664 <spi_unselectChip>

}
80004d78:	d8 22       	popm	r4-r7,pc
80004d7a:	d7 03       	nop

80004d7c <adc_convert>:
80004d7c:	d4 21       	pushm	r4-r7,lr
80004d7e:	20 1d       	sub	sp,4
80004d80:	30 1b       	mov	r11,1
80004d82:	18 97       	mov	r7,r12
80004d84:	fe 7c 24 00 	mov	r12,-56320
80004d88:	e0 a0 0c 46 	rcall	80006614 <spi_selectChip>

  // data into AD7923 is a left-justified 12-bit value in a 16-bit word
  // so, always lshift the command before sending
  cmd = ( AD7923_CMD_BASE ) << 4;
  spi_selectChip(SPI, ADC_SPI);
  spi_write(SPI, cmd);
80004d8c:	e0 6b 83 10 	mov	r11,33552
80004d90:	fe 7c 24 00 	mov	r12,-56320
80004d94:	e0 a0 0c cf 	rcall	80006732 <spi_write>
  spi_unselectChip(SPI, ADC_SPI);
80004d98:	30 1b       	mov	r11,1
80004d9a:	fe 7c 24 00 	mov	r12,-56320
80004d9e:	e0 a0 0c 63 	rcall	80006664 <spi_unselectChip>

  // get channel 0, setup channel 1
  cmd = ( AD7923_CMD_BASE | AD7923_CTL_ADD0 ) << 4;
  spi_selectChip(SPI, ADC_SPI);
80004da2:	30 1b       	mov	r11,1
80004da4:	fe 7c 24 00 	mov	r12,-56320
80004da8:	e0 a0 0c 36 	rcall	80006614 <spi_selectChip>
  spi_write(SPI, cmd);
80004dac:	e0 6b 87 10 	mov	r11,34576
80004db0:	fe 7c 24 00 	mov	r12,-56320
80004db4:	e0 a0 0c bf 	rcall	80006732 <spi_write>
  spi_read(SPI, &val);
80004db8:	fa c6 ff fe 	sub	r6,sp,-2
80004dbc:	fe 7c 24 00 	mov	r12,-56320
80004dc0:	0c 9b       	mov	r11,r6
80004dc2:	e0 a0 0c c6 	rcall	8000674e <spi_read>
  spi_unselectChip(SPI, ADC_SPI);
80004dc6:	30 1b       	mov	r11,1
80004dc8:	fe 7c 24 00 	mov	r12,-56320
80004dcc:	e0 a0 0c 4c 	rcall	80006664 <spi_unselectChip>
  (*dst)[0] = val & 0xfff; 
80004dd0:	9a 18       	ld.sh	r8,sp[0x2]
80004dd2:	f1 d8 c0 0c 	bfextu	r8,r8,0x0,0xc

  // get channel 1, setup channel 2
  cmd = ( AD7923_CMD_BASE | AD7923_CTL_ADD1 ) << 4;
  spi_selectChip(SPI, ADC_SPI);
80004dd6:	30 1b       	mov	r11,1
  cmd = ( AD7923_CMD_BASE | AD7923_CTL_ADD0 ) << 4;
  spi_selectChip(SPI, ADC_SPI);
  spi_write(SPI, cmd);
  spi_read(SPI, &val);
  spi_unselectChip(SPI, ADC_SPI);
  (*dst)[0] = val & 0xfff; 
80004dd8:	ae 08       	st.h	r7[0x0],r8

  // get channel 1, setup channel 2
  cmd = ( AD7923_CMD_BASE | AD7923_CTL_ADD1 ) << 4;
  spi_selectChip(SPI, ADC_SPI);
80004dda:	fe 7c 24 00 	mov	r12,-56320
80004dde:	e0 a0 0c 1b 	rcall	80006614 <spi_selectChip>
  spi_write(SPI, cmd);
80004de2:	e0 6b 8b 10 	mov	r11,35600
80004de6:	fe 7c 24 00 	mov	r12,-56320
80004dea:	e0 a0 0c a4 	rcall	80006732 <spi_write>
  spi_read(SPI, &val);
80004dee:	0c 9b       	mov	r11,r6
80004df0:	fe 7c 24 00 	mov	r12,-56320
80004df4:	e0 a0 0c ad 	rcall	8000674e <spi_read>
  spi_unselectChip(SPI, ADC_SPI);
80004df8:	30 1b       	mov	r11,1
80004dfa:	fe 7c 24 00 	mov	r12,-56320
80004dfe:	e0 a0 0c 33 	rcall	80006664 <spi_unselectChip>
  (*dst)[1] = val & 0xfff;
80004e02:	9a 18       	ld.sh	r8,sp[0x2]
80004e04:	f1 d8 c0 0c 	bfextu	r8,r8,0x0,0xc

  // get channel 2, setup channel 3
  cmd = ( AD7923_CMD_BASE | AD7923_CTL_ADD1 | AD7923_CTL_ADD0 ) << 4;
  spi_selectChip(SPI, ADC_SPI);
80004e08:	30 1b       	mov	r11,1
  cmd = ( AD7923_CMD_BASE | AD7923_CTL_ADD1 ) << 4;
  spi_selectChip(SPI, ADC_SPI);
  spi_write(SPI, cmd);
  spi_read(SPI, &val);
  spi_unselectChip(SPI, ADC_SPI);
  (*dst)[1] = val & 0xfff;
80004e0a:	ae 18       	st.h	r7[0x2],r8

  // get channel 2, setup channel 3
  cmd = ( AD7923_CMD_BASE | AD7923_CTL_ADD1 | AD7923_CTL_ADD0 ) << 4;
  spi_selectChip(SPI, ADC_SPI);
80004e0c:	fe 7c 24 00 	mov	r12,-56320
80004e10:	e0 a0 0c 02 	rcall	80006614 <spi_selectChip>
  spi_write(SPI, cmd);
80004e14:	e0 6b 8f 10 	mov	r11,36624
80004e18:	fe 7c 24 00 	mov	r12,-56320
80004e1c:	e0 a0 0c 8b 	rcall	80006732 <spi_write>
  spi_read(SPI, &val);
80004e20:	0c 9b       	mov	r11,r6
80004e22:	fe 7c 24 00 	mov	r12,-56320
80004e26:	e0 a0 0c 94 	rcall	8000674e <spi_read>
  spi_unselectChip(SPI, ADC_SPI);
80004e2a:	30 1b       	mov	r11,1
80004e2c:	fe 7c 24 00 	mov	r12,-56320
80004e30:	e0 a0 0c 1a 	rcall	80006664 <spi_unselectChip>
  (*dst)[2] = val & 0xfff;
80004e34:	9a 18       	ld.sh	r8,sp[0x2]
80004e36:	f1 d8 c0 0c 	bfextu	r8,r8,0x0,0xc

  // get channel 3, dummy write
  cmd = ( AD7923_CMD_BASE ) << 4;
  spi_selectChip(SPI, ADC_SPI);
80004e3a:	30 1b       	mov	r11,1
  cmd = ( AD7923_CMD_BASE | AD7923_CTL_ADD1 | AD7923_CTL_ADD0 ) << 4;
  spi_selectChip(SPI, ADC_SPI);
  spi_write(SPI, cmd);
  spi_read(SPI, &val);
  spi_unselectChip(SPI, ADC_SPI);
  (*dst)[2] = val & 0xfff;
80004e3c:	ae 28       	st.h	r7[0x4],r8

  // get channel 3, dummy write
  cmd = ( AD7923_CMD_BASE ) << 4;
  spi_selectChip(SPI, ADC_SPI);
80004e3e:	fe 7c 24 00 	mov	r12,-56320
80004e42:	e0 a0 0b e9 	rcall	80006614 <spi_selectChip>
  spi_write(SPI, cmd);
80004e46:	e0 6b 83 10 	mov	r11,33552
80004e4a:	fe 7c 24 00 	mov	r12,-56320
80004e4e:	e0 a0 0c 72 	rcall	80006732 <spi_write>
  spi_read(SPI, &val);
80004e52:	0c 9b       	mov	r11,r6
80004e54:	fe 7c 24 00 	mov	r12,-56320
80004e58:	e0 a0 0c 7b 	rcall	8000674e <spi_read>
  spi_unselectChip(SPI, ADC_SPI);
80004e5c:	30 1b       	mov	r11,1
80004e5e:	fe 7c 24 00 	mov	r12,-56320
80004e62:	e0 a0 0c 01 	rcall	80006664 <spi_unselectChip>
  (*dst)[3] = val & 0xfff;
80004e66:	9a 18       	ld.sh	r8,sp[0x2]
80004e68:	f1 d8 c0 0c 	bfextu	r8,r8,0x0,0xc
80004e6c:	ae 38       	st.h	r7[0x6],r8

}
80004e6e:	2f fd       	sub	sp,-4
80004e70:	d8 22       	popm	r4-r7,pc
80004e72:	d7 03       	nop

80004e74 <init_events>:
// initializes (or re-initializes)  the system event queue.
 void init_events( void ) {
  int k;
  
  // set queue (circular list) to empty
  putIdx = 0;
80004e74:	e0 6a 06 48 	mov	r10,1608
80004e78:	30 08       	mov	r8,0
  getIdx = 0;
80004e7a:	95 08       	st.w	r10[0x0],r8

  // zero out the event records
  for ( k = 0; k < MAX_EVENTS; k++ ) {
    sysEvents[ k ].type = 0;
80004e7c:	e0 6a 06 4c 	mov	r10,1612
 void init_events( void ) {
  int k;
  
  // set queue (circular list) to empty
  putIdx = 0;
  getIdx = 0;
80004e80:	10 99       	mov	r9,r8

// The system event queue is a circular array of event records.
 static event_t sysEvents[ MAX_EVENTS ];

// initializes (or re-initializes)  the system event queue.
 void init_events( void ) {
80004e82:	95 08       	st.w	r10[0x0],r8
80004e84:	e0 68 06 50 	mov	r8,1616
  getIdx = 0;

  // zero out the event records
  for ( k = 0; k < MAX_EVENTS; k++ ) {
    sysEvents[ k ].type = 0;
    sysEvents[ k ].data = 0;
80004e88:	f0 ca ff 00 	sub	r10,r8,-256
  // set queue (circular list) to empty
  putIdx = 0;
  getIdx = 0;

  // zero out the event records
  for ( k = 0; k < MAX_EVENTS; k++ ) {
80004e8c:	91 09       	st.w	r8[0x0],r9
80004e8e:	91 19       	st.w	r8[0x4],r9
    sysEvents[ k ].type = 0;
    sysEvents[ k ].data = 0;
  }
}
80004e90:	2f 88       	sub	r8,-8
80004e92:	14 38       	cp.w	r8,r10
80004e94:	cf c1       	brne	80004e8c <init_events+0x18>
80004e96:	5e fc       	retal	r12

80004e98 <event_post>:
80004e98:	d4 01       	pushm	lr
80004e9a:	d3 43       	ssrf	0x14
80004e9c:	e0 68 06 48 	mov	r8,1608

  cpu_irq_disable_level(APP_TC_IRQ_PRIORITY);
  
  // increment write idx, posbily wrapping
  saveIndex = putIdx;
  INCR_EVENT_INDEX( putIdx );
80004ea0:	70 0a       	ld.w	r10,r8[0x0]
80004ea2:	f4 c9 ff ff 	sub	r9,r10,-1
80004ea6:	91 09       	st.w	r8[0x0],r9
80004ea8:	e0 49 00 20 	cp.w	r9,32
80004eac:	c0 31       	brne	80004eb2 <event_post+0x1a>
80004eae:	30 09       	mov	r9,0
  if ( putIdx != getIdx  ) {
80004eb0:	91 09       	st.w	r8[0x0],r9
80004eb2:	e0 68 06 4c 	mov	r8,1612
80004eb6:	e0 69 06 48 	mov	r9,1608
80004eba:	70 0b       	ld.w	r11,r8[0x0]
    sysEvents[ putIdx ].type = e->type;
80004ebc:	72 08       	ld.w	r8,r9[0x0]
80004ebe:	16 38       	cp.w	r8,r11
80004ec0:	c0 c0       	breq	80004ed8 <event_post+0x40>
80004ec2:	e0 69 06 50 	mov	r9,1616
    sysEvents[ putIdx ].data = e->data;
80004ec6:	78 0a       	ld.w	r10,r12[0x0]
80004ec8:	f2 08 09 3a 	st.w	r9[r8<<0x3],r10
80004ecc:	f2 08 00 38 	add	r8,r9,r8<<0x3
    status = true;
  } else {
    // idx wrapped, so queue is full, restore idx
    putIdx = saveIndex;
    print_dbg("\r\n event queue full!");
80004ed0:	78 19       	ld.w	r9,r12[0x4]
    sysEvents[ putIdx ].type = e->type;
    sysEvents[ putIdx ].data = e->data;
    status = true;
  } else {
    // idx wrapped, so queue is full, restore idx
    putIdx = saveIndex;
80004ed2:	30 1c       	mov	r12,1
    print_dbg("\r\n event queue full!");
80004ed4:	91 19       	st.w	r8[0x4],r9
80004ed6:	c0 78       	rjmp	80004ee4 <event_post+0x4c>
80004ed8:	fe cc b7 50 	sub	r12,pc,-18608
  } 

  cpu_irq_enable_level(APP_TC_IRQ_PRIORITY);
  return status;
80004edc:	93 0a       	st.w	r9[0x0],r10
80004ede:	e0 a0 17 2d 	rcall	80007d38 <print_dbg>
80004ee2:	30 0c       	mov	r12,0
80004ee4:	d5 43       	csrf	0x14
80004ee6:	d8 02       	popm	pc

80004ee8 <event_next>:
80004ee8:	18 98       	mov	r8,r12
80004eea:	d3 43       	ssrf	0x14
80004eec:	e0 6a 06 48 	mov	r10,1608
80004ef0:	e0 69 06 4c 	mov	r9,1612
u8 event_next( event_t *e ) {
  u8 status;
  cpu_irq_disable_level(APP_TC_IRQ_PRIORITY);
  
  // if pointers are equal, the queue is empty... don't allow idx's to wrap!
  if ( getIdx != putIdx ) {
80004ef4:	74 0b       	ld.w	r11,r10[0x0]
80004ef6:	72 0a       	ld.w	r10,r9[0x0]
    INCR_EVENT_INDEX( getIdx );
80004ef8:	16 3a       	cp.w	r10,r11
80004efa:	c1 60       	breq	80004f26 <event_next+0x3e>
80004efc:	2f fa       	sub	r10,-1
80004efe:	93 0a       	st.w	r9[0x0],r10
80004f00:	e0 4a 00 20 	cp.w	r10,32
80004f04:	c0 31       	brne	80004f0a <event_next+0x22>
    e->type = sysEvents[ getIdx ].type;
80004f06:	30 0a       	mov	r10,0
80004f08:	93 0a       	st.w	r9[0x0],r10
80004f0a:	e0 69 06 50 	mov	r9,1616
    e->data = sysEvents[ getIdx ].data;
80004f0e:	e0 6a 06 4c 	mov	r10,1612
  cpu_irq_disable_level(APP_TC_IRQ_PRIORITY);
  
  // if pointers are equal, the queue is empty... don't allow idx's to wrap!
  if ( getIdx != putIdx ) {
    INCR_EVENT_INDEX( getIdx );
    e->type = sysEvents[ getIdx ].type;
80004f12:	74 0a       	ld.w	r10,r10[0x0]
    e->data = sysEvents[ getIdx ].data;
80004f14:	f2 0a 00 3b 	add	r11,r9,r10<<0x3
80004f18:	f2 0a 03 39 	ld.w	r9,r9[r10<<0x3]
80004f1c:	30 1c       	mov	r12,1
    status = true;
  } else {
    e->type  = 0xff;
    e->data = 0;
80004f1e:	91 09       	st.w	r8[0x0],r9
    INCR_EVENT_INDEX( getIdx );
    e->type = sysEvents[ getIdx ].type;
    e->data = sysEvents[ getIdx ].data;
    status = true;
  } else {
    e->type  = 0xff;
80004f20:	76 19       	ld.w	r9,r11[0x4]
80004f22:	91 19       	st.w	r8[0x4],r9
    e->data = 0;
80004f24:	c0 68       	rjmp	80004f30 <event_next+0x48>
    INCR_EVENT_INDEX( getIdx );
    e->type = sysEvents[ getIdx ].type;
    e->data = sysEvents[ getIdx ].data;
    status = true;
  } else {
    e->type  = 0xff;
80004f26:	30 0c       	mov	r12,0
    e->data = 0;
    status = false;
  }

  cpu_irq_enable_level(APP_TC_IRQ_PRIORITY);
80004f28:	e0 69 00 ff 	mov	r9,255
  return status;
}
80004f2c:	91 1c       	st.w	r8[0x4],r12
80004f2e:	91 09       	st.w	r8[0x0],r9
80004f30:	d5 43       	csrf	0x14
80004f32:	5e fc       	retal	r12

80004f34 <init_usb_host>:
  gpio_enable_module(TWI_GPIO_MAP, sizeof(TWI_GPIO_MAP) / sizeof(TWI_GPIO_MAP[0]));
}
*/

// initialize USB host stack
void init_usb_host (void) {
80004f34:	d4 01       	pushm	lr
  uhc_start();
80004f36:	e0 a0 17 7f 	rcall	80007e34 <uhc_start>
}
80004f3a:	d8 02       	popm	pc

80004f3c <init_spi>:
80004f3c:	d4 21       	pushm	r4-r7,lr
80004f3e:	20 4d       	sub	sp,16
 * \brief Enable a module clock derived from the PBA clock
 * \param index Index of the module clock in the PBAMASK register
 */
static inline void sysclk_enable_pba_module(unsigned int index)
{
	sysclk_priv_enable_module(AVR32_PM_CLK_GRP_PBA, index);
80004f40:	30 5b       	mov	r11,5
80004f42:	30 2c       	mov	r12,2
80004f44:	e0 a0 1a 0e 	rcall	80008360 <sysclk_priv_enable_module>
    {SPI_NPCS0_PIN,  SPI_NPCS0_FUNCTION },
    {SPI_NPCS1_PIN,  SPI_NPCS1_FUNCTION },
  };

  // Assign GPIO to SPI.
  gpio_enable_module(SPI_GPIO_MAP, sizeof(SPI_GPIO_MAP) / sizeof(SPI_GPIO_MAP[0]));
80004f48:	30 5b       	mov	r11,5
80004f4a:	fe cc b7 8e 	sub	r12,pc,-18546
80004f4e:	e0 a0 0a 35 	rcall	800063b8 <gpio_enable_module>
    .trans_delay = 0,
    .spck_delay = 0,
    .stay_act = 1,
    .spi_mode = 1,
    .modfdis = 1
  };
80004f52:	fe c8 b7 a6 	sub	r8,pc,-18522
80004f56:	f0 ea 00 08 	ld.d	r10,r8[8]
80004f5a:	fa eb 00 08 	st.d	sp[8],r10
80004f5e:	f0 e8 00 00 	ld.d	r8,r8[0]
80004f62:	1a 97       	mov	r7,sp


  // Initialize as master.
  spi_initMaster(SPI, &spiOptions);
80004f64:	fa e9 00 00 	st.d	sp[0],r8
80004f68:	1a 9b       	mov	r11,sp
80004f6a:	fe 7c 24 00 	mov	r12,-56320
  // Set SPI selection mode: variable_ps, pcs_decode, delay.
  spi_selectionMode(SPI, 0, 0, 0);
80004f6e:	e0 a0 0b 1f 	rcall	800065ac <spi_initMaster>
80004f72:	30 09       	mov	r9,0
80004f74:	fe 7c 24 00 	mov	r12,-56320
80004f78:	12 9a       	mov	r10,r9
80004f7a:	12 9b       	mov	r11,r9
  // Enable SPI module.
  spi_enable(SPI);
80004f7c:	e0 a0 0b 37 	rcall	800065ea <spi_selectionMode>
80004f80:	fe 7c 24 00 	mov	r12,-56320

  // spi_setupChipReg( SPI, &spiOptions, FPBA_HZ );
  spi_setupChipReg(SPI, &spiOptions, sysclk_get_pba_hz() );
80004f84:	e0 a0 0b d4 	rcall	8000672c <spi_enable>
80004f88:	e0 66 87 00 	mov	r6,34560
80004f8c:	ea 16 03 93 	orh	r6,0x393
80004f90:	1a 9b       	mov	r11,sp
80004f92:	0c 9a       	mov	r10,r6
80004f94:	fe 7c 24 00 	mov	r12,-56320
  // add ADC chip register
  spiOptions.reg          = ADC_SPI;
  spiOptions.baudrate     = 20000000;
  spiOptions.bits         = 16;
  spiOptions.spi_mode     = 2;
  spiOptions.spck_delay   = 0;
80004f98:	e0 a0 0b 7a 	rcall	8000668c <spi_setupChipReg>
  spiOptions.trans_delay  = 5;
  spiOptions.stay_act     = 0;
  spiOptions.modfdis      = 0;
80004f9c:	30 08       	mov	r8,0
  // add ADC chip register
  spiOptions.reg          = ADC_SPI;
  spiOptions.baudrate     = 20000000;
  spiOptions.bits         = 16;
  spiOptions.spi_mode     = 2;
  spiOptions.spck_delay   = 0;
80004f9e:	fb 68 00 0d 	st.b	sp[13],r8
  spiOptions.trans_delay  = 5;
  spiOptions.stay_act     = 0;
80004fa2:	fb 68 00 09 	st.b	sp[9],r8
  // spi_setupChipReg( SPI, &spiOptions, FPBA_HZ );
  spi_setupChipReg(SPI, &spiOptions, sysclk_get_pba_hz() );


  // add ADC chip register
  spiOptions.reg          = ADC_SPI;
80004fa6:	fb 68 00 0b 	st.b	sp[11],r8
  spiOptions.baudrate     = 20000000;
80004faa:	30 18       	mov	r8,1
80004fac:	ba 88       	st.b	sp[0x0],r8
80004fae:	e0 68 2d 00 	mov	r8,11520
80004fb2:	ea 18 01 31 	orh	r8,0x131
  spiOptions.bits         = 16;
80004fb6:	50 18       	stdsp	sp[0x4],r8
80004fb8:	31 08       	mov	r8,16
  spiOptions.spi_mode     = 2;
80004fba:	fb 68 00 08 	st.b	sp[8],r8
80004fbe:	30 28       	mov	r8,2
  spiOptions.spck_delay   = 0;
  spiOptions.trans_delay  = 5;
80004fc0:	fb 68 00 0c 	st.b	sp[12],r8
  spiOptions.stay_act     = 0;
  spiOptions.modfdis      = 0;

  spi_setupChipReg( SPI, &spiOptions, FPBA_HZ );
80004fc4:	30 58       	mov	r8,5
  spiOptions.reg          = ADC_SPI;
  spiOptions.baudrate     = 20000000;
  spiOptions.bits         = 16;
  spiOptions.spi_mode     = 2;
  spiOptions.spck_delay   = 0;
  spiOptions.trans_delay  = 5;
80004fc6:	0c 9a       	mov	r10,r6
80004fc8:	1a 9b       	mov	r11,sp
  spiOptions.stay_act     = 0;
  spiOptions.modfdis      = 0;

  spi_setupChipReg( SPI, &spiOptions, FPBA_HZ );
80004fca:	fb 68 00 0a 	st.b	sp[10],r8
80004fce:	fe 7c 24 00 	mov	r12,-56320

  // spi_enable(SPI);
 }
80004fd2:	e0 a0 0b 5d 	rcall	8000668c <spi_setupChipReg>
80004fd6:	2f cd       	sub	sp,-16
80004fd8:	d8 22       	popm	r4-r7,pc
80004fda:	d7 03       	nop

80004fdc <init_tc>:
80004fdc:	d4 01       	pushm	lr
80004fde:	fe cb b8 3a 	sub	r11,pc,-18374
80004fe2:	fe 7c 38 00 	mov	r12,-51200
80004fe6:	e0 a0 0b c5 	rcall	80006770 <tc_init_waveform>
80004fea:	e0 6a 01 d4 	mov	r10,468
80004fee:	30 0b       	mov	r11,0
80004ff0:	fe 7c 38 00 	mov	r12,-51200
80004ff4:	e0 a0 0c 20 	rcall	80006834 <tc_write_rc>
  // so RC = fPBA / 128 / 1000
  //  tc_write_rc(tc, APP_TC_CHANNEL, (FPBA_HZ / 128000));
  tc_write_rc(tc, APP_TC_CHANNEL, (FPBA_HZ / 128000));

  // configure the timer interrupt
  tc_configure_interrupts(tc, APP_TC_CHANNEL, &tc_interrupt);
80004ff8:	30 0b       	mov	r11,0
80004ffa:	fe ca b8 5a 	sub	r10,pc,-18342
80004ffe:	fe 7c 38 00 	mov	r12,-51200
  // Start the timer/counter.
  tc_start(tc, APP_TC_CHANNEL);
80005002:	e0 a0 0c 33 	rcall	80006868 <tc_configure_interrupts>
80005006:	30 0b       	mov	r11,0
80005008:	fe 7c 38 00 	mov	r12,-51200
}
8000500c:	e0 a0 0c 02 	rcall	80006810 <tc_start>
80005010:	d8 02       	popm	pc
80005012:	d7 03       	nop

80005014 <init_gpio>:
80005014:	d4 01       	pushm	lr
80005016:	32 0c       	mov	r12,32
80005018:	e0 a0 09 e0 	rcall	800063d8 <gpio_enable_gpio_pin>
8000501c:	32 1c       	mov	r12,33
8000501e:	e0 a0 09 dd 	rcall	800063d8 <gpio_enable_gpio_pin>
80005022:	32 2c       	mov	r12,34
80005024:	e0 a0 09 da 	rcall	800063d8 <gpio_enable_gpio_pin>

extern void init_gpio(void) {
    gpio_enable_gpio_pin(B00);
    gpio_enable_gpio_pin(B01);
    gpio_enable_gpio_pin(B02);
    gpio_enable_gpio_pin(B03);
80005028:	32 3c       	mov	r12,35
8000502a:	e0 a0 09 d7 	rcall	800063d8 <gpio_enable_gpio_pin>
    gpio_enable_gpio_pin(B04);
8000502e:	32 4c       	mov	r12,36
80005030:	e0 a0 09 d4 	rcall	800063d8 <gpio_enable_gpio_pin>
    gpio_enable_gpio_pin(B05);
80005034:	32 5c       	mov	r12,37
80005036:	e0 a0 09 d1 	rcall	800063d8 <gpio_enable_gpio_pin>
    gpio_enable_gpio_pin(B06);
8000503a:	32 6c       	mov	r12,38
8000503c:	e0 a0 09 ce 	rcall	800063d8 <gpio_enable_gpio_pin>
    gpio_enable_gpio_pin(B07);
80005040:	32 7c       	mov	r12,39
80005042:	e0 a0 09 cb 	rcall	800063d8 <gpio_enable_gpio_pin>
    gpio_enable_gpio_pin(B08);
80005046:	32 8c       	mov	r12,40
80005048:	e0 a0 09 c8 	rcall	800063d8 <gpio_enable_gpio_pin>
    gpio_enable_gpio_pin(B09);
8000504c:	32 9c       	mov	r12,41
8000504e:	e0 a0 09 c5 	rcall	800063d8 <gpio_enable_gpio_pin>
    gpio_enable_gpio_pin(B10);
80005052:	32 ac       	mov	r12,42
80005054:	e0 a0 09 c2 	rcall	800063d8 <gpio_enable_gpio_pin>
    gpio_enable_gpio_pin(NMI);
80005058:	30 dc       	mov	r12,13
8000505a:	e0 a0 09 bf 	rcall	800063d8 <gpio_enable_gpio_pin>
}
8000505e:	d8 02       	popm	pc

80005060 <clock_null>:
#include "timers.h"
#include "types.h"

//#define UI_IRQ_PRIORITY AVR32_INTC_INT2

void clock_null(u8 phase) {;;}
80005060:	5e fc       	retal	r12
80005062:	d7 03       	nop

80005064 <register_interrupts>:

//-----------------------------
//---- external function definitions

// register interrupts
void register_interrupts(void) {
80005064:	d4 01       	pushm	lr
  // enable interrupts on GPIO inputs
  gpio_enable_pin_interrupt( NMI, GPIO_PIN_CHANGE);
80005066:	30 0b       	mov	r11,0
80005068:	30 dc       	mov	r12,13
8000506a:	e0 a0 09 e7 	rcall	80006438 <gpio_enable_pin_interrupt>
  gpio_enable_pin_interrupt( B08, GPIO_PIN_CHANGE);
8000506e:	30 0b       	mov	r11,0
80005070:	32 8c       	mov	r12,40
80005072:	e0 a0 09 e3 	rcall	80006438 <gpio_enable_pin_interrupt>
  gpio_enable_pin_interrupt( B09,	GPIO_PIN_CHANGE);
80005076:	30 0b       	mov	r11,0
80005078:	32 9c       	mov	r12,41
8000507a:	e0 a0 09 df 	rcall	80006438 <gpio_enable_pin_interrupt>


  // PA08 - PA15
  INTC_register_interrupt( &irq_port0_line1, AVR32_GPIO_IRQ_0 + (AVR32_PIN_PA08 / 8), UI_IRQ_PRIORITY);
8000507e:	30 2a       	mov	r10,2
80005080:	34 1b       	mov	r11,65
80005082:	fe cc ff 2a 	sub	r12,pc,-214
80005086:	e0 a0 0a 11 	rcall	800064a8 <INTC_register_interrupt>

  // PB08 - PB15
  INTC_register_interrupt( &irq_port1_line1, AVR32_GPIO_IRQ_0 + (AVR32_PIN_PB08 / 8), UI_IRQ_PRIORITY);
8000508a:	30 2a       	mov	r10,2
8000508c:	34 5b       	mov	r11,69
8000508e:	fe cc ff 8a 	sub	r12,pc,-118

  // register TC interrupt
  INTC_register_interrupt(&irq_tc, APP_TC_IRQ, UI_IRQ_PRIORITY);
80005092:	e0 a0 0a 0b 	rcall	800064a8 <INTC_register_interrupt>
80005096:	30 2a       	mov	r10,2
80005098:	e0 6b 01 c0 	mov	r11,448
8000509c:	fe cc ff f4 	sub	r12,pc,-12

  // register uart interrupt
  // INTC_register_interrupt(&irq_usart, AVR32_USART0_IRQ, UI_IRQ_PRIORITY);
}
800050a0:	e0 a0 0a 04 	rcall	800064a8 <INTC_register_interrupt>
800050a4:	d8 02       	popm	pc
800050a6:	d7 03       	nop

800050a8 <irq_tc>:
800050a8:	eb cd 40 c0 	pushm	r6-r7,lr
800050ac:	e0 68 07 5c 	mov	r8,1884
800050b0:	30 1a       	mov	r10,1
800050b2:	f0 e6 00 00 	ld.d	r6,r8[0]


// timer irq
__attribute__((__interrupt__))
static void irq_tc(void) {
  tcTicks++;
800050b6:	30 0b       	mov	r11,0
800050b8:	ec 0a 00 0a 	add	r10,r6,r10
800050bc:	ee 0b 00 4b 	adc	r11,r7,r11
800050c0:	f0 eb 00 00 	st.d	r8[0],r10
  // overflow control
  if(tcTicks > tcMax) { 
800050c4:	e0 69 07 58 	mov	r9,1880
800050c8:	f0 ea 00 00 	ld.d	r10,r8[0]
800050cc:	e0 66 ff ff 	mov	r6,65535
800050d0:	ea 16 7f ff 	orh	r6,0x7fff
800050d4:	30 07       	mov	r7,0
800050d6:	0c 3a       	cp.w	r10,r6
800050d8:	ee 0b 13 00 	cpc	r11,r7
    tcTicks = 0;
800050dc:	e0 88 00 08 	brls	800050ec <irq_tc+0x44>
800050e0:	30 0a       	mov	r10,0
800050e2:	30 0b       	mov	r11,0
    tcOverflow = 1;
800050e4:	f0 eb 00 00 	st.d	r8[0],r10
  } else {
    tcOverflow = 0;
800050e8:	30 18       	mov	r8,1
800050ea:	c0 28       	rjmp	800050ee <irq_tc+0x46>
  }
  process_timers();
800050ec:	30 08       	mov	r8,0
800050ee:	b2 88       	st.b	r9[0x0],r8
  // clear interrupt flag by reading timer SR
  tc_read_sr(APP_TC, APP_TC_CHANNEL);
800050f0:	e0 a0 04 8c 	rcall	80005a08 <process_timers>
800050f4:	30 0b       	mov	r11,0
800050f6:	fe 7c 38 00 	mov	r12,-51200
}
800050fa:	e0 a0 0b 94 	rcall	80006822 <tc_read_sr>
800050fe:	e3 cd 40 c0 	ldm	sp++,r6-r7,lr
80005102:	d6 03       	rete

80005104 <irq_port1_line1>:
80005104:	eb cd 40 80 	pushm	r7,lr
80005108:	32 9c       	mov	r12,41
8000510a:	e0 a0 09 b8 	rcall	8000647a <gpio_get_pin_interrupt_flag>
8000510e:	c0 c0       	breq	80005126 <irq_port1_line1+0x22>
    // e.data = gpio_get_pin_value(kSwitchPins[swIdx]); 
    // event_post(&e);

    // clock norm
    if(gpio_get_pin_interrupt_flag(B09)) {
      clock_external = !gpio_get_pin_value(B09); 
80005110:	32 9c       	mov	r12,41
80005112:	e0 a0 09 6e 	rcall	800063ee <gpio_get_pin_value>
80005116:	e0 68 1a cc 	mov	r8,6860
8000511a:	ec 1c 00 01 	eorl	r12,0x1

      gpio_clear_pin_interrupt_flag(B09);
8000511e:	b0 8c       	st.b	r8[0x0],r12
80005120:	32 9c       	mov	r12,41
80005122:	e0 a0 09 b8 	rcall	80006492 <gpio_clear_pin_interrupt_flag>
    }

    // clock in
    if(gpio_get_pin_interrupt_flag(B08)) {
80005126:	32 8c       	mov	r12,40
80005128:	e0 a0 09 a9 	rcall	8000647a <gpio_get_pin_interrupt_flag>
      // CLOCK BOUNCY WITHOUT THESE PRINTS
      print_dbg("\rclk: ");
8000512c:	c1 30       	breq	80005152 <irq_port1_line1+0x4e>
8000512e:	fe cc b9 4a 	sub	r12,pc,-18102
      print_dbg_ulong(gpio_get_pin_value(B08));
80005132:	e0 a0 16 03 	rcall	80007d38 <print_dbg>
80005136:	32 8c       	mov	r12,40
80005138:	e0 a0 09 5b 	rcall	800063ee <gpio_get_pin_value>
      (*clock_pulse)(gpio_get_pin_value(B08));
8000513c:	e0 a0 15 f8 	rcall	80007d2c <print_dbg_ulong>
80005140:	31 c8       	mov	r8,28
80005142:	32 8c       	mov	r12,40
80005144:	70 07       	ld.w	r7,r8[0x0]
80005146:	e0 a0 09 54 	rcall	800063ee <gpio_get_pin_value>
      gpio_clear_pin_interrupt_flag(B08);
8000514a:	5d 17       	icall	r7
8000514c:	32 8c       	mov	r12,40
    }
}
8000514e:	e0 a0 09 a2 	rcall	80006492 <gpio_clear_pin_interrupt_flag>
80005152:	e3 cd 40 80 	ldm	sp++,r7,lr
80005156:	d6 03       	rete

80005158 <irq_port0_line1>:
80005158:	eb cd 40 80 	pushm	r7,lr
8000515c:	30 dc       	mov	r12,13
8000515e:	e0 a0 09 8e 	rcall	8000647a <gpio_get_pin_interrupt_flag>
80005162:	c0 e0       	breq	8000517e <irq_port0_line1+0x26>
80005164:	30 dc       	mov	r12,13
80005166:	e0 a0 09 96 	rcall	80006492 <gpio_clear_pin_interrupt_flag>
8000516a:	30 18       	mov	r8,1
8000516c:	e0 67 07 50 	mov	r7,1872
80005170:	30 dc       	mov	r12,13
80005172:	8f 08       	st.w	r7[0x0],r8
    if(gpio_get_pin_interrupt_flag(NMI)) {
      gpio_clear_pin_interrupt_flag(NMI);
      // print_dbg("\r\n ### NMI ### ");
      static event_t e;
      e.type = kEventFront;
      e.data = gpio_get_pin_value(NMI);
80005174:	e0 a0 09 3d 	rcall	800063ee <gpio_get_pin_value>
      event_post(&e);
80005178:	8f 1c       	st.w	r7[0x4],r12
8000517a:	0e 9c       	mov	r12,r7
8000517c:	c8 ee       	rcall	80004e98 <event_post>
    }
}
8000517e:	e3 cd 40 80 	ldm	sp++,r7,lr
80005182:	d6 03       	rete

80005184 <read_serial_dummy>:
  u8 vari; // is variable brightness, true/false
} monomeDesc;


//// dummy functions
static void read_serial_dummy(void) { return; }
80005184:	5e fc       	retal	r12
80005186:	d7 03       	nop

80005188 <init_monome>:

//================================================
//----- extern function definitions

// init
void init_monome(void) {
80005188:	e0 68 1a dc 	mov	r8,6876
8000518c:	30 0a       	mov	r10,0
8000518e:	f0 c9 ff 00 	sub	r9,r8,-256
  u32 i;
  for(i=0; i<MONOME_MAX_LED_BYTES; i++) {
80005192:	10 ca       	st.b	r8++,r10
80005194:	12 38       	cp.w	r8,r9
    monomeLedBuffer[i] = 0;
  }
  //  print_dbg("\r\n finished monome class init");
}
80005196:	cf e1       	brne	80005192 <init_monome+0xa>
80005198:	5e fc       	retal	r12
8000519a:	d7 03       	nop

8000519c <monome_grid_key_parse_event_data>:

  ev.type = kEventMonomeGridKey;
  event_post(&ev);
}

void monome_grid_key_parse_event_data(u32 data, u8* x, u8* y, u8* val) {
8000519c:	20 1d       	sub	sp,4
  u8* bdata = (u8*)(&data);
  *x = bdata[0];
8000519e:	f8 08 16 18 	lsr	r8,r12,0x18
800051a2:	b6 88       	st.b	r11[0x0],r8
  *y = bdata[1];
800051a4:	f1 dc c2 08 	bfextu	r8,r12,0x10,0x8
800051a8:	b4 88       	st.b	r10[0x0],r8
  *val = bdata[2];
800051aa:	f9 dc c1 08 	bfextu	r12,r12,0x8,0x8
800051ae:	b2 8c       	st.b	r9[0x0],r12
}
800051b0:	2f fd       	sub	sp,-4
800051b2:	5e fc       	retal	r12

800051b4 <monome_set_quadrant_flag>:
  /* print_dbg_hex(monomeFrameDirty); */
}

// set given quadrant dirty flag
extern void monome_set_quadrant_flag(u8 q) {
  monomeFrameDirty |= (1 << q);
800051b4:	e0 68 07 66 	mov	r8,1894
800051b8:	30 19       	mov	r9,1
800051ba:	11 8a       	ld.ub	r10,r8[0x0]
800051bc:	f2 0c 09 49 	lsl	r9,r9,r12
800051c0:	14 49       	or	r9,r10
}
800051c2:	b0 89       	st.b	r8[0x0],r9
800051c4:	5e fc       	retal	r12
800051c6:	d7 03       	nop

800051c8 <monome_size_x>:
  monomeLedBuffer[monome_xy_idx(x,y)] ^= 0xff;
  monome_calc_quadrant_flag(x, y);  
}


u8 monome_size_x(void) { return mdesc.cols; }
800051c8:	32 08       	mov	r8,32
800051ca:	f1 3c 00 08 	ld.ub	r12,r8[8]
800051ce:	5e fc       	retal	r12

800051d0 <monome_is_vari>:
800051d0:	32 08       	mov	r8,32
800051d2:	f1 3c 00 0c 	ld.ub	r12,r8[12]
u8 monome_size_y(void) {  return mdesc.rows; }
u8 monome_is_vari(void) {  return mdesc.vari; }
800051d6:	5e fc       	retal	r12

800051d8 <set_intense_mext>:
800051d8:	5e fc       	retal	r12
800051da:	d7 03       	nop

800051dc <monome_grid_refresh>:
  }
  return 0;
}

// check dirty flags and refresh leds
void monome_grid_refresh(void) {
800051dc:	d4 01       	pushm	lr
  // may need to wait after each quad until tx transfer is complete
  u8 busy = ftdi_tx_busy();
800051de:	e0 a0 04 f3 	rcall	80005bc4 <ftdi_tx_busy>

  // check quad 0
  if( monomeFrameDirty & 0b0001 ) {
800051e2:	e0 68 07 66 	mov	r8,1894
800051e6:	11 88       	ld.ub	r8,r8[0x0]
800051e8:	ed b8 00 00 	bld	r8,0x0
800051ec:	c0 40       	breq	800051f4 <monome_grid_refresh+0x18>
    while( busy ) { busy = ftdi_tx_busy(); }
800051ee:	c1 38       	rjmp	80005214 <monome_grid_refresh+0x38>
800051f0:	e0 a0 04 ea 	rcall	80005bc4 <ftdi_tx_busy>
800051f4:	58 0c       	cp.w	r12,0
    (*monome_grid_map)(0, 0, monomeLedBuffer);
800051f6:	cf d1       	brne	800051f0 <monome_grid_refresh+0x14>
800051f8:	18 9b       	mov	r11,r12
800051fa:	e0 68 1a d4 	mov	r8,6868
800051fe:	e0 6a 1a dc 	mov	r10,6876
    monomeFrameDirty &= 0b1110;
80005202:	70 08       	ld.w	r8,r8[0x0]
80005204:	5d 18       	icall	r8
80005206:	e0 69 07 66 	mov	r9,1894
8000520a:	30 1c       	mov	r12,1
    busy = 1;
  }
  // check quad 1
  if( monomeFrameDirty & 0b0010 ) {
8000520c:	13 88       	ld.ub	r8,r9[0x0]
8000520e:	e2 18 00 0e 	andl	r8,0xe,COH
80005212:	b2 88       	st.b	r9[0x0],r8
80005214:	e0 68 07 66 	mov	r8,1894
    if ( mdesc.cols > 7 ) {
80005218:	11 88       	ld.ub	r8,r8[0x0]
8000521a:	ed b8 00 01 	bld	r8,0x1
8000521e:	c1 e1       	brne	8000525a <monome_grid_refresh+0x7e>
80005220:	32 08       	mov	r8,32
80005222:	f1 39 00 08 	ld.ub	r9,r8[8]
80005226:	30 78       	mov	r8,7
      while( busy ) { busy = ftdi_tx_busy(); }
80005228:	f0 09 18 00 	cp.b	r9,r8
8000522c:	e0 8b 00 05 	brhi	80005236 <monome_grid_refresh+0x5a>
      (*monome_grid_map)(8, 0, monomeLedBuffer + 8);
80005230:	c1 58       	rjmp	8000525a <monome_grid_refresh+0x7e>
80005232:	e0 a0 04 c9 	rcall	80005bc4 <ftdi_tx_busy>
80005236:	58 0c       	cp.w	r12,0
80005238:	cf d1       	brne	80005232 <monome_grid_refresh+0x56>
8000523a:	18 9b       	mov	r11,r12
8000523c:	e0 68 1a d4 	mov	r8,6868
      monomeFrameDirty &= 0b1101;
80005240:	30 8c       	mov	r12,8
80005242:	70 08       	ld.w	r8,r8[0x0]
80005244:	e0 6a 1a dc 	mov	r10,6876
80005248:	2f 8a       	sub	r10,-8
      busy = 1;
    }
  }
  // check quad 2
  if( monomeFrameDirty &  0b0100 ) { 
8000524a:	5d 18       	icall	r8
8000524c:	e0 69 07 66 	mov	r9,1894
80005250:	30 1c       	mov	r12,1
80005252:	13 88       	ld.ub	r8,r9[0x0]
    if( mdesc.rows > 7 ) {
80005254:	e2 18 00 0d 	andl	r8,0xd,COH
80005258:	b2 88       	st.b	r9[0x0],r8
8000525a:	e0 68 07 66 	mov	r8,1894
8000525e:	11 88       	ld.ub	r8,r8[0x0]
80005260:	ed b8 00 02 	bld	r8,0x2
80005264:	c1 d1       	brne	8000529e <monome_grid_refresh+0xc2>
      while( busy ) { busy = ftdi_tx_busy(); }
80005266:	32 08       	mov	r8,32
80005268:	f1 39 00 09 	ld.ub	r9,r8[9]
8000526c:	30 78       	mov	r8,7
      (*monome_grid_map)(0, 8, monomeLedBuffer + 128);
8000526e:	f0 09 18 00 	cp.b	r9,r8
80005272:	e0 8b 00 05 	brhi	8000527c <monome_grid_refresh+0xa0>
80005276:	c1 48       	rjmp	8000529e <monome_grid_refresh+0xc2>
80005278:	e0 a0 04 a6 	rcall	80005bc4 <ftdi_tx_busy>
      monomeFrameDirty &= 0b1011;
8000527c:	58 0c       	cp.w	r12,0
8000527e:	cf d1       	brne	80005278 <monome_grid_refresh+0x9c>
80005280:	e0 68 1a d4 	mov	r8,6868
80005284:	e0 6a 1a dc 	mov	r10,6876
      busy = 1;
    }
  }
  // check quad 3
  if( monomeFrameDirty & 0b1000 ) {
80005288:	70 08       	ld.w	r8,r8[0x0]
8000528a:	28 0a       	sub	r10,-128
8000528c:	30 8b       	mov	r11,8
8000528e:	5d 18       	icall	r8
    if( (mdesc.rows > 7) && (mdesc.cols > 7) )  {
80005290:	e0 69 07 66 	mov	r9,1894
80005294:	30 1c       	mov	r12,1
80005296:	13 88       	ld.ub	r8,r9[0x0]
80005298:	e2 18 00 0b 	andl	r8,0xb,COH
8000529c:	b2 88       	st.b	r9[0x0],r8
8000529e:	e0 68 07 66 	mov	r8,1894
800052a2:	11 88       	ld.ub	r8,r8[0x0]
800052a4:	ed b8 00 03 	bld	r8,0x3
800052a8:	c2 81       	brne	800052f8 <monome_grid_refresh+0x11c>
800052aa:	32 09       	mov	r9,32
800052ac:	30 78       	mov	r8,7
      while( busy ) { busy = ftdi_tx_busy(); }
800052ae:	f3 3a 00 09 	ld.ub	r10,r9[9]
800052b2:	f0 0a 18 00 	cp.b	r10,r8
      (*monome_grid_map)(8, 8, monomeLedBuffer + 136);
800052b6:	e0 88 00 21 	brls	800052f8 <monome_grid_refresh+0x11c>
800052ba:	f3 39 00 08 	ld.ub	r9,r9[8]
800052be:	f0 09 18 00 	cp.b	r9,r8
800052c2:	e0 8b 00 05 	brhi	800052cc <monome_grid_refresh+0xf0>
      monomeFrameDirty &= 0b0111;
800052c6:	c1 98       	rjmp	800052f8 <monome_grid_refresh+0x11c>
800052c8:	e0 a0 04 7e 	rcall	80005bc4 <ftdi_tx_busy>
800052cc:	58 0c       	cp.w	r12,0
800052ce:	cf d1       	brne	800052c8 <monome_grid_refresh+0xec>
800052d0:	30 8b       	mov	r11,8
800052d2:	e0 68 1a d4 	mov	r8,6868
      busy = 1;
    }
  }
  while( busy ) { busy = ftdi_tx_busy(); }
800052d6:	16 9c       	mov	r12,r11
800052d8:	70 08       	ld.w	r8,r8[0x0]
800052da:	e0 6a 1a dc 	mov	r10,6876
}
800052de:	f4 ca ff 78 	sub	r10,r10,-136
800052e2:	5d 18       	icall	r8
800052e4:	e0 68 07 66 	mov	r8,1894
800052e8:	30 1c       	mov	r12,1
800052ea:	11 89       	ld.ub	r9,r8[0x0]
800052ec:	f3 d9 c0 03 	bfextu	r9,r9,0x0,0x3
800052f0:	b0 89       	st.b	r8[0x0],r9
800052f2:	c0 38       	rjmp	800052f8 <monome_grid_refresh+0x11c>
800052f4:	e0 a0 04 68 	rcall	80005bc4 <ftdi_tx_busy>
800052f8:	58 0c       	cp.w	r12,0
800052fa:	cf d1       	brne	800052f4 <monome_grid_refresh+0x118>
800052fc:	d8 02       	popm	pc
800052fe:	d7 03       	nop

80005300 <monome_arc_refresh>:


// check flags and refresh arc
void monome_arc_refresh(void) {
80005300:	d4 31       	pushm	r0-r7,lr
  // may need to wait after each quad until tx transfer is complete
  u8 busy = ftdi_tx_busy();
80005302:	30 07       	mov	r7,0
  u8 i;

  for(i=0;i<mdesc.encs;i++) {
80005304:	32 01       	mov	r1,32


// check flags and refresh arc
void monome_arc_refresh(void) {
  // may need to wait after each quad until tx transfer is complete
  u8 busy = ftdi_tx_busy();
80005306:	e0 a0 04 5f 	rcall	80005bc4 <ftdi_tx_busy>
  u8 i;

  for(i=0;i<mdesc.encs;i++) {
    if(monomeFrameDirty & (1<<i)) {
8000530a:	e0 66 07 66 	mov	r6,1894
      if(i==1) print_dbg("\r\nsecond");
      while(busy) { busy = ftdi_tx_busy(); }
      (*monome_ring_map)(i, monomeLedBuffer + (i<<6));
8000530e:	30 12       	mov	r2,1
80005310:	e0 63 1a d8 	mov	r3,6872


// check flags and refresh arc
void monome_arc_refresh(void) {
  // may need to wait after each quad until tx transfer is complete
  u8 busy = ftdi_tx_busy();
80005314:	e0 64 1a dc 	mov	r4,6876
  u8 i;

  for(i=0;i<mdesc.encs;i++) {
    if(monomeFrameDirty & (1<<i)) {
80005318:	30 15       	mov	r5,1
8000531a:	18 90       	mov	r0,r12
8000531c:	c2 48       	rjmp	80005364 <monome_arc_refresh+0x64>
8000531e:	0d 88       	ld.ub	r8,r6[0x0]
80005320:	f0 07 08 48 	asr	r8,r8,r7
      if(i==1) print_dbg("\r\nsecond");
80005324:	ed b8 00 00 	bld	r8,0x0
80005328:	c1 c1       	brne	80005360 <monome_arc_refresh+0x60>
8000532a:	e4 07 18 00 	cp.b	r7,r2
8000532e:	c0 91       	brne	80005340 <monome_arc_refresh+0x40>
80005330:	fe cc bb 20 	sub	r12,pc,-17632
      while(busy) { busy = ftdi_tx_busy(); }
80005334:	e0 a0 15 02 	rcall	80007d38 <print_dbg>
80005338:	c0 48       	rjmp	80005340 <monome_arc_refresh+0x40>
8000533a:	e0 a0 04 45 	rcall	80005bc4 <ftdi_tx_busy>
      (*monome_ring_map)(i, monomeLedBuffer + (i<<6));
8000533e:	18 90       	mov	r0,r12
80005340:	58 00       	cp.w	r0,0
80005342:	cf c1       	brne	8000533a <monome_arc_refresh+0x3a>
80005344:	66 08       	ld.w	r8,r3[0x0]
80005346:	ee 0b 15 06 	lsl	r11,r7,0x6
      monomeFrameDirty &= ~(1<<i);
8000534a:	0e 9c       	mov	r12,r7
8000534c:	e8 0b 00 0b 	add	r11,r4,r11
80005350:	5d 18       	icall	r8
80005352:	0d 89       	ld.ub	r9,r6[0x0]
80005354:	ea 07 09 48 	lsl	r8,r5,r7
void monome_arc_refresh(void) {
  // may need to wait after each quad until tx transfer is complete
  u8 busy = ftdi_tx_busy();
  u8 i;

  for(i=0;i<mdesc.encs;i++) {
80005358:	30 10       	mov	r0,1
8000535a:	5c d8       	com	r8
8000535c:	12 68       	and	r8,r9
8000535e:	ac 88       	st.b	r6[0x0],r8
80005360:	2f f7       	sub	r7,-1
80005362:	5c 57       	castu.b	r7
80005364:	e3 38 00 0a 	ld.ub	r8,r1[10]
80005368:	ee 08 18 00 	cp.b	r8,r7
      monomeFrameDirty &= ~(1<<i);
      busy = 1;
    }
  }

  while( busy ) { busy = ftdi_tx_busy(); }
8000536c:	fe 9b ff d9 	brhi	8000531e <monome_arc_refresh+0x1e>
80005370:	c0 48       	rjmp	80005378 <monome_arc_refresh+0x78>
80005372:	e0 a0 04 29 	rcall	80005bc4 <ftdi_tx_busy>
}
80005376:	18 90       	mov	r0,r12
80005378:	58 00       	cp.w	r0,0
8000537a:	cf c1       	brne	80005372 <monome_arc_refresh+0x72>
8000537c:	d8 32       	popm	r0-r7,pc
8000537e:	d7 03       	nop

80005380 <set_intense_series>:
80005380:	d4 01       	pushm	lr
80005382:	f1 dc c0 04 	bfextu	r8,r12,0x0,0x4
80005386:	ea 18 ff ff 	orh	r8,0xffff
8000538a:	e8 18 ff a0 	orl	r8,0xffa0
8000538e:	e0 6c 07 68 	mov	r12,1896
80005392:	30 1b       	mov	r11,1
			b (brightness) = 0-15 (4 bits)
encode:		byte 0 = ((id) << 4) | b = 160 + b
*/
  txBuf[0] = 0xa0;
  txBuf[0] |= (v & 0x0f);
  ftdi_write(txBuf, 1);
80005394:	b8 88       	st.b	r12[0x0],r8
80005396:	e0 a0 04 53 	rcall	80005c3c <ftdi_write>
}
8000539a:	d8 02       	popm	pc

8000539c <ring_map_mext>:
8000539c:	d4 01       	pushm	lr
8000539e:	e0 68 07 68 	mov	r8,1896
800053a2:	39 2a       	mov	r10,-110
  //  static u8 tx[11] = { 0x14, 0, 0, 0, 0, 0, 0, 0, 0, 0, 0 };
  static u8* ptx;
  static u8 i;

  txBuf[0] = 0x92;
  txBuf[1] = n;
800053a4:	b0 9c       	st.b	r8[0x1],r12
800053a6:	f0 c9 ff fe 	sub	r9,r8,-2
  
  ptx = txBuf + 2;
  
  // smash 64 LEDs together, nibbles
  for(i=0; i<32; i++) {
800053aa:	b0 8a       	st.b	r8[0x0],r10
  //  static u8 tx[11] = { 0x14, 0, 0, 0, 0, 0, 0, 0, 0, 0, 0 };
  static u8* ptx;
  static u8 i;

  txBuf[0] = 0x92;
  txBuf[1] = n;
800053ac:	31 fc       	mov	r12,31
  
  ptx = txBuf + 2;
  
  // smash 64 LEDs together, nibbles
  for(i=0; i<32; i++) {
800053ae:	30 08       	mov	r8,0
    *ptx = *data << 4;
800053b0:	c0 b8       	rjmp	800053c6 <ring_map_mext+0x2a>
800053b2:	17 8a       	ld.ub	r10,r11[0x0]
800053b4:	a5 6a       	lsl	r10,0x4
800053b6:	5c 5a       	castu.b	r10

/* static void grid_map_level_mext(u8 x, u8 y, const u8* data) { */
/*   // TODO */
/* } */

static void ring_map_mext(u8 n, u8* data) {
800053b8:	b2 8a       	st.b	r9[0x0],r10
  
  // smash 64 LEDs together, nibbles
  for(i=0; i<32; i++) {
    *ptx = *data << 4;
    data++;
    *ptx |= *data;
800053ba:	2f f8       	sub	r8,-1

/* static void grid_map_level_mext(u8 x, u8 y, const u8* data) { */
/*   // TODO */
/* } */

static void ring_map_mext(u8 n, u8* data) {
800053bc:	17 9e       	ld.ub	lr,r11[0x1]
  
  // smash 64 LEDs together, nibbles
  for(i=0; i<32; i++) {
    *ptx = *data << 4;
    data++;
    *ptx |= *data;
800053be:	5c 58       	castu.b	r8

/* static void grid_map_level_mext(u8 x, u8 y, const u8* data) { */
/*   // TODO */
/* } */

static void ring_map_mext(u8 n, u8* data) {
800053c0:	1c 4a       	or	r10,lr
  
  // smash 64 LEDs together, nibbles
  for(i=0; i<32; i++) {
    *ptx = *data << 4;
    data++;
    *ptx |= *data;
800053c2:	2f eb       	sub	r11,-2
  txBuf[1] = n;
  
  ptx = txBuf + 2;
  
  // smash 64 LEDs together, nibbles
  for(i=0; i<32; i++) {
800053c4:	12 ca       	st.b	r9++,r10
800053c6:	f8 08 18 00 	cp.b	r8,r12
800053ca:	fe 98 ff f4 	brls	800053b2 <ring_map_mext+0x16>
800053ce:	e0 6a 07 b8 	mov	r10,1976
    *ptx |= *data;
    data++;
    ptx++;
  }

  ftdi_write(txBuf, 32 + 2);
800053d2:	95 09       	st.w	r10[0x0],r9
  txBuf[1] = n;
  
  ptx = txBuf + 2;
  
  // smash 64 LEDs together, nibbles
  for(i=0; i<32; i++) {
800053d4:	e0 69 07 be 	mov	r9,1982
    *ptx |= *data;
    data++;
    ptx++;
  }

  ftdi_write(txBuf, 32 + 2);
800053d8:	32 2b       	mov	r11,34
800053da:	b2 88       	st.b	r9[0x0],r8
}
800053dc:	e0 6c 07 68 	mov	r12,1896
800053e0:	e0 a0 04 2e 	rcall	80005c3c <ftdi_write>
800053e4:	d8 02       	popm	pc
800053e6:	d7 03       	nop

800053e8 <grid_map_mext>:
800053e8:	d4 21       	pushm	r4-r7,lr
800053ea:	e0 68 07 68 	mov	r8,1896
800053ee:	b0 9c       	st.b	r8[0x1],r12
static void grid_map_mext( u8 x, u8 y, const u8* data ) {
  //  static u8 tx[11] = { 0x14, 0, 0, 0, 0, 0, 0, 0, 0, 0, 0 };
  static u8* ptx;
  static u8 i, j;

  txBuf[0] = 0x1A;  
800053f0:	b0 ab       	st.b	r8[0x2],r11
  txBuf[1] = x;
  txBuf[2] = y;
  
  ptx = txBuf + 3;
800053f2:	31 ac       	mov	r12,26
800053f4:	f0 cb ff fd 	sub	r11,r8,-3
800053f8:	b0 8c       	st.b	r8[0x0],r12
800053fa:	e0 68 07 c4 	mov	r8,1988
800053fe:	91 0b       	st.w	r8[0x0],r11
  
  // copy and convert
  for(i=0; i<MONOME_QUAD_LEDS; i++) {
80005400:	e0 68 07 bc 	mov	r8,1980

  txBuf[0] = 0x1A;  
  txBuf[1] = x;
  txBuf[2] = y;
  
  ptx = txBuf + 3;
80005404:	16 99       	mov	r9,r11
  
  // copy and convert
  for(i=0; i<MONOME_QUAD_LEDS; i++) {
80005406:	30 76       	mov	r6,7
80005408:	11 8b       	ld.ub	r11,r8[0x0]
8000540a:	30 08       	mov	r8,0
8000540c:	c1 38       	rjmp	80005432 <grid_map_mext+0x4a>
    // *ptx = 0;
    for(j=0; j<4; j++) {
      // binary value of data byte to bitfield of tx byte
      // *ptx |= ((*data > 0) << j);
      *ptx = (*data) << 4;
8000540e:	12 9e       	mov	lr,r9
80005410:	14 9c       	mov	r12,r10
80005412:	30 0b       	mov	r11,0
80005414:	19 87       	ld.ub	r7,r12[0x0]
      data++;
      *ptx |= *data;
80005416:	a5 67       	lsl	r7,0x4
80005418:	5c 57       	castu.b	r7
8000541a:	bc 87       	st.b	lr[0x0],r7
// this will hopefully help optimize operator routines,
// which cannot be called less often than refresh/tx, and are therefore prioritized.
////////////////////////////////////////////////
// HACKED to always do var-bright update
////////////////////////////////////////////////
static void grid_map_mext( u8 x, u8 y, const u8* data ) {
8000541c:	19 95       	ld.ub	r5,r12[0x1]
8000541e:	0a 47       	or	r7,r5
  ptx = txBuf + 3;
  
  // copy and convert
  for(i=0; i<MONOME_QUAD_LEDS; i++) {
    // *ptx = 0;
    for(j=0; j<4; j++) {
80005420:	1c c7       	st.b	lr++,r7
80005422:	2f ec       	sub	r12,-2
// this will hopefully help optimize operator routines,
// which cannot be called less often than refresh/tx, and are therefore prioritized.
////////////////////////////////////////////////
// HACKED to always do var-bright update
////////////////////////////////////////////////
static void grid_map_mext( u8 x, u8 y, const u8* data ) {
80005424:	2f fb       	sub	r11,-1
80005426:	58 4b       	cp.w	r11,4
80005428:	cf 61       	brne	80005414 <grid_map_mext+0x2c>
8000542a:	2f f8       	sub	r8,-1
  txBuf[2] = y;
  
  ptx = txBuf + 3;
  
  // copy and convert
  for(i=0; i<MONOME_QUAD_LEDS; i++) {
8000542c:	2f 0a       	sub	r10,-16
8000542e:	5c 58       	castu.b	r8
80005430:	2f c9       	sub	r9,-4
80005432:	ec 08 18 00 	cp.b	r8,r6
80005436:	fe 98 ff ec 	brls	8000540e <grid_map_mext+0x26>
8000543a:	e0 6a 07 bc 	mov	r10,1980
      ptx++;
    }
    data += MONOME_QUAD_LEDS; // skip the rest of the row to get back in target quad
    // ptx++;
  }
  ftdi_write(txBuf, 32 + 3);
8000543e:	b4 8b       	st.b	r10[0x0],r11
  txBuf[2] = y;
  
  ptx = txBuf + 3;
  
  // copy and convert
  for(i=0; i<MONOME_QUAD_LEDS; i++) {
80005440:	e0 6a 07 c4 	mov	r10,1988
      ptx++;
    }
    data += MONOME_QUAD_LEDS; // skip the rest of the row to get back in target quad
    // ptx++;
  }
  ftdi_write(txBuf, 32 + 3);
80005444:	95 09       	st.w	r10[0x0],r9
80005446:	e0 69 07 65 	mov	r9,1893
}
8000544a:	32 3b       	mov	r11,35
8000544c:	b2 88       	st.b	r9[0x0],r8
8000544e:	e0 6c 07 68 	mov	r12,1896
80005452:	e0 a0 03 f5 	rcall	80005c3c <ftdi_write>
80005456:	d8 22       	popm	r4-r7,pc

80005458 <grid_map_series>:
80005458:	d4 21       	pushm	r4-r7,lr
8000545a:	30 78       	mov	r8,7
8000545c:	f0 0c 18 00 	cp.b	r12,r8
  static u8 * ptx;
  static u8 i, j;
  // command (upper nibble)
  txBuf[0] = 0x80;
  // quadrant index (lower nibble, 0-3)
  txBuf[0] |= ( (x > 7) | ((y > 7) << 1) );
80005460:	5f b9       	srhi	r9
80005462:	f6 08 18 00 	cp.b	r8,r11
80005466:	f9 bb 03 02 	movlo	r11,2
8000546a:	f9 bb 02 00 	movhs	r11,0
8000546e:	ea 19 ff ff 	orh	r9,0xffff
80005472:	e8 19 ff 80 	orl	r9,0xff80
80005476:	16 49       	or	r9,r11
80005478:	e0 6c 07 68 	mov	r12,1896
8000547c:	18 c9       	st.b	r12++,r9
8000547e:	e0 69 07 bd 	mov	r9,1981
  // pointer to tx data
  ptx = txBuf + 1;
  
  // copy and convert
  for(i=0; i<MONOME_QUAD_LEDS; i++) {
    *ptx = 0;
80005482:	13 8b       	ld.ub	r11,r9[0x0]

  // pointer to tx data
  ptx = txBuf + 1;
  
  // copy and convert
  for(i=0; i<MONOME_QUAD_LEDS; i++) {
80005484:	30 09       	mov	r9,0
    *ptx = 0;
80005486:	12 9e       	mov	lr,r9
    // print_dbg_hex(txBuf[(i*2) + 1]);
  }
  ftdi_write(txBuf, 16);
}

static void grid_map_series(u8 x, u8 y, const u8* data) {
80005488:	c1 98       	rjmp	800054ba <grid_map_series+0x62>
8000548a:	b8 8e       	st.b	r12[0x0],lr
8000548c:	f4 c7 ff f8 	sub	r7,r10,-8
  // copy and convert
  for(i=0; i<MONOME_QUAD_LEDS; i++) {
    *ptx = 0;
    for(j=0; j<MONOME_QUAD_LEDS; j++) {
      // binary value of data byte to bitfield of tx byte
      *ptx |= ((*data > VB_CUTOFF) << j);
80005490:	14 9b       	mov	r11,r10
80005492:	c0 a8       	rjmp	800054a6 <grid_map_series+0x4e>
80005494:	17 35       	ld.ub	r5,r11++
80005496:	f0 05 18 00 	cp.b	r5,r8
8000549a:	5f b5       	srhi	r5
8000549c:	ea 06 09 46 	lsl	r6,r5,r6
800054a0:	19 85       	ld.ub	r5,r12[0x0]
      ++data;
800054a2:	0a 46       	or	r6,r5
800054a4:	b8 86       	st.b	r12[0x0],r6
800054a6:	f6 0a 01 06 	sub	r6,r11,r10
  ptx = txBuf + 1;
  
  // copy and convert
  for(i=0; i<MONOME_QUAD_LEDS; i++) {
    *ptx = 0;
    for(j=0; j<MONOME_QUAD_LEDS; j++) {
800054aa:	5c 56       	castu.b	r6
800054ac:	0e 3b       	cp.w	r11,r7
800054ae:	cf 31       	brne	80005494 <grid_map_series+0x3c>
800054b0:	2f f9       	sub	r9,-1
800054b2:	2f 0a       	sub	r10,-16
800054b4:	5c 59       	castu.b	r9

  // pointer to tx data
  ptx = txBuf + 1;
  
  // copy and convert
  for(i=0; i<MONOME_QUAD_LEDS; i++) {
800054b6:	2f fc       	sub	r12,-1
800054b8:	30 8b       	mov	r11,8
800054ba:	f0 09 18 00 	cp.b	r9,r8
800054be:	fe 98 ff e6 	brls	8000548a <grid_map_series+0x32>
800054c2:	e0 68 07 b0 	mov	r8,1968
800054c6:	91 0c       	st.w	r8[0x0],r12
    // print_dbg_hex(*ptx);

    data += MONOME_QUAD_LEDS; // skip the rest of the row to get back in target quad
    ++ptx;
  }
  ftdi_write(txBuf, MONOME_QUAD_LEDS + 1);  
800054c8:	e0 68 07 bd 	mov	r8,1981
800054cc:	b0 8b       	st.b	r8[0x0],r11
800054ce:	e0 68 07 b4 	mov	r8,1972
}
800054d2:	30 9b       	mov	r11,9
800054d4:	b0 89       	st.b	r8[0x0],r9
800054d6:	e0 6c 07 68 	mov	r12,1896
800054da:	e0 a0 03 b1 	rcall	80005c3c <ftdi_write>
800054de:	d8 22       	popm	r4-r7,pc

800054e0 <grid_map_40h>:
800054e0:	d4 21       	pushm	r4-r7,lr
800054e2:	30 08       	mov	r8,0
800054e4:	18 4b       	or	r11,r12
800054e6:	f0 0b 18 00 	cp.b	r11,r8

static void grid_map_40h(u8 x, u8 y, const u8* data) {
  // print_dbg("\n\r=== grid_map_40h ===");
  static u8 i, j;
  // ignore all but first quadrant -- do any devices larger than 8x8 speak 40h?
  if (x != 0 || y != 0) {
800054ea:	c3 a1       	brne	8000555e <grid_map_40h+0x7e>
800054ec:	e0 68 07 bf 	mov	r8,1983
800054f0:	30 77       	mov	r7,7
800054f2:	11 8b       	ld.ub	r11,r8[0x0]
800054f4:	e0 69 07 68 	mov	r9,1896
    return;
  }
  for(i=0; i<MONOME_QUAD_LEDS; i++) {
800054f8:	30 08       	mov	r8,0
    // led row command + row number
    txBuf[(i*2)] = 0x70 + i;
800054fa:	10 9e       	mov	lr,r8
800054fc:	c2 28       	rjmp	80005540 <grid_map_40h+0x60>
800054fe:	f0 0c 15 01 	lsl	r12,r8,0x1
80005502:	f0 cb ff 90 	sub	r11,r8,-112
  }
  ftdi_write(txBuf, 32 + 3);
}


static void grid_map_40h(u8 x, u8 y, const u8* data) {
80005506:	f2 0c 0b 0b 	st.b	r9[r12],r11
    return;
  }
  for(i=0; i<MONOME_QUAD_LEDS; i++) {
    // led row command + row number
    txBuf[(i*2)] = 0x70 + i;
    txBuf[(i*2)+1] = 0;
8000550a:	f4 c6 ff f8 	sub	r6,r10,-8
8000550e:	2f fc       	sub	r12,-1
80005510:	14 9b       	mov	r11,r10
    // print_dbg("\r\n * data bytes: ");
    for(j=0; j<MONOME_QUAD_LEDS; j++) {
80005512:	f2 0c 0b 0e 	st.b	r9[r12],lr
      // set row bit if led should be on
      // print_dbg("0x");
      // print_dbg_hex(*data);
      // print_dbg(" ");
      txBuf[(i*2)+1] |= ((*data > 0) << j);
80005516:	c0 c8       	rjmp	8000552e <grid_map_40h+0x4e>
80005518:	17 34       	ld.ub	r4,r11++
8000551a:	fc 04 18 00 	cp.b	r4,lr
8000551e:	5f 14       	srne	r4
80005520:	e8 05 09 45 	lsl	r5,r4,r5
80005524:	f2 0c 07 04 	ld.ub	r4,r9[r12]
80005528:	08 45       	or	r5,r4
      // advance data to next bit
      ++data;
8000552a:	f2 0c 0b 05 	st.b	r9[r12],r5
8000552e:	f6 0a 01 05 	sub	r5,r11,r10
  for(i=0; i<MONOME_QUAD_LEDS; i++) {
    // led row command + row number
    txBuf[(i*2)] = 0x70 + i;
    txBuf[(i*2)+1] = 0;
    // print_dbg("\r\n * data bytes: ");
    for(j=0; j<MONOME_QUAD_LEDS; j++) {
80005532:	5c 55       	castu.b	r5
80005534:	0c 3b       	cp.w	r11,r6
80005536:	cf 11       	brne	80005518 <grid_map_40h+0x38>
80005538:	2f f8       	sub	r8,-1
8000553a:	2f 0a       	sub	r10,-16
  static u8 i, j;
  // ignore all but first quadrant -- do any devices larger than 8x8 speak 40h?
  if (x != 0 || y != 0) {
    return;
  }
  for(i=0; i<MONOME_QUAD_LEDS; i++) {
8000553c:	5c 58       	castu.b	r8
8000553e:	30 8b       	mov	r11,8
80005540:	ee 08 18 00 	cp.b	r8,r7
80005544:	fe 98 ff dd 	brls	800054fe <grid_map_40h+0x1e>
80005548:	e0 69 07 bf 	mov	r9,1983
8000554c:	b2 8b       	st.b	r9[0x0],r11
    // print_dbg("\n\r 40h: send led_row command: ");
    // print_dbg_hex(txBuf[i*2]);
    // print_dbg(" row data: 0x");
    // print_dbg_hex(txBuf[(i*2) + 1]);
  }
  ftdi_write(txBuf, 16);
8000554e:	e0 69 07 c0 	mov	r9,1984
80005552:	31 0b       	mov	r11,16
80005554:	b2 88       	st.b	r9[0x0],r8
80005556:	e0 6c 07 68 	mov	r12,1896
8000555a:	e0 a0 03 71 	rcall	80005c3c <ftdi_write>
8000555e:	d8 22       	popm	r4-r7,pc

80005560 <read_serial_series>:
80005560:	d4 31       	pushm	r0-r7,lr
80005562:	e0 a0 03 25 	rcall	80005bac <ftdi_rx_buf>
80005566:	e0 65 07 c8 	mov	r5,1992
}

static void read_serial_series(void) {
  u8* prx = ftdi_rx_buf();
  u8 i;
  rxBytes = ftdi_rx_bytes();
8000556a:	18 94       	mov	r4,r12
8000556c:	18 97       	mov	r7,r12
8000556e:	e0 63 07 d5 	mov	r3,2005
  *h = *pdata;
}

// grid key
static inline void monome_grid_key_write_event(u8 x, u8 y, u8 val) {
  u8* data = (u8*)(&(ev.data));
80005572:	e0 a0 03 21 	rcall	80005bb4 <ftdi_rx_bytes>
  /* print_dbg("; y: 0x"); */
  /* print_dbg_hex(y); */
  /* print_dbg("; z: 0x"); */
  /* print_dbg_hex(val); */

  ev.type = kEventMonomeGridKey;
80005576:	ea c6 ff fc 	sub	r6,r5,-4
  // print_dbg_hex(prx[0]);
  // print_dbg(" , 0x");
  // print_dbg_hex(prx[1]);
  // print_dbg(" ]");
  i = 0;
  while(i < rxBytes) {
8000557a:	30 c2       	mov	r2,12
    /* print_dbg(" ; z : 0x"); */
    /* print_dbg_hex(	 ((prx[0] & 0xf0) == 0) ); */
    
    // process consecutive pairs of bytes
    monome_grid_key_write_event( ((prx[1] & 0xf0) >> 4) ,
				 prx[1] & 0xf,
8000557c:	a6 8c       	st.b	r3[0x0],r12
8000557e:	c1 28       	rjmp	800055a2 <read_serial_series+0x42>

// grid key
static inline void monome_grid_key_write_event(u8 x, u8 y, u8 val) {
  u8* data = (u8*)(&(ev.data));
  data[0] = x;
  data[1] = y;
80005580:	0f 99       	ld.ub	r9,r7[0x1]
80005582:	0f 88       	ld.ub	r8,r7[0x0]
    /* print_dbg(" ; z : 0x"); */
    /* print_dbg_hex(	 ((prx[0] & 0xf0) == 0) ); */
    
    // process consecutive pairs of bytes
    monome_grid_key_write_event( ((prx[1] & 0xf0) >> 4) ,
				 prx[1] & 0xf,
80005584:	f5 d9 c0 04 	bfextu	r10,r9,0x0,0x4

// grid key
static inline void monome_grid_key_write_event(u8 x, u8 y, u8 val) {
  u8* data = (u8*)(&(ev.data));
  data[0] = x;
  data[1] = y;
80005588:	e2 18 00 f0 	andl	r8,0xf0,COH
  data[2] = val;
8000558c:	ac 9a       	st.b	r6[0x1],r10
  /* print_dbg("; y: 0x"); */
  /* print_dbg_hex(y); */
  /* print_dbg("; z: 0x"); */
  /* print_dbg_hex(val); */

  ev.type = kEventMonomeGridKey;
8000558e:	5f 08       	sreq	r8
}

// grid key
static inline void monome_grid_key_write_event(u8 x, u8 y, u8 val) {
  u8* data = (u8*)(&(ev.data));
  data[0] = x;
80005590:	ac a8       	st.b	r6[0x2],r8
    monome_grid_key_write_event( ((prx[1] & 0xf0) >> 4) ,
				 prx[1] & 0xf,
				 ((prx[0] & 0xf0) == 0)
				 );
    i += 2;
    prx += 2;
80005592:	8b 02       	st.w	r5[0x0],r2
}

// grid key
static inline void monome_grid_key_write_event(u8 x, u8 y, u8 val) {
  u8* data = (u8*)(&(ev.data));
  data[0] = x;
80005594:	a5 89       	lsr	r9,0x4
  /* print_dbg_hex(y); */
  /* print_dbg("; z: 0x"); */
  /* print_dbg_hex(val); */

  ev.type = kEventMonomeGridKey;
  event_post(&ev);
80005596:	2f e7       	sub	r7,-2
80005598:	ac 89       	st.b	r6[0x0],r9
8000559a:	e0 6c 07 c8 	mov	r12,1992
  // print_dbg_hex(prx[0]);
  // print_dbg(" , 0x");
  // print_dbg_hex(prx[1]);
  // print_dbg(" ]");
  i = 0;
  while(i < rxBytes) {
8000559e:	fe b0 fc 7d 	rcall	80004e98 <event_post>
800055a2:	0e 99       	mov	r9,r7
800055a4:	07 88       	ld.ub	r8,r3[0x0]
800055a6:	08 19       	sub	r9,r4
				 );
    i += 2;
    prx += 2;
  }

}
800055a8:	f0 09 18 00 	cp.b	r9,r8
800055ac:	ce a3       	brcs	80005580 <read_serial_series+0x20>
800055ae:	d8 32       	popm	r0-r7,pc

800055b0 <read_serial_40h>:
800055b0:	d4 31       	pushm	r0-r7,lr
800055b2:	e0 a0 02 fd 	rcall	80005bac <ftdi_rx_buf>
800055b6:	e0 65 07 c8 	mov	r5,1992
800055ba:	18 94       	mov	r4,r12
800055bc:	18 97       	mov	r7,r12
800055be:	e0 63 07 d5 	mov	r3,2005
  *h = *pdata;
}

// grid key
static inline void monome_grid_key_write_event(u8 x, u8 y, u8 val) {
  u8* data = (u8*)(&(ev.data));
800055c2:	e0 a0 02 f9 	rcall	80005bb4 <ftdi_rx_bytes>
  /* print_dbg("; y: 0x"); */
  /* print_dbg_hex(y); */
  /* print_dbg("; z: 0x"); */
  /* print_dbg_hex(val); */

  ev.type = kEventMonomeGridKey;
800055c6:	ea c6 ff fc 	sub	r6,r5,-4
  // print_dbg_hex(prx[0]);
  // print_dbg(" , 0x");
  // print_dbg_hex(prx[1]);
  // print_dbg(" ]");
  i = 0;
  while(i < rxBytes) {
800055ca:	30 c2       	mov	r2,12
    // print_dbg_hex(prx[1] & 0xf);
    // print_dbg(" ; z : 0x");
    // print_dbg_hex(   ((prx[0] & 0xf) != 0) );

    // press event
    if ((prx[0] & 0xf0) == 0) {
800055cc:	a6 8c       	st.b	r3[0x0],r12
800055ce:	c1 68       	rjmp	800055fa <read_serial_40h+0x4a>
800055d0:	0f 88       	ld.ub	r8,r7[0x0]
800055d2:	10 99       	mov	r9,r8
800055d4:	e2 19 00 f0 	andl	r9,0xf0,COH
// grid key
static inline void monome_grid_key_write_event(u8 x, u8 y, u8 val) {
  u8* data = (u8*)(&(ev.data));
  data[0] = x;
  data[1] = y;
  data[2] = val;
800055d8:	c1 01       	brne	800055f8 <read_serial_40h+0x48>
800055da:	f1 d8 c0 04 	bfextu	r8,r8,0x0,0x4
800055de:	5f 19       	srne	r9

// grid key
static inline void monome_grid_key_write_event(u8 x, u8 y, u8 val) {
  u8* data = (u8*)(&(ev.data));
  data[0] = x;
  data[1] = y;
800055e0:	0f 98       	ld.ub	r8,r7[0x1]
800055e2:	ac a9       	st.b	r6[0x2],r9
800055e4:	f3 d8 c0 04 	bfextu	r9,r8,0x0,0x4
}

// grid key
static inline void monome_grid_key_write_event(u8 x, u8 y, u8 val) {
  u8* data = (u8*)(&(ev.data));
  data[0] = x;
800055e8:	ac 99       	st.b	r6[0x1],r9
  /* print_dbg_hex(y); */
  /* print_dbg("; z: 0x"); */
  /* print_dbg_hex(val); */

  ev.type = kEventMonomeGridKey;
  event_post(&ev);
800055ea:	8b 02       	st.w	r5[0x0],r2
}

// grid key
static inline void monome_grid_key_write_event(u8 x, u8 y, u8 val) {
  u8* data = (u8*)(&(ev.data));
  data[0] = x;
800055ec:	a5 88       	lsr	r8,0x4
  /* print_dbg_hex(y); */
  /* print_dbg("; z: 0x"); */
  /* print_dbg_hex(val); */

  ev.type = kEventMonomeGridKey;
  event_post(&ev);
800055ee:	e0 6c 07 c8 	mov	r12,1992
        ((prx[0] & 0xf) != 0)
      );
    }
    
    i += 2;
    prx += 2;
800055f2:	ac 88       	st.b	r6[0x0],r8
  // print_dbg_hex(prx[0]);
  // print_dbg(" , 0x");
  // print_dbg_hex(prx[1]);
  // print_dbg(" ]");
  i = 0;
  while(i < rxBytes) {
800055f4:	fe b0 fc 52 	rcall	80004e98 <event_post>
800055f8:	2f e7       	sub	r7,-2
800055fa:	0e 99       	mov	r9,r7
800055fc:	07 88       	ld.ub	r8,r3[0x0]
800055fe:	08 19       	sub	r9,r4
    }
    
    i += 2;
    prx += 2;
  }
}
80005600:	f0 09 18 00 	cp.b	r9,r8
80005604:	ce 63       	brcs	800055d0 <read_serial_40h+0x20>
80005606:	d8 32       	popm	r0-r7,pc

80005608 <read_serial_mext>:
80005608:	d4 31       	pushm	r0-r7,lr
8000560a:	e0 67 07 d5 	mov	r7,2005
8000560e:	e0 a0 02 d3 	rcall	80005bb4 <ftdi_rx_bytes>
80005612:	ae 8c       	st.b	r7[0x0],r12
80005614:	c5 e0       	breq	800056d0 <read_serial_mext+0xc8>
80005616:	e0 68 07 64 	mov	r8,1892
  static u8* prx; // pointer to rx buf
  static u8 com;
  
  rxBytes = ftdi_rx_bytes();
  if( rxBytes ) {
    nbp = 0;
8000561a:	30 09       	mov	r9,0
  // TODO
}

// ring encoder
static inline void monome_ring_enc_write_event( u8 n, u8 val) {
  u8* data = (u8*)(&(ev.data));
8000561c:	10 96       	mov	r6,r8
  static u8 com;
  
  rxBytes = ftdi_rx_bytes();
  if( rxBytes ) {
    nbp = 0;
    prx = ftdi_rx_buf();
8000561e:	b0 89       	st.b	r8[0x0],r9
80005620:	e0 64 07 c8 	mov	r4,1992
80005624:	e0 a0 02 c4 	rcall	80005bac <ftdi_rx_buf>
  // TODO
}

// ring encoder
static inline void monome_ring_enc_write_event( u8 n, u8 val) {
  u8* data = (u8*)(&(ev.data));
80005628:	e0 60 07 d4 	mov	r0,2004
   // print_dbg("\r\n monome.c wrote event; n: 0x"); 
   // print_dbg_hex(n); 
   // print_dbg("; d: 0x"); 
   // print_dbg_hex(val); 

  ev.type = kEventMonomeRingEnc;
8000562c:	e0 67 07 d0 	mov	r7,2000
  static u8 com;
  
  rxBytes = ftdi_rx_bytes();
  if( rxBytes ) {
    nbp = 0;
    prx = ftdi_rx_buf();
80005630:	35 03       	mov	r3,80
    while(nbp < rxBytes) {
80005632:	e8 c5 ff fc 	sub	r5,r4,-4
      com = (u8)(*(prx++));    
      nbp++;
80005636:	30 d1       	mov	r1,13
80005638:	35 12       	mov	r2,81
  rxBytes = ftdi_rx_bytes();
  if( rxBytes ) {
    nbp = 0;
    prx = ftdi_rx_buf();
    while(nbp < rxBytes) {
      com = (u8)(*(prx++));    
8000563a:	8f 0c       	st.w	r7[0x0],r12
8000563c:	c4 28       	rjmp	800056c0 <read_serial_mext+0xb8>
      nbp++;
8000563e:	2f f8       	sub	r8,-1
  rxBytes = ftdi_rx_bytes();
  if( rxBytes ) {
    nbp = 0;
    prx = ftdi_rx_buf();
    while(nbp < rxBytes) {
      com = (u8)(*(prx++));    
80005640:	f5 d8 c0 08 	bfextu	r10,r8,0x0,0x8
      nbp++;
      switch(com) {
80005644:	6e 08       	ld.w	r8,r7[0x0]
80005646:	11 39       	ld.ub	r9,r8++
80005648:	ac 8a       	st.b	r6[0x0],r10
8000564a:	a0 89       	st.b	r0[0x0],r9
8000564c:	8f 08       	st.w	r7[0x0],r8
8000564e:	e6 09 18 00 	cp.b	r9,r3
80005652:	c2 30       	breq	80005698 <read_serial_mext+0x90>
80005654:	e0 8b 00 0b 	brhi	8000566a <read_serial_mext+0x62>
80005658:	32 0a       	mov	r10,32
8000565a:	f4 09 18 00 	cp.b	r9,r10
8000565e:	c0 e0       	breq	8000567a <read_serial_mext+0x72>
80005660:	32 1a       	mov	r10,33
80005662:	f4 09 18 00 	cp.b	r9,r10
80005666:	c3 51       	brne	800056d0 <read_serial_mext+0xc8>
80005668:	c0 f8       	rjmp	80005686 <read_serial_mext+0x7e>
8000566a:	e4 09 18 00 	cp.b	r9,r2
8000566e:	c2 20       	breq	800056b2 <read_serial_mext+0xaa>
}

// grid key
static inline void monome_grid_key_write_event(u8 x, u8 y, u8 val) {
  u8* data = (u8*)(&(ev.data));
  data[0] = x;
80005670:	35 2b       	mov	r11,82
    while(nbp < rxBytes) {
      com = (u8)(*(prx++));    
      nbp++;
      switch(com) {
      case 0x20: // grid key up
	monome_grid_key_write_event( *prx, *(prx+1), 0);
80005672:	f6 09 18 00 	cp.b	r9,r11

// grid key
static inline void monome_grid_key_write_event(u8 x, u8 y, u8 val) {
  u8* data = (u8*)(&(ev.data));
  data[0] = x;
  data[1] = y;
80005676:	c2 d1       	brne	800056d0 <read_serial_mext+0xc8>
  data[2] = val;
80005678:	c2 08       	rjmp	800056b8 <read_serial_mext+0xb0>
8000567a:	11 89       	ld.ub	r9,r8[0x0]
}

// grid key
static inline void monome_grid_key_write_event(u8 x, u8 y, u8 val) {
  u8* data = (u8*)(&(ev.data));
  data[0] = x;
8000567c:	11 98       	ld.ub	r8,r8[0x1]
	monome_grid_key_write_event( *prx, *(prx+1), 0);
	nbp += 2;
	prx += 2;
	break;
      case 0x21: // grid key down
	monome_grid_key_write_event( *prx, *(prx+1), 1);
8000567e:	aa 89       	st.b	r5[0x0],r9
}

// grid key
static inline void monome_grid_key_write_event(u8 x, u8 y, u8 val) {
  u8* data = (u8*)(&(ev.data));
  data[0] = x;
80005680:	aa 98       	st.b	r5[0x1],r8
  data[1] = y;
80005682:	30 08       	mov	r8,0
  data[2] = val;
80005684:	c0 68       	rjmp	80005690 <read_serial_mext+0x88>
80005686:	11 89       	ld.ub	r9,r8[0x0]
  /* print_dbg("; y: 0x"); */
  /* print_dbg_hex(y); */
  /* print_dbg("; z: 0x"); */
  /* print_dbg_hex(val); */

  ev.type = kEventMonomeGridKey;
80005688:	11 98       	ld.ub	r8,r8[0x1]
8000568a:	aa 89       	st.b	r5[0x0],r9
8000568c:	aa 98       	st.b	r5[0x1],r8
}

// ring encoder
static inline void monome_ring_enc_write_event( u8 n, u8 val) {
  u8* data = (u8*)(&(ev.data));
  data[0] = n;
8000568e:	30 18       	mov	r8,1
	monome_grid_key_write_event( *prx, *(prx+1), 1);
	nbp += 2;
	prx += 2;
	break;
	case 0x50: // ring delta
	monome_ring_enc_write_event( *prx, *(prx+1));
80005690:	aa a8       	st.b	r5[0x2],r8
}

// ring encoder
static inline void monome_ring_enc_write_event( u8 n, u8 val) {
  u8* data = (u8*)(&(ev.data));
  data[0] = n;
80005692:	30 c8       	mov	r8,12
  data[1] = val;
80005694:	89 08       	st.w	r4[0x0],r8
   // print_dbg("\r\n monome.c wrote event; n: 0x"); 
   // print_dbg_hex(n); 
   // print_dbg("; d: 0x"); 
   // print_dbg_hex(val); 

  ev.type = kEventMonomeRingEnc;
80005696:	c0 68       	rjmp	800056a2 <read_serial_mext+0x9a>
  event_post(&ev);
80005698:	11 89       	ld.ub	r9,r8[0x0]
8000569a:	11 98       	ld.ub	r8,r8[0x1]
8000569c:	aa 89       	st.b	r5[0x0],r9
	nbp += 2;
	prx += 2;
	break;
	case 0x50: // ring delta
	monome_ring_enc_write_event( *prx, *(prx+1));
	nbp += 2;
8000569e:	aa 98       	st.b	r5[0x1],r8
800056a0:	89 01       	st.w	r4[0x0],r1
800056a2:	e0 6c 07 c8 	mov	r12,1992
	prx += 2;
	break;
      case 0x51 : // ring key up
	monome_ring_key_write_event( *prx++, 0);
	prx++;
800056a6:	fe b0 fb f9 	rcall	80004e98 <event_post>
	break;
800056aa:	0d 88       	ld.ub	r8,r6[0x0]
      case 0x52 : // ring key down
	monome_ring_key_write_event( *prx++, 1);
800056ac:	2f e8       	sub	r8,-2
	nbp++;
800056ae:	ac 88       	st.b	r6[0x0],r8
      case 0x51 : // ring key up
	monome_ring_key_write_event( *prx++, 0);
	prx++;
	break;
      case 0x52 : // ring key down
	monome_ring_key_write_event( *prx++, 1);
800056b0:	6e 08       	ld.w	r8,r7[0x0]
	nbp++;
800056b2:	2f e8       	sub	r8,-2
  
  rxBytes = ftdi_rx_bytes();
  if( rxBytes ) {
    nbp = 0;
    prx = ftdi_rx_buf();
    while(nbp < rxBytes) {
800056b4:	8f 08       	st.w	r7[0x0],r8
800056b6:	c0 58       	rjmp	800056c0 <read_serial_mext+0xb8>
800056b8:	2f f8       	sub	r8,-1
800056ba:	2f fa       	sub	r10,-1
800056bc:	8f 08       	st.w	r7[0x0],r8
800056be:	ac 8a       	st.b	r6[0x0],r10
800056c0:	e0 6a 07 d5 	mov	r10,2005
800056c4:	0d 88       	ld.ub	r8,r6[0x0]
800056c6:	15 89       	ld.ub	r9,r10[0x0]
800056c8:	f0 09 18 00 	cp.b	r9,r8
800056cc:	fe 9b ff b9 	brhi	8000563e <read_serial_mext+0x36>
800056d0:	d8 32       	popm	r0-r7,pc
800056d2:	d7 03       	nop

800056d4 <monome_connect_write_event>:
800056d4:	d4 01       	pushm	lr
800056d6:	32 09       	mov	r9,32
800056d8:	f3 3b 00 09 	ld.ub	r11,r9[9]
800056dc:	e0 68 07 c8 	mov	r8,1992
800056e0:	f0 ca ff fb 	sub	r10,r8,-5
  // print_dbg_ulong(mdesc.cols);
  // print_dbg(" rows: ");
  // print_dbg_ulong(mdesc.rows);

  ev.type = kEventMonomeConnect;
  ev.type = kEventMonomeConnect;
800056e4:	b4 9b       	st.b	r10[0x1],r11
  *data++ = (u8)(mdesc.device); 	// device (8bits)
  *data++ = mdesc.cols;		// width / count
  *data++ = mdesc.rows;		// height / resolution
  //  *data = 0; 		// unused
  event_post(&ev);
800056e6:	30 8b       	mov	r11,8
  // print_dbg_ulong(mdesc.cols);
  // print_dbg(" rows: ");
  // print_dbg_ulong(mdesc.rows);

  ev.type = kEventMonomeConnect;
  ev.type = kEventMonomeConnect;
800056e8:	10 9c       	mov	r12,r8
  *data++ = (u8)(mdesc.device); 	// device (8bits)
800056ea:	91 0b       	st.w	r8[0x0],r11
800056ec:	72 1b       	ld.w	r11,r9[0x4]
  *data++ = mdesc.cols;		// width / count
800056ee:	b0 cb       	st.b	r8[0x4],r11
800056f0:	f3 38 00 08 	ld.ub	r8,r9[8]
  *data++ = mdesc.rows;		// height / resolution
  //  *data = 0; 		// unused
  event_post(&ev);
800056f4:	b4 88       	st.b	r10[0x0],r8
800056f6:	fe b0 fb d1 	rcall	80004e98 <event_post>
}
800056fa:	d8 02       	popm	pc

800056fc <setup_series>:
800056fc:	d4 01       	pushm	lr
800056fe:	30 1a       	mov	r10,1
80005700:	32 08       	mov	r8,32
80005702:	f1 6a 00 0b 	st.b	r8[11],r10
80005706:	91 0a       	st.w	r8[0x0],r10
//----  function pointer arrays

// read serial and spawn events
static const read_serial_t readSerialFuncs[eProtocolNumProtocols] = {
  &read_serial_40h,
  &read_serial_series,
80005708:	33 0a       	mov	r10,48

// setup series device
static void setup_series(u8 cols, u8 rows) {
  // print_dbg("\r\n setup series device");
  mdesc.protocol = eProtocolSeries;
  mdesc.device = eDeviceGrid;
8000570a:	30 09       	mov	r9,0
  mdesc.cols = cols;
8000570c:	f1 6c 00 08 	st.b	r8[8],r12
  mdesc.rows = rows;
80005710:	f1 6b 00 09 	st.b	r8[9],r11

// setup series device
static void setup_series(u8 cols, u8 rows) {
  // print_dbg("\r\n setup series device");
  mdesc.protocol = eProtocolSeries;
  mdesc.device = eDeviceGrid;
80005714:	91 19       	st.w	r8[0x4],r9
  mdesc.cols = cols;
  mdesc.rows = rows;
  mdesc.vari = 0;
80005716:	f1 69 00 0c 	st.b	r8[12],r9
//----  function pointer arrays

// read serial and spawn events
static const read_serial_t readSerialFuncs[eProtocolNumProtocols] = {
  &read_serial_40h,
  &read_serial_series,
8000571a:	fe cb 01 ba 	sub	r11,pc,442
8000571e:	fe c8 02 c6 	sub	r8,pc,710
// set function pointers
static inline void set_funcs(void) {
  // print_dbg("\r\n setting monome functions, protocol idx: ");
  // print_dbg_ulong(mdesc.protocol);
  monome_read_serial = readSerialFuncs[mdesc.protocol];
  monome_grid_map = gridMapFuncs[mdesc.protocol];
80005722:	95 0b       	st.w	r10[0x0],r11
  monome_grid_level_map = gridMapFuncs[mdesc.protocol];
80005724:	e0 6a 1a d4 	mov	r10,6868
  monome_ring_map = ringMapFuncs[mdesc.protocol];
80005728:	95 08       	st.w	r10[0x0],r8
8000572a:	e0 6a 1b e0 	mov	r10,7136
};

// set intensity
static const set_intense_t intenseFuncs[eProtocolNumProtocols] = {
  NULL, // unsupported
  &set_intense_series,
8000572e:	95 08       	st.w	r10[0x0],r8
80005730:	e0 68 1a d8 	mov	r8,6872
  &ring_map_mext,
};

// grid vs arc refresh
static const refresh_t refreshFuncs[eProtocolNumProtocols] = {
  &monome_grid_refresh,
80005734:	91 09       	st.w	r8[0x0],r9
80005736:	fe c9 03 b6 	sub	r9,pc,950
  mdesc.cols = cols;
  mdesc.rows = rows;
  mdesc.vari = 0;
  mdesc.tilt = 1;
  set_funcs();
  monome_connect_write_event();
8000573a:	e0 68 1b dc 	mov	r8,7132
  //  monomeConnect = 1;
  //  test_draw();
}
8000573e:	91 09       	st.w	r8[0x0],r9
80005740:	fe c9 05 64 	sub	r9,pc,1380
80005744:	e0 68 1a d0 	mov	r8,6864
80005748:	91 09       	st.w	r8[0x0],r9
8000574a:	cc 5f       	rcall	800056d4 <monome_connect_write_event>
8000574c:	d8 02       	popm	pc
8000574e:	d7 03       	nop

80005750 <check_monome_device_desc>:
80005750:	d4 21       	pushm	r4-r7,lr
80005752:	20 5d       	sub	sp,20
80005754:	14 95       	mov	r5,r10
80005756:	1a 96       	mov	r6,sp
80005758:	fa c9 ff fa 	sub	r9,sp,-6
8000575c:	1a 98       	mov	r8,sp
8000575e:	19 8a       	ld.ub	r10,r12[0x0]
80005760:	2f ec       	sub	r12,-2
80005762:	10 ca       	st.b	r8++,r10
80005764:	12 38       	cp.w	r8,r9
80005766:	cf c1       	brne	8000575e <check_monome_device_desc+0xe>
80005768:	30 08       	mov	r8,0
8000576a:	30 6a       	mov	r10,6
8000576c:	ba e8       	st.b	sp[0x6],r8
8000576e:	fe cb bf 52 	sub	r11,pc,-16558
  // manufacturer
  for(i=0; i<MONOME_MANSTR_LEN; i++) {
    buf[i] = mstr[i*2];
  }
  buf[i] = 0;
  matchMan = ( strncmp(buf, "monome", MONOME_MANSTR_LEN) == 0 );
80005772:	1a 9c       	mov	r12,sp
80005774:	e0 a0 1b 06 	rcall	80008d80 <strncmp>
  }
  //  print_dbg("\r\n finished monome class init");
}

// determine if FTDI string descriptors match monome device pattern
u8 check_monome_device_desc(char* mstr, char* pstr, char* sstr) { 
80005778:	ec c8 ff f7 	sub	r8,r6,-9
  /* print_dbg("\r\n manstring: "); */
  /* print_dbg(buf); */
 
  // serial number string
  for(i=0; i<MONOME_SERSTR_LEN; i++) {
    buf[i] = sstr[i*2];
8000577c:	18 97       	mov	r7,r12
8000577e:	0b 89       	ld.ub	r9,r5[0x0]
80005780:	2f e5       	sub	r5,-2
  matchMan = ( strncmp(buf, "monome", MONOME_MANSTR_LEN) == 0 );
  /* print_dbg("\r\n manstring: "); */
  /* print_dbg(buf); */
 
  // serial number string
  for(i=0; i<MONOME_SERSTR_LEN; i++) {
80005782:	0c c9       	st.b	r6++,r9
80005784:	10 36       	cp.w	r6,r8
    buf[i] = sstr[i*2];
  }
  buf[i] = 0;
80005786:	cf c1       	brne	8000577e <check_monome_device_desc+0x2e>
80005788:	30 08       	mov	r8,0
8000578a:	fb 68 00 09 	st.b	sp[9],r8
  /* print_dbg("\r\n serial string: "); */
  /* print_dbg(buf); */
  if(matchMan == 0) {
8000578e:	58 07       	cp.w	r7,0
    // didn't match the manufacturer string, but check the serial for DIYs
    if( strncmp(buf, "a40h", 4) == 0) {
80005790:	c1 30       	breq	800057b6 <check_monome_device_desc+0x66>
80005792:	30 4a       	mov	r10,4
80005794:	fe cb bf 70 	sub	r11,pc,-16528
80005798:	1a 9c       	mov	r12,sp
8000579a:	e0 a0 1a f3 	rcall	80008d80 <strncmp>
8000579e:	18 99       	mov	r9,r12
      // this is probably an arduinome      
      mdesc.protocol = eProtocol40h;
800057a0:	e0 81 01 21 	brne	800059e2 <check_monome_device_desc+0x292>
      mdesc.device = eDeviceGrid;
800057a4:	32 08       	mov	r8,32
      mdesc.cols = 8;
800057a6:	91 09       	st.w	r8[0x0],r9
      mdesc.rows = 8;
800057a8:	91 19       	st.w	r8[0x4],r9
800057aa:	30 89       	mov	r9,8
    // didn't match the manufacturer string, but check the serial for DIYs
    if( strncmp(buf, "a40h", 4) == 0) {
      // this is probably an arduinome      
      mdesc.protocol = eProtocol40h;
      mdesc.device = eDeviceGrid;
      mdesc.cols = 8;
800057ac:	f1 69 00 09 	st.b	r8[9],r9
    // if we got here, serial number didn't match series or 40h patterns.
    // so this is probably an extended-protocol device.
    // we need to query for device attributes
    return setup_mext();
  }
  return 0;
800057b0:	f1 69 00 08 	st.b	r8[8],r9
    } else {
      // not a monome
      return 0;
    }
  } else { // matched manufctrr string
    if(buf[0] != 'm') {
800057b4:	c1 89       	rjmp	800059e4 <check_monome_device_desc+0x294>
800057b6:	36 d8       	mov	r8,109
800057b8:	1b 89       	ld.ub	r9,sp[0x0]
800057ba:	f0 09 18 00 	cp.b	r9,r8
      // not a monome, somehow. shouldn't happen
      return 0;
    }
    if(buf[3] == 'h') {
800057be:	e0 81 01 12 	brne	800059e2 <check_monome_device_desc+0x292>
800057c2:	36 88       	mov	r8,104
800057c4:	1b b9       	ld.ub	r9,sp[0x3]
800057c6:	f0 09 18 00 	cp.b	r9,r8
// setup

// setup 40h-protocol device
static void setup_40h(u8 cols, u8 rows) {
  // print_dbg("\r\n setup 40h device");
  mdesc.protocol = eProtocol40h;
800057ca:	c2 01       	brne	8000580a <check_monome_device_desc+0xba>
  mdesc.device = eDeviceGrid;
  mdesc.cols = 8;
  mdesc.rows = 8;
800057cc:	30 89       	mov	r9,8
800057ce:	32 08       	mov	r8,32
// setup 40h-protocol device
static void setup_40h(u8 cols, u8 rows) {
  // print_dbg("\r\n setup 40h device");
  mdesc.protocol = eProtocol40h;
  mdesc.device = eDeviceGrid;
  mdesc.cols = 8;
800057d0:	f1 69 00 09 	st.b	r8[9],r9

//----  function pointer arrays

// read serial and spawn events
static const read_serial_t readSerialFuncs[eProtocolNumProtocols] = {
  &read_serial_40h,
800057d4:	f1 69 00 08 	st.b	r8[8],r9
  // print_dbg("\r\n setup 40h device");
  mdesc.protocol = eProtocol40h;
  mdesc.device = eDeviceGrid;
  mdesc.cols = 8;
  mdesc.rows = 8;
  mdesc.vari = 0;
800057d8:	33 09       	mov	r9,48
// setup

// setup 40h-protocol device
static void setup_40h(u8 cols, u8 rows) {
  // print_dbg("\r\n setup 40h device");
  mdesc.protocol = eProtocol40h;
800057da:	f1 67 00 0c 	st.b	r8[12],r7

//----  function pointer arrays

// read serial and spawn events
static const read_serial_t readSerialFuncs[eProtocolNumProtocols] = {
  &read_serial_40h,
800057de:	91 07       	st.w	r8[0x0],r7
/*   &grid_led_mext, */
/* }; */

// grid/map
static const grid_map_t gridMapFuncs[eProtocolNumProtocols] = {
  &grid_map_40h,
800057e0:	91 17       	st.w	r8[0x4],r7

//----  function pointer arrays

// read serial and spawn events
static const read_serial_t readSerialFuncs[eProtocolNumProtocols] = {
  &read_serial_40h,
800057e2:	fe ca 02 32 	sub	r10,pc,562
// set function pointers
static inline void set_funcs(void) {
  // print_dbg("\r\n setting monome functions, protocol idx: ");
  // print_dbg_ulong(mdesc.protocol);
  monome_read_serial = readSerialFuncs[mdesc.protocol];
  monome_grid_map = gridMapFuncs[mdesc.protocol];
800057e6:	fe c8 03 06 	sub	r8,pc,774
  monome_grid_level_map = gridMapFuncs[mdesc.protocol];
800057ea:	93 0a       	st.w	r9[0x0],r10
  monome_ring_map = ringMapFuncs[mdesc.protocol];
800057ec:	e0 69 1a d4 	mov	r9,6868
800057f0:	93 08       	st.w	r9[0x0],r8
  monome_set_intense = intenseFuncs[mdesc.protocol];
800057f2:	e0 69 1b e0 	mov	r9,7136
800057f6:	93 08       	st.w	r9[0x0],r8
    if(buf[3] == 'h') {
      // this is a 40h
      setup_40h(8, 8);
      return 1;
    }
    if( strncmp(buf, "m64-", 4) == 0 ) {
800057f8:	e0 68 1a d8 	mov	r8,6872
800057fc:	fe c9 06 20 	sub	r9,pc,1568
80005800:	91 07       	st.w	r8[0x0],r7
80005802:	e0 68 1b dc 	mov	r8,7132
      // series 64
      setup_series(8, 8);
80005806:	91 07       	st.w	r8[0x0],r7
80005808:	ce 78       	rjmp	800059d6 <check_monome_device_desc+0x286>
      return 1;
    }
    if( strncmp(buf, "m128-", 5) == 0 ) {
8000580a:	1a 96       	mov	r6,sp
8000580c:	30 4a       	mov	r10,4
8000580e:	fe cb bf e2 	sub	r11,pc,-16414
80005812:	1a 9c       	mov	r12,sp
80005814:	e0 a0 1a b6 	rcall	80008d80 <strncmp>
      // series 128
      setup_series(16, 8);
80005818:	c0 31       	brne	8000581e <check_monome_device_desc+0xce>
8000581a:	30 8b       	mov	r11,8
      return 1;
    }
    if( strncmp(buf, "m256-", 5) == 0 ) {
8000581c:	c1 38       	rjmp	80005842 <check_monome_device_desc+0xf2>
8000581e:	30 5a       	mov	r10,5
80005820:	fe cb bf ec 	sub	r11,pc,-16404
80005824:	1a 9c       	mov	r12,sp
80005826:	e0 a0 1a ad 	rcall	80008d80 <strncmp>
      // series 256
      setup_series(16, 16);
8000582a:	c0 41       	brne	80005832 <check_monome_device_desc+0xe2>
8000582c:	30 8b       	mov	r11,8
8000582e:	31 0c       	mov	r12,16
80005830:	c0 a8       	rjmp	80005844 <check_monome_device_desc+0xf4>
  u8* prx;
  u8 w = 0;
  u8 busy;

  // print_dbg("\r\n setup mext device");
  mdesc.protocol = eProtocolMext;
80005832:	1a 9c       	mov	r12,sp
80005834:	30 5a       	mov	r10,5
}

// setup extended device, return success /failure of query
static u8 setup_mext(void) {
  u8* prx;
  u8 w = 0;
80005836:	fe cb bf fa 	sub	r11,pc,-16390
  u8 busy;

  // print_dbg("\r\n setup mext device");
  mdesc.protocol = eProtocolMext;
8000583a:	e0 a0 1a a3 	rcall	80008d80 <strncmp>

  mdesc.vari = 1;
8000583e:	c0 51       	brne	80005848 <check_monome_device_desc+0xf8>
 *
 * \return the converted number of CPU cycles.
 */
__always_inline static uint32_t cpu_ms_2_cy(unsigned long ms, unsigned long fcpu_hz)
{
  return ((unsigned long long)ms * fcpu_hz + 999) / 1000;
80005840:	31 0b       	mov	r11,16
80005842:	16 9c       	mov	r12,r11
80005844:	c5 cf       	rcall	800056fc <setup_series>
80005846:	cc c8       	rjmp	800059de <check_monome_device_desc+0x28e>
80005848:	32 08       	mov	r8,32
8000584a:	30 29       	mov	r9,2
8000584c:	fb 67 00 13 	st.b	sp[19],r7
80005850:	91 09       	st.w	r8[0x0],r9
80005852:	0e 9b       	mov	r11,r7
80005854:	30 19       	mov	r9,1
80005856:	30 07       	mov	r7,0
80005858:	f1 69 00 0c 	st.b	r8[12],r9
8000585c:	e0 68 03 e8 	mov	r8,1000
80005860:	30 09       	mov	r9,0
80005862:	e0 66 03 e7 	mov	r6,999
 * \param  delay:   (input) delay in CPU cycles before timeout.
 * \param  cpu_time: (output) internal information used by the timer API.
 */
__always_inline static void cpu_set_timeout(unsigned long delay, t_cpu_time *cpu_time)
{
  cpu_time->delay_start_cycle = Get_system_register(AVR32_COUNT);
80005866:	e0 6a 87 00 	mov	r10,34560
  cpu_time->delay_end_cycle   = cpu_time->delay_start_cycle + delay;
8000586a:	ea 1a 03 93 	orh	r10,0x393
 *
 * \return true if timeout occurred, otherwise false.
 */
__always_inline static unsigned long cpu_is_timeout(t_cpu_time *cpu_time)
{
  unsigned long current_cycle_count = Get_system_register(AVR32_COUNT);
8000586e:	0c 0a       	add	r10,r6
  // Test if the timeout as already occurred.
  else if (cpu_time->timer_state == CPU_TIMER_STATE_REACHED)
    return true;

  // If the ending cycle count of this timeout is wrapped, ...
  else if (cpu_time->delay_start_cycle > cpu_time->delay_end_cycle)
80005870:	f6 07 00 4b 	adc	r11,r11,r7
80005874:	e0 a0 16 10 	rcall	80008494 <__avr32_udiv64>
  {
    if (current_cycle_count < cpu_time->delay_start_cycle && current_cycle_count > cpu_time->delay_end_cycle)
80005878:	14 97       	mov	r7,r10
8000587a:	e1 b8 00 42 	mfsr	r8,0x108
8000587e:	f0 0a 00 0a 	add	r10,r8,r10
80005882:	e1 b9 00 42 	mfsr	r9,0x108
80005886:	14 38       	cp.w	r8,r10
80005888:	e0 88 00 06 	brls	80005894 <check_monome_device_desc+0x144>
8000588c:	10 39       	cp.w	r9,r8
8000588e:	cf a2       	brcc	80005882 <check_monome_device_desc+0x132>
80005890:	c0 58       	rjmp	8000589a <check_monome_device_desc+0x14a>
80005892:	d7 03       	nop
80005894:	10 39       	cp.w	r9,r8
80005896:	e0 83 00 a9 	brlo	800059e8 <check_monome_device_desc+0x298>
8000589a:	14 39       	cp.w	r9,r10
8000589c:	e0 8b 00 a6 	brhi	800059e8 <check_monome_device_desc+0x298>
800058a0:	cf 1b       	rjmp	80005882 <check_monome_device_desc+0x132>
800058a2:	e1 b9 00 42 	mfsr	r9,0x108
800058a6:	14 38       	cp.w	r8,r10
800058a8:	e0 88 00 05 	brls	800058b2 <check_monome_device_desc+0x162>
800058ac:	10 39       	cp.w	r9,r8
800058ae:	cf a2       	brcc	800058a2 <check_monome_device_desc+0x152>
800058b0:	c0 48       	rjmp	800058b8 <check_monome_device_desc+0x168>
800058b2:	10 39       	cp.w	r9,r8
800058b4:	e0 83 00 a3 	brlo	800059fa <check_monome_device_desc+0x2aa>
800058b8:	14 39       	cp.w	r9,r10
800058ba:	e0 8b 00 a0 	brhi	800059fa <check_monome_device_desc+0x2aa>
800058be:	cf 2b       	rjmp	800058a2 <check_monome_device_desc+0x152>
    }
    return false;
  }
  else
  {
    if (current_cycle_count < cpu_time->delay_start_cycle || current_cycle_count > cpu_time->delay_end_cycle)
800058c0:	e1 b9 00 42 	mfsr	r9,0x108
800058c4:	0e 38       	cp.w	r8,r7
800058c6:	e0 88 00 05 	brls	800058d0 <check_monome_device_desc+0x180>
800058ca:	10 39       	cp.w	r9,r8
800058cc:	cf a2       	brcc	800058c0 <check_monome_device_desc+0x170>
 *
 * \return true if timeout occurred, otherwise false.
 */
__always_inline static unsigned long cpu_is_timeout(t_cpu_time *cpu_time)
{
  unsigned long current_cycle_count = Get_system_register(AVR32_COUNT);
800058ce:	c0 38       	rjmp	800058d4 <check_monome_device_desc+0x184>
800058d0:	10 39       	cp.w	r9,r8
  // Test if the timeout as already occurred.
  else if (cpu_time->timer_state == CPU_TIMER_STATE_REACHED)
    return true;

  // If the ending cycle count of this timeout is wrapped, ...
  else if (cpu_time->delay_start_cycle > cpu_time->delay_end_cycle)
800058d2:	c0 43       	brcs	800058da <check_monome_device_desc+0x18a>
800058d4:	0e 39       	cp.w	r9,r7
800058d6:	fe 98 ff f5 	brls	800058c0 <check_monome_device_desc+0x170>
  {
    if (current_cycle_count < cpu_time->delay_start_cycle && current_cycle_count > cpu_time->delay_end_cycle)
800058da:	c7 1d       	rcall	80005bbc <ftdi_rx_busy>
800058dc:	cf f1       	brne	800058da <check_monome_device_desc+0x18a>
    }
    return false;
  }
  else
  {
    if (current_cycle_count < cpu_time->delay_start_cycle || current_cycle_count > cpu_time->delay_end_cycle)
800058de:	c6 bd       	rcall	80005bb4 <ftdi_rx_bytes>
800058e0:	e0 68 07 d5 	mov	r8,2005
800058e4:	b0 8c       	st.b	r8[0x0],r12
800058e6:	30 68       	mov	r8,6
800058e8:	f0 0c 18 00 	cp.b	r12,r8
 *
 * \return true if timeout occurred, otherwise false.
 */
__always_inline static unsigned long cpu_is_timeout(t_cpu_time *cpu_time)
{
  unsigned long current_cycle_count = Get_system_register(AVR32_COUNT);
800058ec:	c0 50       	breq	800058f6 <check_monome_device_desc+0x1a6>
800058ee:	fe cc c0 aa 	sub	r12,pc,-16214
  // Test if the timeout as already occurred.
  else if (cpu_time->timer_state == CPU_TIMER_STATE_REACHED)
    return true;

  // If the ending cycle count of this timeout is wrapped, ...
  else if (cpu_time->delay_start_cycle > cpu_time->delay_end_cycle)
800058f2:	e0 a0 12 23 	rcall	80007d38 <print_dbg>
  {
    if (current_cycle_count < cpu_time->delay_start_cycle && current_cycle_count > cpu_time->delay_end_cycle)
800058f6:	c5 bd       	rcall	80005bac <ftdi_rx_buf>
800058f8:	30 1a       	mov	r10,1
800058fa:	f8 c7 ff ff 	sub	r7,r12,-1
    }
    return false;
  }
  else
  {
    if (current_cycle_count < cpu_time->delay_start_cycle || current_cycle_count > cpu_time->delay_end_cycle)
800058fe:	0f 8c       	ld.ub	r12,r7[0x0]
80005900:	f4 0c 18 00 	cp.b	r12,r10
80005904:	c2 31       	brne	8000594a <check_monome_device_desc+0x1fa>

  // print_dbg("\r\n setup request ftdi read; waiting...");

  //  while(ftdi_rx_busy()) {;;}
  while(busy) {
    busy = ftdi_rx_busy();
80005906:	32 08       	mov	r8,32
80005908:	30 0c       	mov	r12,0
  busy = 1;

  // print_dbg("\r\n setup request ftdi read; waiting...");

  //  while(ftdi_rx_busy()) {;;}
  while(busy) {
8000590a:	91 1c       	st.w	r8[0x4],r12
    busy = ftdi_rx_busy();
    // print_dbg("\r\n waiting for transfer complete; busy flag: ");
    // print_dbg_ulong(busy);
    
  }
  rxBytes = ftdi_rx_bytes();
8000590c:	0f 99       	ld.ub	r9,r7[0x1]
8000590e:	f4 09 18 00 	cp.b	r9,r10
80005912:	c0 31       	brne	80005918 <check_monome_device_desc+0x1c8>

  // print_dbg(" done waiting. bytes read: ");
  // print_dbg_ulong(rxBytes);

  if(rxBytes != 6 ){
80005914:	30 89       	mov	r9,8
80005916:	c1 18       	rjmp	80005938 <check_monome_device_desc+0x1e8>
80005918:	30 2a       	mov	r10,2
8000591a:	f4 09 18 00 	cp.b	r9,r10
    print_dbg("\r\n got unexpected byte count in response to mext setup request; ");
8000591e:	c0 81       	brne	8000592e <check_monome_device_desc+0x1de>
80005920:	30 89       	mov	r9,8
  }
  
  prx = ftdi_rx_buf();
80005922:	f1 69 00 09 	st.b	r8[9],r9
  prx++; // 1st returned byte is 0
  if(*prx == 1) {
80005926:	31 09       	mov	r9,16
  if(rxBytes != 6 ){
    print_dbg("\r\n got unexpected byte count in response to mext setup request; ");
  }
  
  prx = ftdi_rx_buf();
  prx++; // 1st returned byte is 0
80005928:	f1 69 00 08 	st.b	r8[8],r9
  if(*prx == 1) {
8000592c:	c0 a8       	rjmp	80005940 <check_monome_device_desc+0x1f0>
8000592e:	30 4a       	mov	r10,4
80005930:	f4 09 18 00 	cp.b	r9,r10
    mdesc.device = eDeviceGrid;
80005934:	c5 81       	brne	800059e4 <check_monome_device_desc+0x294>
80005936:	31 09       	mov	r9,16
80005938:	f1 69 00 08 	st.b	r8[8],r9
    prx++;
    if(*prx == 1) {
8000593c:	f1 69 00 09 	st.b	r8[9],r9
80005940:	30 19       	mov	r9,1
      // print_dbg("\r\n monome 64");
      mdesc.rows = 8;
80005942:	32 08       	mov	r8,32
80005944:	f1 69 00 0b 	st.b	r8[11],r9
      mdesc.cols = 8;
    }
    else if(*prx == 2) {
80005948:	c1 d8       	rjmp	80005982 <check_monome_device_desc+0x232>
8000594a:	2f f7       	sub	r7,-1
8000594c:	30 58       	mov	r8,5
      // print_dbg("\r\n monome 128");
      mdesc.rows = 8;
8000594e:	f0 0c 18 00 	cp.b	r12,r8
80005952:	c0 f1       	brne	80005970 <check_monome_device_desc+0x220>
      mdesc.cols = 16;
80005954:	30 19       	mov	r9,1
80005956:	32 08       	mov	r8,32
80005958:	91 19       	st.w	r8[0x4],r9
8000595a:	0f 89       	ld.ub	r9,r7[0x0]
    }
    else if(*prx == 4) {
8000595c:	fe cc c0 d4 	sub	r12,pc,-16172
80005960:	f1 69 00 0a 	st.b	r8[10],r9
      // print_dbg("\r\n monome 256");
      mdesc.rows = 16; 
80005964:	e0 a0 11 ea 	rcall	80007d38 <print_dbg>
      mdesc.cols = 16;
80005968:	0f 8c       	ld.ub	r12,r7[0x0]
      mdesc.rows = 8;
      mdesc.cols = 16;
    }
    else if(*prx == 4) {
      // print_dbg("\r\n monome 256");
      mdesc.rows = 16; 
8000596a:	e0 a0 11 e1 	rcall	80007d2c <print_dbg_ulong>
      mdesc.cols = 16;
    }
    else {
      return 0; // bail
    }		
    mdesc.tilt = 1;
8000596e:	c0 a8       	rjmp	80005982 <check_monome_device_desc+0x232>
80005970:	e0 a0 11 c0 	rcall	80007cf0 <print_dbg_hex>
80005974:	0f 8c       	ld.ub	r12,r7[0x0]
80005976:	e0 a0 11 bd 	rcall	80007cf0 <print_dbg_hex>
  }
  else if(*prx == 5) {
8000597a:	0f 9c       	ld.ub	r12,r7[0x1]
8000597c:	e0 a0 11 ba 	rcall	80007cf0 <print_dbg_hex>
80005980:	c3 18       	rjmp	800059e2 <check_monome_device_desc+0x292>
    mdesc.device = eDeviceArc;
80005982:	fe c9 c1 96 	sub	r9,pc,-15978
80005986:	32 08       	mov	r8,32
    mdesc.encs = *(++prx);
80005988:	70 1a       	ld.w	r10,r8[0x4]
    print_dbg("\r\n monome arc ");
8000598a:	70 08       	ld.w	r8,r8[0x0]
    }		
    mdesc.tilt = 1;
  }
  else if(*prx == 5) {
    mdesc.device = eDeviceArc;
    mdesc.encs = *(++prx);
8000598c:	f2 08 03 2b 	ld.w	r11,r9[r8<<0x2]
    print_dbg("\r\n monome arc ");
80005990:	33 09       	mov	r9,48
80005992:	93 0b       	st.w	r9[0x0],r11
    print_dbg_ulong(*prx);
80005994:	e0 6b 1a d4 	mov	r11,6868
80005998:	fe c9 c0 f4 	sub	r9,pc,-16140
  } else {
    print_dbg_hex(*prx);
8000599c:	f2 08 03 29 	ld.w	r9,r9[r8<<0x2]
    print_dbg_hex(*(++prx));
800059a0:	97 09       	st.w	r11[0x0],r9
800059a2:	e0 6b 1b e0 	mov	r11,7136
    print_dbg_hex(*(++prx));
800059a6:	97 09       	st.w	r11[0x0],r9
800059a8:	fe c9 c1 a4 	sub	r9,pc,-15964
800059ac:	f2 08 03 2b 	ld.w	r11,r9[r8<<0x2]

// set function pointers
static inline void set_funcs(void) {
  // print_dbg("\r\n setting monome functions, protocol idx: ");
  // print_dbg_ulong(mdesc.protocol);
  monome_read_serial = readSerialFuncs[mdesc.protocol];
800059b0:	e0 69 1a d8 	mov	r9,6872
800059b4:	93 0b       	st.w	r9[0x0],r11
800059b6:	fe c9 c1 1e 	sub	r9,pc,-16098
800059ba:	f2 08 03 29 	ld.w	r9,r9[r8<<0x2]
  monome_grid_map = gridMapFuncs[mdesc.protocol];
800059be:	e0 68 1b dc 	mov	r8,7132
800059c2:	58 1a       	cp.w	r10,1
800059c4:	f9 ba 01 00 	movne	r10,0
  monome_grid_level_map = gridMapFuncs[mdesc.protocol];
800059c8:	f9 ba 00 04 	moveq	r10,4
  monome_ring_map = ringMapFuncs[mdesc.protocol];
800059cc:	91 09       	st.w	r8[0x0],r9
800059ce:	fe c8 c1 d6 	sub	r8,pc,-15914
800059d2:	f0 0a 03 09 	ld.w	r9,r8[r10]
  monome_set_intense = intenseFuncs[mdesc.protocol];
800059d6:	e0 68 1a d0 	mov	r8,6864
800059da:	91 09       	st.w	r8[0x0],r9
800059dc:	c7 ce       	rcall	800056d4 <monome_connect_write_event>
  monome_refresh = refreshFuncs[mdesc.device == eDeviceArc];   // toggle on grid vs arc
800059de:	30 1c       	mov	r12,1
800059e0:	c0 28       	rjmp	800059e4 <check_monome_device_desc+0x294>
800059e2:	30 0c       	mov	r12,0
800059e4:	2f bd       	sub	sp,-20
800059e6:	d8 22       	popm	r4-r7,pc
  // print_dbg_ulong(mdesc.protocol);
  monome_read_serial = readSerialFuncs[mdesc.protocol];
  monome_grid_map = gridMapFuncs[mdesc.protocol];
  monome_grid_level_map = gridMapFuncs[mdesc.protocol];
  monome_ring_map = ringMapFuncs[mdesc.protocol];
  monome_set_intense = intenseFuncs[mdesc.protocol];
800059e8:	30 1b       	mov	r11,1
  monome_refresh = refreshFuncs[mdesc.device == eDeviceArc];   // toggle on grid vs arc
800059ea:	fa cc ff ed 	sub	r12,sp,-19
800059ee:	c2 7d       	rcall	80005c3c <ftdi_write>
800059f0:	e1 b8 00 42 	mfsr	r8,0x108
    print_dbg_hex(*(++prx));
    return 0; // bail
  }
  set_funcs();

  monome_connect_write_event();
800059f4:	f0 07 00 0a 	add	r10,r8,r7
800059f8:	c5 5b       	rjmp	800058a2 <check_monome_device_desc+0x152>
800059fa:	c0 bd       	rcall	80005c10 <ftdi_read>
800059fc:	e1 b8 00 42 	mfsr	r8,0x108
    // so this is probably an extended-protocol device.
    // we need to query for device attributes
    return setup_mext();
  }
  return 0;
}
80005a00:	f0 07 00 07 	add	r7,r8,r7
80005a04:	c5 eb       	rjmp	800058c0 <check_monome_device_desc+0x170>
80005a06:	d7 03       	nop

80005a08 <process_timers>:
   tail = NULL;
   num = 0;
}

// process the timer list, presumably from TC interrupt
void process_timers( void ) {
80005a08:	d4 21       	pushm	r4-r7,lr
  u32 i;
  volatile softTimer_t* t = head;
80005a0a:	e0 68 07 d8 	mov	r8,2008

  //  print_dbg("\r\n processing timers. head: 0x");
  //  print_dbg_hex((u32)head);

  // ... important...  
  if ( (head == NULL) || (tail == NULL) || (num == 0) ) { 
80005a0e:	70 07       	ld.w	r7,r8[0x0]
80005a10:	58 07       	cp.w	r7,0
80005a12:	c1 d0       	breq	80005a4c <process_timers+0x44>
80005a14:	e0 68 07 e0 	mov	r8,2016
80005a18:	70 08       	ld.w	r8,r8[0x0]
80005a1a:	58 08       	cp.w	r8,0
80005a1c:	c1 80       	breq	80005a4c <process_timers+0x44>
80005a1e:	e0 65 07 dc 	mov	r5,2012
80005a22:	6a 08       	ld.w	r8,r5[0x0]
80005a24:	58 08       	cp.w	r8,0
    //    print_dbg("\r\n processing empty timer list");
    return; 
  }

  for(i = 0; i<num; ++i) {
    --(t->ticksRemain);
80005a26:	c1 30       	breq	80005a4c <process_timers+0x44>
80005a28:	30 06       	mov	r6,0
80005a2a:	c0 e8       	rjmp	80005a46 <process_timers+0x3e>
  if ( (head == NULL) || (tail == NULL) || (num == 0) ) { 
    //    print_dbg("\r\n processing empty timer list");
    return; 
  }

  for(i = 0; i<num; ++i) {
80005a2c:	6e 08       	ld.w	r8,r7[0x0]
    --(t->ticksRemain);
    if(t->ticksRemain == 0) {
80005a2e:	20 18       	sub	r8,1
80005a30:	8f 08       	st.w	r7[0x0],r8
80005a32:	2f f6       	sub	r6,-1
      (*(t->callback))(t->caller);   
80005a34:	6e 08       	ld.w	r8,r7[0x0]
80005a36:	58 08       	cp.w	r8,0
80005a38:	c0 61       	brne	80005a44 <process_timers+0x3c>
      t->ticksRemain = t->ticks;
80005a3a:	6e 28       	ld.w	r8,r7[0x8]
80005a3c:	6e 5c       	ld.w	r12,r7[0x14]
      //      print_dbg("\r\n triggered timer callback @ 0x");
      //      print_dbg_hex((u32)t);
    }
    t = t->next;
80005a3e:	5d 18       	icall	r8
  if ( (head == NULL) || (tail == NULL) || (num == 0) ) { 
    //    print_dbg("\r\n processing empty timer list");
    return; 
  }

  for(i = 0; i<num; ++i) {
80005a40:	6e 18       	ld.w	r8,r7[0x4]
80005a42:	8f 08       	st.w	r7[0x0],r8
80005a44:	6e 37       	ld.w	r7,r7[0xc]
80005a46:	6a 08       	ld.w	r8,r5[0x0]
80005a48:	10 36       	cp.w	r6,r8
80005a4a:	cf 13       	brcs	80005a2c <process_timers+0x24>
80005a4c:	d8 22       	popm	r4-r7,pc
80005a4e:	d7 03       	nop

80005a50 <timer_set>:
80005a50:	99 1b       	st.w	r12[0x4],r11
80005a52:	78 08       	ld.w	r8,r12[0x0]
}


void timer_set(softTimer_t* timer, u32 ticks) {
  timer->ticks = ticks;
  if(timer->ticksRemain > ticks) timer->ticksRemain = ticks;
80005a54:	16 38       	cp.w	r8,r11
80005a56:	5e 8c       	retls	r12
80005a58:	99 0b       	st.w	r12[0x0],r11
80005a5a:	5e fc       	retal	r12

80005a5c <timer_remove>:
  int i;
  volatile softTimer_t* pt = NULL;
  u8 found = 0;

  // disable timer interrupts
  cpu_irq_disable_level(APP_TC_IRQ_PRIORITY);
80005a5c:	d3 43       	ssrf	0x14


  // not linked
  if( (t->next == NULL) || (t->prev == NULL)) { return 0; }
80005a5e:	78 38       	ld.w	r8,r12[0xc]
80005a60:	58 08       	cp.w	r8,0
80005a62:	c3 20       	breq	80005ac6 <timer_remove+0x6a>
80005a64:	78 48       	ld.w	r8,r12[0x10]
80005a66:	58 08       	cp.w	r8,0
80005a68:	c2 f0       	breq	80005ac6 <timer_remove+0x6a>

  // check head
  if(t == head) { 
80005a6a:	e0 69 07 d8 	mov	r9,2008
80005a6e:	72 08       	ld.w	r8,r9[0x0]
80005a70:	10 3c       	cp.w	r12,r8
    found = 1;
    head = t->next;
80005a72:	c0 31       	brne	80005a78 <timer_remove+0x1c>
80005a74:	78 38       	ld.w	r8,r12[0xc]
  }
  // check tail
  else if(t == tail) { 
80005a76:	c0 b8       	rjmp	80005a8c <timer_remove+0x30>
80005a78:	e0 69 07 e0 	mov	r9,2016
80005a7c:	72 0a       	ld.w	r10,r9[0x0]
80005a7e:	14 3c       	cp.w	r12,r10
    found = 1;
    tail = t->prev; 
  } else {
    // search 
    pt = head;
    for(i=0; i<num; ++i) {
80005a80:	c0 50       	breq	80005a8a <timer_remove+0x2e>
80005a82:	30 09       	mov	r9,0
    head = t->next;
  }
  // check tail
  else if(t == tail) { 
    found = 1;
    tail = t->prev; 
80005a84:	e0 6a 07 dc 	mov	r10,2012
80005a88:	c0 88       	rjmp	80005a98 <timer_remove+0x3c>
  } else {
    // search 
    pt = head;
    for(i=0; i<num; ++i) {
      if(pt == t) {
80005a8a:	78 48       	ld.w	r8,r12[0x10]
80005a8c:	93 08       	st.w	r9[0x0],r8
	// found it
	found = 1;
	break;
      }
      pt = pt->next;
80005a8e:	c0 a8       	rjmp	80005aa2 <timer_remove+0x46>
    found = 1;
    tail = t->prev; 
  } else {
    // search 
    pt = head;
    for(i=0; i<num; ++i) {
80005a90:	18 38       	cp.w	r8,r12
80005a92:	c0 80       	breq	80005aa2 <timer_remove+0x46>
80005a94:	70 38       	ld.w	r8,r8[0xc]
80005a96:	2f f9       	sub	r9,-1
80005a98:	74 0b       	ld.w	r11,r10[0x0]
80005a9a:	16 39       	cp.w	r9,r11
      pt = pt->next;
    }
  }
  if(found) {
    // unlink and decrement
    (t->next)->prev = t->prev;
80005a9c:	cf a3       	brcs	80005a90 <timer_remove+0x34>
80005a9e:	30 0c       	mov	r12,0
80005aa0:	c1 18       	rjmp	80005ac2 <timer_remove+0x66>
    (t->prev)->next = t->next;
80005aa2:	78 38       	ld.w	r8,r12[0xc]
80005aa4:	78 49       	ld.w	r9,r12[0x10]
80005aa6:	91 49       	st.w	r8[0x10],r9
    t->next = t->prev = 0;
80005aa8:	78 48       	ld.w	r8,r12[0x10]
80005aaa:	78 39       	ld.w	r9,r12[0xc]
80005aac:	91 39       	st.w	r8[0xc],r9
80005aae:	30 08       	mov	r8,0
    --num;
80005ab0:	99 48       	st.w	r12[0x10],r8
80005ab2:	78 48       	ld.w	r8,r12[0x10]
80005ab4:	99 38       	st.w	r12[0xc],r8
80005ab6:	e0 68 07 dc 	mov	r8,2012
  }

  // enable timer interrupts
  cpu_irq_enable_level(APP_TC_IRQ_PRIORITY);
80005aba:	30 1c       	mov	r12,1
  return found;
80005abc:	70 09       	ld.w	r9,r8[0x0]
80005abe:	20 19       	sub	r9,1
80005ac0:	91 09       	st.w	r8[0x0],r9
80005ac2:	d5 43       	csrf	0x14
80005ac4:	5e fc       	retal	r12
80005ac6:	5e fd       	retal	0

80005ac8 <timer_add>:
80005ac8:	d4 21       	pushm	r4-r7,lr
80005aca:	d3 43       	ssrf	0x14
  cpu_irq_disable_level(APP_TC_IRQ_PRIORITY);

  // print_dbg("\r\n timer_add, @ 0x");
  // print_dbg_hex((u32)t);

  if(t->prev == NULL || t->next == NULL) {
80005acc:	78 48       	ld.w	r8,r12[0x10]
80005ace:	58 08       	cp.w	r8,0
80005ad0:	c0 60       	breq	80005adc <timer_add+0x14>
80005ad2:	78 38       	ld.w	r8,r12[0xc]
80005ad4:	58 08       	cp.w	r8,0
80005ad6:	c0 30       	breq	80005adc <timer_add+0x14>
80005ad8:	30 0c       	mov	r12,0
80005ada:	c2 a8       	rjmp	80005b2e <timer_add+0x66>
    // print_dbg(" ; timer is unlinked ");
    // is list empty?
    if( (head == NULL) || (tail == NULL)) {
80005adc:	e0 68 07 d8 	mov	r8,2008
80005ae0:	70 08       	ld.w	r8,r8[0x0]
80005ae2:	58 08       	cp.w	r8,0
80005ae4:	c0 60       	breq	80005af0 <timer_add+0x28>
80005ae6:	e0 67 07 e0 	mov	r7,2016
80005aea:	6e 0e       	ld.w	lr,r7[0x0]
      // print_dbg(" ; list was empty ");
      head = tail = t;
80005aec:	58 0e       	cp.w	lr,0
80005aee:	c0 e1       	brne	80005b0a <timer_add+0x42>
80005af0:	e0 68 07 e0 	mov	r8,2016
      t->next = t->prev = t;
80005af4:	91 0c       	st.w	r8[0x0],r12
80005af6:	e0 68 07 d8 	mov	r8,2008
80005afa:	91 0c       	st.w	r8[0x0],r12
      num = 1;
80005afc:	99 4c       	st.w	r12[0x10],r12
80005afe:	78 48       	ld.w	r8,r12[0x10]
      // print_dbg(" ; added timer as sole element ");

    } else {
      // list not empty, add to tail
      tail->next = t;
80005b00:	30 1e       	mov	lr,1
      head->prev = t;
80005b02:	99 38       	st.w	r12[0xc],r8
      t->prev = tail;
80005b04:	e0 68 07 dc 	mov	r8,2012
      t->next = head;
      tail = t;
80005b08:	c0 a8       	rjmp	80005b1c <timer_add+0x54>
      ++num; 
80005b0a:	9d 3c       	st.w	lr[0xc],r12
80005b0c:	91 4c       	st.w	r8[0x10],r12
80005b0e:	99 4e       	st.w	r12[0x10],lr
80005b10:	99 38       	st.w	r12[0xc],r8

    } 
    t->callback = callback; 
80005b12:	8f 0c       	st.w	r7[0x0],r12
    t->caller = obj;
80005b14:	e0 68 07 dc 	mov	r8,2012
    if(ticks < 1) { ticks = 1; }
80005b18:	70 0e       	ld.w	lr,r8[0x0]
80005b1a:	2f fe       	sub	lr,-1
    t->ticksRemain = ticks;
80005b1c:	91 0e       	st.w	r8[0x0],lr
    t->ticks = ticks;
80005b1e:	99 2a       	st.w	r12[0x8],r10
80005b20:	99 59       	st.w	r12[0x14],r9
    // print_dbg(" ; timer was already linked, aborting ");
    ret = 0;
  }

  // enable timer interrupts
  cpu_irq_enable_level(APP_TC_IRQ_PRIORITY);
80005b22:	58 0b       	cp.w	r11,0
  return ret;
}
80005b24:	f9 bb 00 01 	moveq	r11,1
80005b28:	99 0b       	st.w	r12[0x0],r11
80005b2a:	99 1b       	st.w	r12[0x4],r11
80005b2c:	30 1c       	mov	r12,1
80005b2e:	d5 43       	csrf	0x14
80005b30:	d8 22       	popm	r4-r7,pc
80005b32:	d7 03       	nop

80005b34 <usb_mode_change>:
   */

// usb mode change callback
void usb_mode_change(bool b_host_mode) {
  // print_dbg("\r\n mode change (ignore) ");
}
80005b34:	5e fc       	retal	r12

80005b36 <usb_vbus_change>:
 
// usb Vbus change callback
void usb_vbus_change(bool b_vbus_present) {
  // print_dbg("\r\n usb vbus change, new status: ");
  // print_dbg_ulong(b_vbus_present);
}
80005b36:	5e fc       	retal	r12

80005b38 <usb_vbus_error>:

// usb vbus error callback
void usb_vbus_error(void) {
  // print_dbg("\r\n ******************* usb vbus error");

}
80005b38:	5e fc       	retal	r12

80005b3a <usb_connection>:
void usb_connection(uhc_device_t *dev, bool b_present) {
    // print_dbg("\r\n usb device connection: ");
    // print_dbg_hex(dev);
    // print_dbg(" , ");
    // print_dbg_ulong(b_present);
}
80005b3a:	5e fc       	retal	r12

80005b3c <usb_wakeup>:

// usb wakeup callback
void usb_wakeup(void) {
    // print_dbg("\r\n usb wakeup");
}
80005b3c:	5e fc       	retal	r12

80005b3e <usb_sof>:

// usb start-of-frame callback
void usb_sof(void) {
     // print_dbg("\r\n usb sof");
}
80005b3e:	5e fc       	retal	r12

80005b40 <usb_enum>:
  // print_dbg("\r\n usb enumerated: ");
  // print_dbg_hex(dev);
  // print_dbg(" , ");
  // print_dbg_hex(status);

}
80005b40:	5e fc       	retal	r12
80005b42:	d7 03       	nop

80005b44 <rnd>:
80005b44:	33 49       	mov	r9,52
80005b46:	e0 6b f3 5f 	mov	r11,62303
80005b4a:	ea 1b 3c 6e 	orh	r11,0x3c6e
80005b4e:	72 08       	ld.w	r8,r9[0x0]
80005b50:	e0 6a 66 0d 	mov	r10,26125
80005b54:	ea 1a 00 19 	orh	r10,0x19
80005b58:	b7 38       	mul	r8,r11
80005b5a:	14 08       	add	r8,r10
80005b5c:	93 08       	st.w	r9[0x0],r8
80005b5e:	33 88       	mov	r8,56
80005b60:	70 0c       	ld.w	r12,r8[0x0]
80005b62:	f8 0b 03 4a 	mac	r10,r12,r11
80005b66:	91 0a       	st.w	r8[0x0],r10
80005b68:	72 09       	ld.w	r9,r9[0x0]
80005b6a:	70 0c       	ld.w	r12,r8[0x0]
80005b6c:	f2 08 16 10 	lsr	r8,r9,0x10
80005b70:	f1 ec 13 0c 	or	r12,r8,r12>>0x10
80005b74:	5e fc       	retal	r12
80005b76:	d7 03       	nop

80005b78 <ftdi_rx_done>:
//------- static functions

static void ftdi_rx_done(  usb_add_t add,
			   usb_ep_t ep,
			   uhd_trans_status_t stat,
			   iram_size_t nb) {
80005b78:	d4 01       	pushm	lr
  status = stat;
80005b7a:	e0 68 08 38 	mov	r8,2104
  rxBusy = 0;
80005b7e:	91 0a       	st.w	r8[0x0],r10
  rxBytes = nb - FTDI_STATUS_BYTES;
80005b80:	e0 68 08 28 	mov	r8,2088
static void ftdi_rx_done(  usb_add_t add,
			   usb_ep_t ep,
			   uhd_trans_status_t stat,
			   iram_size_t nb) {
  status = stat;
  rxBusy = 0;
80005b84:	20 29       	sub	r9,2
  rxBytes = nb - FTDI_STATUS_BYTES;
80005b86:	30 0a       	mov	r10,0
80005b88:	b0 8a       	st.b	r8[0x0],r10
  /* print_dbg_ulong(nb); */
  /* print_dbg(" ; status bytes: 0x"); */
  /* print_dbg_hex(rxBuf[0]); */
  /* print_dbg(" 0x"); */
  /* print_dbg_hex(rxBuf[1]); */			    
  if(rxBytes) {
80005b8a:	e0 68 08 2c 	mov	r8,2092
    // check for monome events
    //    if(monome_read_serial != NULL) { 
      (*monome_read_serial)(); 
80005b8e:	91 09       	st.w	r8[0x0],r9
80005b90:	58 09       	cp.w	r9,0
80005b92:	c0 40       	breq	80005b9a <ftdi_rx_done+0x22>
80005b94:	33 08       	mov	r8,48
80005b96:	70 08       	ld.w	r8,r8[0x0]
80005b98:	5d 18       	icall	r8
80005b9a:	d8 02       	popm	pc

80005b9c <ftdi_tx_done>:
80005b9c:	e0 68 08 38 	mov	r8,2104
80005ba0:	30 09       	mov	r9,0
80005ba2:	91 0a       	st.w	r8[0x0],r10
80005ba4:	e0 68 07 e4 	mov	r8,2020
  if (status != UHD_TRANS_NOERROR) {
    // print_dbg("\r\n ftdi tx error");
    return;
  }
  
}
80005ba8:	b0 89       	st.b	r8[0x0],r9
80005baa:	5e fc       	retal	r12

80005bac <ftdi_rx_buf>:
80005bac:	e0 6c 07 e8 	mov	r12,2024


// rx buffer (no status bytes)
extern u8* ftdi_rx_buf() {
  return rxBuf + 2;
}
80005bb0:	2f ec       	sub	r12,-2
80005bb2:	5e fc       	retal	r12

80005bb4 <ftdi_rx_bytes>:
80005bb4:	e0 68 08 2c 	mov	r8,2092

// number of bytes from last rx trasnfer
extern volatile u8 ftdi_rx_bytes() {
  return rxBytes;
}
80005bb8:	11 bc       	ld.ub	r12,r8[0x3]
80005bba:	5e fc       	retal	r12

80005bbc <ftdi_rx_busy>:
80005bbc:	e0 68 08 28 	mov	r8,2088

// busy flags
extern volatile u8 ftdi_rx_busy() {
  return rxBusy;
}
80005bc0:	11 8c       	ld.ub	r12,r8[0x0]
80005bc2:	5e fc       	retal	r12

80005bc4 <ftdi_tx_busy>:
80005bc4:	e0 68 07 e4 	mov	r8,2020

extern volatile u8 ftdi_tx_busy() {
  return txBusy;
}
80005bc8:	11 8c       	ld.ub	r12,r8[0x0]
80005bca:	5e fc       	retal	r12

80005bcc <ftdi_setup>:
80005bcc:	d4 01       	pushm	lr
80005bce:	20 3d       	sub	sp,12
  char * serstr;
  //  u8 matchMonome;
  // print_dbg("\r\n FTDI setup routine");

  // get string data...
  ftdi_get_strings(&manstr, &prodstr, &serstr);  
80005bd0:	1a 9a       	mov	r10,sp
80005bd2:	fa cb ff fc 	sub	r11,sp,-4
80005bd6:	fa cc ff f8 	sub	r12,sp,-8
80005bda:	c5 bc       	rcall	80005c90 <ftdi_get_strings>
80005bdc:	40 0a       	lddsp	r10,sp[0x0]
  // print the strings
  // print_unicode_string(manstr, FTDI_STRING_MAX_LEN);
  //  print_unicode_string(prodstr, FTDI_STRING_MAX_LEN);
  //  print_unicode_string(serstr, FTDI_STRING_MAX_LEN);
  //// query if this is a monome device
  check_monome_device_desc(manstr, prodstr, serstr);
80005bde:	40 1b       	lddsp	r11,sp[0x4]
80005be0:	40 2c       	lddsp	r12,sp[0x8]
80005be2:	fe b0 fd b7 	rcall	80005750 <check_monome_device_desc>
80005be6:	30 19       	mov	r9,1
  //// TODO: other protocols??

  // set connection flag
  ftdiConnect = 1;
80005be8:	e0 68 07 e5 	mov	r8,2021
80005bec:	b0 89       	st.b	r8[0x0],r9
}
80005bee:	2f dd       	sub	sp,-12
80005bf0:	d8 02       	popm	pc
80005bf2:	d7 03       	nop

80005bf4 <ftdi_change>:
80005bf4:	d4 01       	pushm	lr
80005bf6:	e0 68 08 30 	mov	r8,2096
80005bfa:	58 0b       	cp.w	r11,0
80005bfc:	c0 30       	breq	80005c02 <ftdi_change+0xe>
80005bfe:	30 69       	mov	r9,6
void ftdi_change(uhc_device_t* dev, u8 plug) {
  // print_dbg("\r\n changed FTDI connection status");
  if(plug) { 
    e.type = kEventFtdiConnect; 
  } else {
    e.type = kEventFtdiDisconnect;
80005c00:	c0 28       	rjmp	80005c04 <ftdi_change+0x10>
80005c02:	30 79       	mov	r9,7
  }
  // posting an event so the main loop can respond
  event_post(&e); 
80005c04:	91 09       	st.w	r8[0x0],r9
80005c06:	e0 6c 08 30 	mov	r12,2096
}
80005c0a:	fe b0 f9 47 	rcall	80004e98 <event_post>
80005c0e:	d8 02       	popm	pc

80005c10 <ftdi_read>:
80005c10:	d4 01       	pushm	lr
80005c12:	30 09       	mov	r9,0
    // print_dbg("\r\n error requesting ftdi output pipe");
  }
}
    
void ftdi_read(void) {
  rxBytes = 0;
80005c14:	e0 68 08 2c 	mov	r8,2092
  rxBusy = true;
80005c18:	91 09       	st.w	r8[0x0],r9
80005c1a:	30 19       	mov	r9,1
  if (!uhi_ftdi_in_run((u8*)rxBuf,
80005c1c:	e0 68 08 28 	mov	r8,2088
80005c20:	fe ca 00 a8 	sub	r10,pc,168
80005c24:	b0 89       	st.b	r8[0x0],r9
80005c26:	34 0b       	mov	r11,64
80005c28:	e0 6c 07 e8 	mov	r12,2024
		       FTDI_RX_BUF_SIZE, &ftdi_rx_done)) {
    print_dbg("\r\n ftdi rx transfer error");
80005c2c:	cb 2c       	rcall	80005d90 <uhi_ftdi_in_run>
80005c2e:	c0 51       	brne	80005c38 <ftdi_read+0x28>
80005c30:	fe cc c3 80 	sub	r12,pc,-15488
80005c34:	e0 a0 10 82 	rcall	80007d38 <print_dbg>
80005c38:	d8 02       	popm	pc
80005c3a:	d7 03       	nop

80005c3c <ftdi_write>:
80005c3c:	d4 01       	pushm	lr
80005c3e:	30 19       	mov	r9,1
80005c40:	e0 68 07 e4 	mov	r8,2020
80005c44:	fe ca 00 a8 	sub	r10,pc,168
80005c48:	b0 89       	st.b	r8[0x0],r9
80005c4a:	c9 1c       	rcall	80005d6c <uhi_ftdi_out_run>
80005c4c:	d8 02       	popm	pc
80005c4e:	d7 03       	nop

80005c50 <ctl_req_end>:
		uhd_trans_status_t status,
		uint16_t payload_trans) {
  // last transfer ok?
  //  print_dbg("\r\n ctl request end, status: ");
  //  print_dbg_hex((u32)status);
  ctlReadBusy = 0;
80005c50:	30 09       	mov	r9,0
80005c52:	e0 68 08 44 	mov	r8,2116
}
80005c56:	b0 89       	st.b	r8[0x0],r9
80005c58:	5e fc       	retal	r12
80005c5a:	d7 03       	nop

80005c5c <send_ctl_request>:

// send control request
static u8 send_ctl_request(u8 reqtype, u8 reqnum, 
			   u8* data, u16 size,
			     u16 index, u16 val, 
			     uhd_callback_setup_end_t callbackEnd) {
80005c5c:	d4 21       	pushm	r4-r7,lr
80005c5e:	20 2d       	sub	sp,8
  /* } */

  req.bmRequestType = reqtype;
  req.bRequest = reqnum;
  req.wValue = (val);
  req.wIndex = (index);
80005c60:	ba 28       	st.h	sp[0x4],r8

// send control request
static u8 send_ctl_request(u8 reqtype, u8 reqnum, 
			   u8* data, u16 size,
			     u16 index, u16 val, 
			     uhd_callback_setup_end_t callbackEnd) {
80005c62:	fa c4 ff e4 	sub	r4,sp,-28
80005c66:	68 18       	ld.w	r8,r4[0x4]
  /* if (uhi_ftdi_dev.dev != dev) { */
  /*   return;  // No interface to enable */
  /* } */

  req.bmRequestType = reqtype;
  req.bRequest = reqnum;
80005c68:	ba 9b       	st.b	sp[0x1],r11
 
  /* if (uhi_ftdi_dev.dev != dev) { */
  /*   return;  // No interface to enable */
  /* } */

  req.bmRequestType = reqtype;
80005c6a:	ba 8c       	st.b	sp[0x0],r12
  req.bRequest = reqnum;
  req.wValue = (val);
  req.wIndex = (index);
  req.wLength = (size);
  return uhd_setup_request(
80005c6c:	1a d8       	st.w	--sp,r8

// send control request
static u8 send_ctl_request(u8 reqtype, u8 reqnum, 
			   u8* data, u16 size,
			     u16 index, u16 val, 
			     uhd_callback_setup_end_t callbackEnd) {
80005c6e:	68 08       	ld.w	r8,r4[0x0]
  /*   return;  // No interface to enable */
  /* } */

  req.bmRequestType = reqtype;
  req.bRequest = reqnum;
  req.wValue = (val);
80005c70:	ba 38       	st.h	sp[0x6],r8
  req.wIndex = (index);
  req.wLength = (size);
  return uhd_setup_request(
80005c72:	e0 68 08 3c 	mov	r8,2108

  req.bmRequestType = reqtype;
  req.bRequest = reqnum;
  req.wValue = (val);
  req.wIndex = (index);
  req.wLength = (size);
80005c76:	70 08       	ld.w	r8,r8[0x0]
  return uhd_setup_request(
80005c78:	ba 59       	st.h	sp[0xa],r9
80005c7a:	fa cb ff fc 	sub	r11,sp,-4
80005c7e:	5c 79       	castu.h	r9
80005c80:	f1 3c 00 12 	ld.ub	r12,r8[18]
80005c84:	30 08       	mov	r8,0
80005c86:	e0 a0 0a 41 	rcall	80007108 <uhd_setup_request>
			   data,
			   size,
			   NULL,
			   callbackEnd
			   );
}
80005c8a:	2f fd       	sub	sp,-4
80005c8c:	2f ed       	sub	sp,-8
80005c8e:	d8 22       	popm	r4-r7,pc

80005c90 <ftdi_get_strings>:
80005c90:	d4 21       	pushm	r4-r7,lr
80005c92:	30 18       	mov	r8,1
80005c94:	e0 67 08 44 	mov	r7,2116

  // get manufacturer string
  ctlReadBusy = 1;
  //  print_dbg("\r\n sending ctl request for manufacturer string, index : ");
  //  print_dbg_hex(uhi_ftdi_dev.dev->dev_desc.iManufacturer);
  if(!(send_ctl_request(
80005c98:	ae 88       	st.b	r7[0x0],r8
80005c9a:	fe c8 00 4a 	sub	r8,pc,74
80005c9e:	1a d8       	st.w	--sp,r8
80005ca0:	e0 68 08 3c 	mov	r8,2108
80005ca4:	70 08       	ld.w	r8,r8[0x0]
80005ca6:	f1 38 00 0e 	ld.ub	r8,r8[14]
80005caa:	e8 18 03 00 	orl	r8,0x300
  //  print_dbg_hex((u32)status);
  ctlReadBusy = 0;
}

// read eeprom
void ftdi_get_strings(char** pManufacturer, char** pProduct, char** pSerial) {
80005cae:	18 96       	mov	r6,r12

  // get manufacturer string
  ctlReadBusy = 1;
  //  print_dbg("\r\n sending ctl request for manufacturer string, index : ");
  //  print_dbg_hex(uhi_ftdi_dev.dev->dev_desc.iManufacturer);
  if(!(send_ctl_request(
80005cb0:	1a d8       	st.w	--sp,r8
80005cb2:	16 95       	mov	r5,r11
80005cb4:	14 94       	mov	r4,r10
80005cb6:	e0 68 04 09 	mov	r8,1033
80005cba:	34 09       	mov	r9,64
80005cbc:	e0 6a 1b e4 	mov	r10,7140
80005cc0:	30 6b       	mov	r11,6
80005cc2:	e0 6c 00 80 	mov	r12,128
80005cc6:	cc bf       	rcall	80005c5c <send_ctl_request>
       )) {
    // print_dbg("\r\n control request for string descriptor failed");
    return;
  }
  // wait for transfer end
  while(ctlReadBusy) { ;; } 
80005cc8:	2f ed       	sub	sp,-8
80005cca:	58 0c       	cp.w	r12,0
80005ccc:	c4 e0       	breq	80005d68 <ftdi_get_strings+0xd8>
80005cce:	0e 98       	mov	r8,r7
80005cd0:	e0 67 08 44 	mov	r7,2116

  // get product string
  ctlReadBusy = 1;
80005cd4:	11 89       	ld.ub	r9,r8[0x0]
  //  print_dbg("\r\n sending ctl request for product string, index : ");
  //  print_dbg_ulong( uhi_ftdi_dev.dev->dev_desc.iProduct);
  if(!(send_ctl_request(
80005cd6:	58 09       	cp.w	r9,0
80005cd8:	cf c1       	brne	80005cd0 <ftdi_get_strings+0x40>
80005cda:	30 18       	mov	r8,1
80005cdc:	ae 88       	st.b	r7[0x0],r8
80005cde:	fe c8 00 8e 	sub	r8,pc,142
80005ce2:	1a d8       	st.w	--sp,r8
80005ce4:	e0 68 08 3c 	mov	r8,2108
80005ce8:	70 08       	ld.w	r8,r8[0x0]
80005cea:	f1 38 00 0f 	ld.ub	r8,r8[15]
80005cee:	e8 18 03 00 	orl	r8,0x300
80005cf2:	34 09       	mov	r9,64
80005cf4:	1a d8       	st.w	--sp,r8
80005cf6:	e0 6a 1c 64 	mov	r10,7268
80005cfa:	e0 68 04 09 	mov	r8,1033
80005cfe:	30 6b       	mov	r11,6
       )) {
    // print_dbg("\r\n control request for string descriptor failed");
    return;
  }
  // wait for transfer end
  while(ctlReadBusy) { ;; } 
80005d00:	e0 6c 00 80 	mov	r12,128
80005d04:	ca cf       	rcall	80005c5c <send_ctl_request>
80005d06:	2f ed       	sub	sp,-8
80005d08:	58 0c       	cp.w	r12,0

  // get serial string
  ctlReadBusy = 1;
80005d0a:	c2 f0       	breq	80005d68 <ftdi_get_strings+0xd8>
80005d0c:	0e 98       	mov	r8,r7
  // print_dbg("\r\n sending ctl request for serial string : ");
  if(!(send_ctl_request(
80005d0e:	e0 67 08 44 	mov	r7,2116
80005d12:	11 89       	ld.ub	r9,r8[0x0]
80005d14:	58 09       	cp.w	r9,0
80005d16:	cf c1       	brne	80005d0e <ftdi_get_strings+0x7e>
80005d18:	30 18       	mov	r8,1
80005d1a:	ae 88       	st.b	r7[0x0],r8
80005d1c:	fe c8 00 cc 	sub	r8,pc,204
80005d20:	1a d8       	st.w	--sp,r8
80005d22:	e0 68 08 3c 	mov	r8,2108
80005d26:	70 08       	ld.w	r8,r8[0x0]
80005d28:	f1 38 00 10 	ld.ub	r8,r8[16]
80005d2c:	e8 18 03 00 	orl	r8,0x300
80005d30:	34 09       	mov	r9,64
80005d32:	1a d8       	st.w	--sp,r8
80005d34:	e0 6a 1c 24 	mov	r10,7204
       )) {
    // print_dbg("\r\n control request for string descriptor failed");
    return;
  }
  // wait for transfer end
  while(ctlReadBusy) { ;; }
80005d38:	e0 68 04 09 	mov	r8,1033
80005d3c:	30 6b       	mov	r11,6

  //  print_dbg("\r\n requested all string descriptors.");
  *pManufacturer = manufacturer_string + FTDI_STRING_DESC_OFFSET;
80005d3e:	e0 6c 00 80 	mov	r12,128
80005d42:	c8 df       	rcall	80005c5c <send_ctl_request>
  *pProduct = product_string + FTDI_STRING_DESC_OFFSET;
80005d44:	2f ed       	sub	sp,-8
80005d46:	58 0c       	cp.w	r12,0
80005d48:	c1 00       	breq	80005d68 <ftdi_get_strings+0xd8>
  *pSerial = serial_string + FTDI_STRING_DESC_OFFSET;
80005d4a:	0f 88       	ld.ub	r8,r7[0x0]
80005d4c:	58 08       	cp.w	r8,0
80005d4e:	cf e1       	brne	80005d4a <ftdi_get_strings+0xba>
80005d50:	e0 68 1b e4 	mov	r8,7140
80005d54:	2f e8       	sub	r8,-2
80005d56:	8d 08       	st.w	r6[0x0],r8
80005d58:	e0 68 1c 64 	mov	r8,7268
80005d5c:	2f e8       	sub	r8,-2
80005d5e:	8b 08       	st.w	r5[0x0],r8
80005d60:	e0 68 1c 24 	mov	r8,7204
80005d64:	2f e8       	sub	r8,-2
80005d66:	89 08       	st.w	r4[0x0],r8
80005d68:	d8 22       	popm	r4-r7,pc
80005d6a:	d7 03       	nop

80005d6c <uhi_ftdi_out_run>:
80005d6c:	d4 01       	pushm	lr
80005d6e:	1a da       	st.w	--sp,r10
}

// run the output endpoint (bulk)
bool uhi_ftdi_out_run(uint8_t * buf, iram_size_t buf_size,
		      uhd_callback_trans_t callback) {
  return uhd_ep_run(uhi_ftdi_dev.dev->address,
80005d70:	16 98       	mov	r8,r11
80005d72:	18 99       	mov	r9,r12
80005d74:	e0 6a 08 3c 	mov	r10,2108
80005d78:	e0 6c 4e 20 	mov	r12,20000
80005d7c:	15 db       	ld.ub	r11,r10[0x5]
80005d7e:	74 0a       	ld.w	r10,r10[0x0]
80005d80:	1a dc       	st.w	--sp,r12
80005d82:	f5 3c 00 12 	ld.ub	r12,r10[18]
80005d86:	30 1a       	mov	r10,1
80005d88:	e0 a0 08 f6 	rcall	80006f74 <uhd_ep_run>
		    uhi_ftdi_dev.ep_out, true, buf, buf_size,
		    UHI_FTDI_TIMEOUT, callback);
}
80005d8c:	2f ed       	sub	sp,-8
80005d8e:	d8 02       	popm	pc

80005d90 <uhi_ftdi_in_run>:
80005d90:	d4 01       	pushm	lr
80005d92:	1a da       	st.w	--sp,r10
80005d94:	16 98       	mov	r8,r11
80005d96:	18 99       	mov	r9,r12
}

// run the input endpoint (bulk)
bool uhi_ftdi_in_run(uint8_t * buf, iram_size_t buf_size,
		     uhd_callback_trans_t callback) {
  return uhd_ep_run(uhi_ftdi_dev.dev->address,
80005d98:	e0 6a 08 3c 	mov	r10,2108
80005d9c:	e0 6c 4e 20 	mov	r12,20000
80005da0:	15 cb       	ld.ub	r11,r10[0x4]
80005da2:	74 0a       	ld.w	r10,r10[0x0]
80005da4:	1a dc       	st.w	--sp,r12
80005da6:	f5 3c 00 12 	ld.ub	r12,r10[18]
80005daa:	30 0a       	mov	r10,0
80005dac:	e0 a0 08 e4 	rcall	80006f74 <uhd_ep_run>
		    uhi_ftdi_dev.ep_in, false, buf, buf_size,
		    UHI_FTDI_TIMEOUT, callback);
}
80005db0:	2f ed       	sub	sp,-8
80005db2:	d8 02       	popm	pc

80005db4 <uhi_ftdi_uninstall>:
80005db4:	d4 01       	pushm	lr
80005db6:	e0 68 08 3c 	mov	r8,2108
80005dba:	70 0a       	ld.w	r10,r8[0x0]

  ftdi_change(dev, true);  
}

void uhi_ftdi_uninstall(uhc_device_t* dev) {
  if (uhi_ftdi_dev.dev != dev) {
80005dbc:	18 3a       	cp.w	r10,r12
    return; // Device not enabled in this interface
  }
  uhi_ftdi_dev.dev = NULL;
80005dbe:	c0 41       	brne	80005dc6 <uhi_ftdi_uninstall+0x12>
80005dc0:	30 0b       	mov	r11,0
  Assert(uhi_ftdi_dev.report!=NULL);
  ftdi_change(dev, false);  
80005dc2:	91 0b       	st.w	r8[0x0],r11
80005dc4:	c1 8f       	rcall	80005bf4 <ftdi_change>
80005dc6:	d8 02       	popm	pc

80005dc8 <uhi_ftdi_enable>:
80005dc8:	d4 21       	pushm	r4-r7,lr
80005dca:	e0 68 08 3c 	mov	r8,2108
80005dce:	70 06       	ld.w	r6,r8[0x0]
  return UHC_ENUM_UNSUPPORTED; // No interface supported
}

void uhi_ftdi_enable(uhc_device_t* dev) {

  if (uhi_ftdi_dev.dev != dev) {
80005dd0:	18 36       	cp.w	r6,r12
  }
  /// bit mode (not bitbang? )
  /// todo: what do these mean???
  // val : ff
  // indx : 1
  send_ctl_request(FTDI_DEVICE_OUT_REQTYPE, 
80005dd2:	c3 e1       	brne	80005e4e <uhi_ftdi_enable+0x86>
80005dd4:	e0 68 00 ff 	mov	r8,255
80005dd8:	30 07       	mov	r7,0
80005dda:	30 bb       	mov	r11,11
80005ddc:	1a d7       	st.w	--sp,r7
80005dde:	0e 99       	mov	r9,r7
80005de0:	1a d8       	st.w	--sp,r8
80005de2:	0e 9a       	mov	r10,r7
80005de4:	30 18       	mov	r8,1
80005de6:	34 0c       	mov	r12,64
80005de8:	c3 af       	rcall	80005c5c <send_ctl_request>
		   NULL);
  /// line property
  /// todo: what do these mean???
  // index 1
  // val : 8
  send_ctl_request(FTDI_DEVICE_OUT_REQTYPE, 
80005dea:	30 88       	mov	r8,8
80005dec:	1a d7       	st.w	--sp,r7
80005dee:	0e 99       	mov	r9,r7
80005df0:	1a d8       	st.w	--sp,r8
80005df2:	0e 9a       	mov	r10,r7
80005df4:	30 18       	mov	r8,1
80005df6:	30 4b       	mov	r11,4
80005df8:	34 0c       	mov	r12,64
80005dfa:	c3 1f       	rcall	80005c5c <send_ctl_request>
80005dfc:	e0 69 c0 36 	mov	r9,49206
  /// baud rate
  // rq : 3
  // value: 26 (baudrate: 115200)
  // value: 49206 (baudrate : 57600)
  // index: 0
  send_ctl_request(FTDI_DEVICE_OUT_REQTYPE, 
80005e00:	1a d7       	st.w	--sp,r7
80005e02:	0e 98       	mov	r8,r7
80005e04:	1a d9       	st.w	--sp,r9
80005e06:	0e 9a       	mov	r10,r7
80005e08:	0e 99       	mov	r9,r7
80005e0a:	30 3b       	mov	r11,3
80005e0c:	34 0c       	mov	r12,64
80005e0e:	c2 7f       	rcall	80005c5c <send_ctl_request>
80005e10:	e0 68 03 e8 	mov	r8,1000
 *
 * \return the converted number of CPU cycles.
 */
__always_inline static uint32_t cpu_ms_2_cy(unsigned long ms, unsigned long fcpu_hz)
{
  return ((unsigned long long)ms * fcpu_hz + 999) / 1000;
80005e14:	30 09       	mov	r9,0
80005e16:	e0 6a 7b e7 	mov	r10,31719
80005e1a:	ea 1a cb 41 	orh	r10,0xcb41
80005e1e:	30 2b       	mov	r11,2
80005e20:	e0 a0 13 3a 	rcall	80008494 <__avr32_udiv64>
80005e24:	e1 b8 00 42 	mfsr	r8,0x108
 * \param  delay:   (input) delay in CPU cycles before timeout.
 * \param  cpu_time: (output) internal information used by the timer API.
 */
__always_inline static void cpu_set_timeout(unsigned long delay, t_cpu_time *cpu_time)
{
  cpu_time->delay_start_cycle = Get_system_register(AVR32_COUNT);
80005e28:	f0 0a 00 0a 	add	r10,r8,r10
  cpu_time->delay_end_cycle   = cpu_time->delay_start_cycle + delay;
80005e2c:	2f ad       	sub	sp,-24
80005e2e:	e1 b9 00 42 	mfsr	r9,0x108
 *
 * \return true if timeout occurred, otherwise false.
 */
__always_inline static unsigned long cpu_is_timeout(t_cpu_time *cpu_time)
{
  unsigned long current_cycle_count = Get_system_register(AVR32_COUNT);
80005e32:	14 38       	cp.w	r8,r10
80005e34:	e0 88 00 05 	brls	80005e3e <uhi_ftdi_enable+0x76>
  // Test if the timeout as already occurred.
  else if (cpu_time->timer_state == CPU_TIMER_STATE_REACHED)
    return true;

  // If the ending cycle count of this timeout is wrapped, ...
  else if (cpu_time->delay_start_cycle > cpu_time->delay_end_cycle)
80005e38:	10 39       	cp.w	r9,r8
80005e3a:	cf a2       	brcc	80005e2e <uhi_ftdi_enable+0x66>
  {
    if (current_cycle_count < cpu_time->delay_start_cycle && current_cycle_count > cpu_time->delay_end_cycle)
80005e3c:	c0 38       	rjmp	80005e42 <uhi_ftdi_enable+0x7a>
80005e3e:	10 39       	cp.w	r9,r8
80005e40:	c0 43       	brcs	80005e48 <uhi_ftdi_enable+0x80>
    }
    return false;
  }
  else
  {
    if (current_cycle_count < cpu_time->delay_start_cycle || current_cycle_count > cpu_time->delay_end_cycle)
80005e42:	14 39       	cp.w	r9,r10
80005e44:	fe 98 ff f5 	brls	80005e2e <uhi_ftdi_enable+0x66>
80005e48:	0c 9c       	mov	r12,r6
80005e4a:	30 1b       	mov	r11,1
		   0, 49206,
		   NULL);

  delay_ms(200);

  ftdi_change(dev, true);  
80005e4c:	cd 4e       	rcall	80005bf4 <ftdi_change>
80005e4e:	d8 22       	popm	r4-r7,pc

80005e50 <uhi_ftdi_install>:
80005e50:	d4 31       	pushm	r0-r7,lr
80005e52:	20 1d       	sub	sp,4
80005e54:	e0 63 08 3c 	mov	r3,2108
80005e58:	18 96       	mov	r6,r12
80005e5a:	66 05       	ld.w	r5,r3[0x0]
80005e5c:	58 05       	cp.w	r5,0
80005e5e:	c0 30       	breq	80005e64 <uhi_ftdi_install+0x14>
80005e60:	30 5c       	mov	r12,5
80005e62:	c6 58       	rjmp	80005f2c <uhi_ftdi_install+0xdc>
80005e64:	98 d9       	ld.uh	r9,r12[0xa]
80005e66:	f2 0a 16 08 	lsr	r10,r9,0x8

  // check vid/pid
  vid = le16_to_cpu(dev->dev_desc.idVendor);
  pid = le16_to_cpu(dev->dev_desc.idProduct);

  if( (vid == FTDI_VID) && (pid == FTDI_PID) ) {
80005e6a:	f5 e9 10 89 	or	r9,r10,r9<<0x8
80005e6e:	e0 6a 60 01 	mov	r10,24577
80005e72:	98 c8       	ld.uh	r8,r12[0x8]
80005e74:	f4 09 19 00 	cp.h	r9,r10
80005e78:	5f 09       	sreq	r9
80005e7a:	f0 0a 16 08 	lsr	r10,r8,0x8
80005e7e:	f5 e8 10 88 	or	r8,r10,r8<<0x8
80005e82:	e0 6a 04 03 	mov	r10,1027
80005e86:	f4 08 19 00 	cp.h	r8,r10
80005e8a:	5f 08       	sreq	r8
80005e8c:	10 69       	and	r9,r8
80005e8e:	ea 09 18 00 	cp.b	r9,r5
    ;; // this is an FTDI device, so continue
  } else {
    return UHC_ENUM_UNSUPPORTED;
  }

  conf_desc_lgt = le16_to_cpu(dev->conf_desc->wTotalLength);
80005e92:	c4 c0       	breq	80005f2a <uhi_ftdi_install+0xda>
80005e94:	78 68       	ld.w	r8,r12[0x18]
  ptr_iface = (usb_iface_desc_t*)dev->conf_desc;
80005e96:	11 a4       	ld.ub	r4,r8[0x2]
    ;; // this is an FTDI device, so continue
  } else {
    return UHC_ENUM_UNSUPPORTED;
  }

  conf_desc_lgt = le16_to_cpu(dev->conf_desc->wTotalLength);
80005e98:	10 97       	mov	r7,r8
80005e9a:	11 b8       	ld.ub	r8,r8[0x3]
80005e9c:	f1 e4 10 84 	or	r4,r8,r4<<0x8
80005ea0:	e8 08 16 08 	lsr	r8,r4,0x8
80005ea4:	30 40       	mov	r0,4
80005ea6:	f1 e4 10 84 	or	r4,r8,r4<<0x8
80005eaa:	3f f1       	mov	r1,-1
    case USB_DT_INTERFACE:
      if ((ptr_iface->bInterfaceClass == FTDI_CLASS)
	  && (ptr_iface->bInterfaceProtocol == FTDI_PROTOCOL) ) {
	// print_dbg("\r\n class/protocol matches FTDI. ");
	b_iface_supported = true;
	uhi_ftdi_dev.ep_in = 0;
80005eac:	5c 84       	casts.h	r4
  conf_desc_lgt = le16_to_cpu(dev->conf_desc->wTotalLength);
  ptr_iface = (usb_iface_desc_t*)dev->conf_desc;
  b_iface_supported = false;

  while(conf_desc_lgt) {
    switch (ptr_iface->bDescriptorType) {
80005eae:	0a 92       	mov	r2,r5

  conf_desc_lgt = le16_to_cpu(dev->conf_desc->wTotalLength);
  ptr_iface = (usb_iface_desc_t*)dev->conf_desc;
  b_iface_supported = false;

  while(conf_desc_lgt) {
80005eb0:	30 58       	mov	r8,5
    switch (ptr_iface->bDescriptorType) {
80005eb2:	c3 38       	rjmp	80005f18 <uhi_ftdi_install+0xc8>
80005eb4:	0f 99       	ld.ub	r9,r7[0x1]
80005eb6:	e0 09 18 00 	cp.b	r9,r0
80005eba:	c0 50       	breq	80005ec4 <uhi_ftdi_install+0x74>
80005ebc:	f0 09 18 00 	cp.b	r9,r8
80005ec0:	c2 81       	brne	80005f10 <uhi_ftdi_install+0xc0>

    case USB_DT_INTERFACE:
      if ((ptr_iface->bInterfaceClass == FTDI_CLASS)
80005ec2:	c0 d8       	rjmp	80005edc <uhi_ftdi_install+0x8c>
80005ec4:	0f d9       	ld.ub	r9,r7[0x5]
80005ec6:	e2 09 18 00 	cp.b	r9,r1
	  && (ptr_iface->bInterfaceProtocol == FTDI_PROTOCOL) ) {
80005eca:	c2 21       	brne	80005f0e <uhi_ftdi_install+0xbe>
80005ecc:	0f f9       	ld.ub	r9,r7[0x7]
80005ece:	e2 09 18 00 	cp.b	r9,r1
	// print_dbg("\r\n class/protocol matches FTDI. ");
	b_iface_supported = true;
	uhi_ftdi_dev.ep_in = 0;
80005ed2:	c1 e1       	brne	80005f0e <uhi_ftdi_install+0xbe>
	uhi_ftdi_dev.ep_out = 0;
80005ed4:	a6 c2       	st.b	r3[0x4],r2
80005ed6:	a6 d2       	st.b	r3[0x5],r2

  while(conf_desc_lgt) {
    switch (ptr_iface->bDescriptorType) {

    case USB_DT_INTERFACE:
      if ((ptr_iface->bInterfaceClass == FTDI_CLASS)
80005ed8:	30 15       	mov	r5,1
	b_iface_supported = false;
      }
      break;

    case USB_DT_ENDPOINT:
      if (!b_iface_supported) {
80005eda:	c1 b8       	rjmp	80005f10 <uhi_ftdi_install+0xc0>
80005edc:	58 05       	cp.w	r5,0
	break;
      }
      if (!uhd_ep_alloc(dev->address, (usb_ep_desc_t*)ptr_iface)) {
80005ede:	c1 90       	breq	80005f10 <uhi_ftdi_install+0xc0>
80005ee0:	ed 3c 00 12 	ld.ub	r12,r6[18]
80005ee4:	0e 9b       	mov	r11,r7
80005ee6:	50 08       	stdsp	sp[0x0],r8
80005ee8:	e0 a0 09 9e 	rcall	80007224 <uhd_ep_alloc>
80005eec:	40 08       	lddsp	r8,sp[0x0]
80005eee:	c0 31       	brne	80005ef4 <uhi_ftdi_install+0xa4>
80005ef0:	30 4c       	mov	r12,4
	// print_dbg("\r\n endpoint allocation failed");
	return UHC_ENUM_HARDWARE_LIMIT;
      }

      switch(((usb_ep_desc_t*)ptr_iface)->bmAttributes & USB_EP_TYPE_MASK) {
80005ef2:	c1 d8       	rjmp	80005f2c <uhi_ftdi_install+0xdc>
80005ef4:	0f b9       	ld.ub	r9,r7[0x3]
80005ef6:	f3 d9 c0 02 	bfextu	r9,r9,0x0,0x2
80005efa:	58 29       	cp.w	r9,2
      case USB_EP_TYPE_BULK:
	//	print_dbg("\r\n allocating bulk endpoint: ");
	if (((usb_ep_desc_t*)ptr_iface)->bEndpointAddress & USB_EP_DIR_IN) {
80005efc:	c0 a1       	brne	80005f10 <uhi_ftdi_install+0xc0>
80005efe:	0f a9       	ld.ub	r9,r7[0x2]
80005f00:	e4 09 18 00 	cp.b	r9,r2
	  uhi_ftdi_dev.ep_in = ((usb_ep_desc_t*)ptr_iface)->bEndpointAddress;
80005f04:	c0 34       	brge	80005f0a <uhi_ftdi_install+0xba>
80005f06:	a6 c9       	st.b	r3[0x4],r9
	} else {
	  uhi_ftdi_dev.ep_out = ((usb_ep_desc_t*)ptr_iface)->bEndpointAddress;
80005f08:	c0 48       	rjmp	80005f10 <uhi_ftdi_install+0xc0>
80005f0a:	a6 d9       	st.b	r3[0x5],r9
80005f0c:	c0 28       	rjmp	80005f10 <uhi_ftdi_install+0xc0>
    default:
      // print_dbg("\r\n ignoring descriptor in ftdi device enumeration");
      break;
    }
    Assert(conf_desc_lgt>=ptr_iface->bLength);
    conf_desc_lgt -= ptr_iface->bLength;
80005f0e:	30 05       	mov	r5,0
80005f10:	0f 89       	ld.ub	r9,r7[0x0]
    ptr_iface = (usb_iface_desc_t*)((uint8_t*)ptr_iface + ptr_iface->bLength);
80005f12:	12 14       	sub	r4,r9
    default:
      // print_dbg("\r\n ignoring descriptor in ftdi device enumeration");
      break;
    }
    Assert(conf_desc_lgt>=ptr_iface->bLength);
    conf_desc_lgt -= ptr_iface->bLength;
80005f14:	12 07       	add	r7,r9

  conf_desc_lgt = le16_to_cpu(dev->conf_desc->wTotalLength);
  ptr_iface = (usb_iface_desc_t*)dev->conf_desc;
  b_iface_supported = false;

  while(conf_desc_lgt) {
80005f16:	5c 84       	casts.h	r4
80005f18:	58 04       	cp.w	r4,0
    Assert(conf_desc_lgt>=ptr_iface->bLength);
    conf_desc_lgt -= ptr_iface->bLength;
    ptr_iface = (usb_iface_desc_t*)((uint8_t*)ptr_iface + ptr_iface->bLength);
  }

  if (b_iface_supported) {
80005f1a:	cc d1       	brne	80005eb4 <uhi_ftdi_install+0x64>
80005f1c:	58 05       	cp.w	r5,0
    uhi_ftdi_dev.dev = dev;
80005f1e:	c0 60       	breq	80005f2a <uhi_ftdi_install+0xda>
80005f20:	e0 68 08 3c 	mov	r8,2108
    // print_dbg("\r\n completed FTDI device install");
    return UHC_ENUM_SUCCESS;
80005f24:	08 9c       	mov	r12,r4
80005f26:	91 06       	st.w	r8[0x0],r6
  }
  return UHC_ENUM_UNSUPPORTED; // No interface supported
}
80005f28:	c0 28       	rjmp	80005f2c <uhi_ftdi_install+0xdc>
80005f2a:	30 1c       	mov	r12,1
80005f2c:	2f fd       	sub	sp,-4
80005f2e:	d8 32       	popm	r0-r7,pc

80005f30 <flashc_set_bus_freq>:
80005f30:	e0 68 8a 3f 	mov	r8,35391
80005f34:	ea 18 01 f7 	orh	r8,0x1f7
80005f38:	10 3c       	cp.w	r12,r8
80005f3a:	e0 88 00 07 	brls	80005f48 <flashc_set_bus_freq+0x18>
80005f3e:	fe 68 14 00 	mov	r8,-125952
80005f42:	30 1a       	mov	r10,1
80005f44:	70 09       	ld.w	r9,r8[0x0]
80005f46:	c0 58       	rjmp	80005f50 <flashc_set_bus_freq+0x20>
80005f48:	fe 68 14 00 	mov	r8,-125952
80005f4c:	30 0a       	mov	r10,0
80005f4e:	70 09       	ld.w	r9,r8[0x0]
80005f50:	f3 da d0 c1 	bfins	r9,r10,0x6,0x1
80005f54:	91 09       	st.w	r8[0x0],r9
80005f56:	5e fc       	retal	r12

80005f58 <flashc_default_wait_until_ready>:
80005f58:	fe 69 14 00 	mov	r9,-125952
80005f5c:	30 08       	mov	r8,0
80005f5e:	72 2a       	ld.w	r10,r9[0x8]
80005f60:	f5 da c0 01 	bfextu	r10,r10,0x0,0x1
80005f64:	f0 0a 18 00 	cp.b	r10,r8
80005f68:	cf b0       	breq	80005f5e <flashc_default_wait_until_ready+0x6>
80005f6a:	5e fc       	retal	r12

80005f6c <flashc_issue_command>:
80005f6c:	d4 21       	pushm	r4-r7,lr
80005f6e:	33 c8       	mov	r8,60
80005f70:	18 97       	mov	r7,r12
80005f72:	70 08       	ld.w	r8,r8[0x0]
80005f74:	16 96       	mov	r6,r11
80005f76:	5d 18       	icall	r8
80005f78:	fe 68 14 00 	mov	r8,-125952
80005f7c:	70 18       	ld.w	r8,r8[0x4]
80005f7e:	f1 d7 d0 06 	bfins	r8,r7,0x0,0x6
80005f82:	58 06       	cp.w	r6,0
80005f84:	c0 35       	brlt	80005f8a <flashc_issue_command+0x1e>
80005f86:	f1 d6 d1 10 	bfins	r8,r6,0x8,0x10
80005f8a:	fe 69 14 00 	mov	r9,-125952
80005f8e:	3a 5a       	mov	r10,-91
80005f90:	f1 da d3 08 	bfins	r8,r10,0x18,0x8
80005f94:	93 18       	st.w	r9[0x4],r8
80005f96:	72 28       	ld.w	r8,r9[0x8]
80005f98:	e0 69 08 48 	mov	r9,2120
80005f9c:	e2 18 00 0c 	andl	r8,0xc,COH
80005fa0:	93 08       	st.w	r9[0x0],r8
80005fa2:	33 c8       	mov	r8,60
80005fa4:	70 08       	ld.w	r8,r8[0x0]
80005fa6:	5d 18       	icall	r8
80005fa8:	d8 22       	popm	r4-r7,pc
80005faa:	d7 03       	nop

80005fac <flashc_clear_page_buffer>:
80005fac:	d4 01       	pushm	lr
80005fae:	3f fb       	mov	r11,-1
80005fb0:	30 3c       	mov	r12,3
80005fb2:	cd df       	rcall	80005f6c <flashc_issue_command>
80005fb4:	d8 02       	popm	pc
80005fb6:	d7 03       	nop

80005fb8 <flashc_quick_page_read>:
80005fb8:	d4 01       	pushm	lr
80005fba:	18 9b       	mov	r11,r12
80005fbc:	30 cc       	mov	r12,12
80005fbe:	cd 7f       	rcall	80005f6c <flashc_issue_command>
80005fc0:	fe 68 14 00 	mov	r8,-125952
80005fc4:	70 2c       	ld.w	r12,r8[0x8]
80005fc6:	f9 dc c0 a1 	bfextu	r12,r12,0x5,0x1
80005fca:	d8 02       	popm	pc

80005fcc <flashc_erase_page>:
80005fcc:	d4 21       	pushm	r4-r7,lr
80005fce:	16 97       	mov	r7,r11
80005fd0:	18 9b       	mov	r11,r12
80005fd2:	30 2c       	mov	r12,2
80005fd4:	cc cf       	rcall	80005f6c <flashc_issue_command>
80005fd6:	58 07       	cp.w	r7,0
80005fd8:	c0 21       	brne	80005fdc <flashc_erase_page+0x10>
80005fda:	da 2a       	popm	r4-r7,pc,r12=1
80005fdc:	e0 67 08 48 	mov	r7,2120
80005fe0:	3f fc       	mov	r12,-1
80005fe2:	6e 06       	ld.w	r6,r7[0x0]
80005fe4:	ce af       	rcall	80005fb8 <flashc_quick_page_read>
80005fe6:	6e 08       	ld.w	r8,r7[0x0]
80005fe8:	f1 e6 10 06 	or	r6,r8,r6
80005fec:	8f 06       	st.w	r7[0x0],r6
80005fee:	d8 22       	popm	r4-r7,pc

80005ff0 <flashc_write_page>:
80005ff0:	d4 01       	pushm	lr
80005ff2:	18 9b       	mov	r11,r12
80005ff4:	30 1c       	mov	r12,1
80005ff6:	cb bf       	rcall	80005f6c <flashc_issue_command>
80005ff8:	d8 02       	popm	pc
80005ffa:	d7 03       	nop

80005ffc <flashc_quick_user_page_read>:
80005ffc:	d4 01       	pushm	lr
80005ffe:	30 fc       	mov	r12,15
80006000:	3f fb       	mov	r11,-1
80006002:	cb 5f       	rcall	80005f6c <flashc_issue_command>
80006004:	fe 68 14 00 	mov	r8,-125952
80006008:	70 2c       	ld.w	r12,r8[0x8]
8000600a:	f9 dc c0 a1 	bfextu	r12,r12,0x5,0x1
8000600e:	d8 02       	popm	pc

80006010 <flashc_erase_user_page>:
80006010:	d4 21       	pushm	r4-r7,lr
80006012:	3f fb       	mov	r11,-1
80006014:	18 97       	mov	r7,r12
80006016:	30 ec       	mov	r12,14
80006018:	ca af       	rcall	80005f6c <flashc_issue_command>
8000601a:	58 07       	cp.w	r7,0
8000601c:	c0 21       	brne	80006020 <flashc_erase_user_page+0x10>
8000601e:	da 2a       	popm	r4-r7,pc,r12=1
80006020:	ce ef       	rcall	80005ffc <flashc_quick_user_page_read>
80006022:	d8 22       	popm	r4-r7,pc

80006024 <flashc_write_user_page>:
80006024:	d4 01       	pushm	lr
80006026:	3f fb       	mov	r11,-1
80006028:	30 dc       	mov	r12,13
8000602a:	ca 1f       	rcall	80005f6c <flashc_issue_command>
8000602c:	d8 02       	popm	pc
8000602e:	d7 03       	nop

80006030 <flashc_memset64>:
80006030:	d4 31       	pushm	r0-r7,lr
80006032:	21 2d       	sub	sp,72
80006034:	50 58       	stdsp	sp[0x14],r8
80006036:	12 96       	mov	r6,r9
80006038:	30 08       	mov	r8,0
8000603a:	30 09       	mov	r9,0
8000603c:	18 97       	mov	r7,r12
8000603e:	fa e9 00 38 	st.d	sp[56],r8
80006042:	14 94       	mov	r4,r10
80006044:	16 95       	mov	r5,r11
80006046:	31 0a       	mov	r10,16
80006048:	fe cb c7 7e 	sub	r11,pc,-14466
8000604c:	fa cc ff e0 	sub	r12,sp,-32
80006050:	e0 a0 15 a2 	rcall	80008b94 <memcpy>
80006054:	fe 68 14 00 	mov	r8,-125952
80006058:	fa cb ff b8 	sub	r11,sp,-72
8000605c:	70 28       	ld.w	r8,r8[0x8]
8000605e:	f1 d8 c1 a3 	bfextu	r8,r8,0xd,0x3
80006062:	f6 08 00 18 	add	r8,r11,r8<<0x1
80006066:	f1 13 ff d8 	ld.uh	r3,r8[-40]
8000606a:	30 08       	mov	r8,0
8000606c:	ea 18 80 00 	orh	r8,0x8000
80006070:	ab 63       	lsl	r3,0xa
80006072:	51 17       	stdsp	sp[0x44],r7
80006074:	10 03       	add	r3,r8
80006076:	ee c8 ff f9 	sub	r8,r7,-7
8000607a:	f1 d8 c0 03 	bfextu	r8,r8,0x0,0x3
8000607e:	c1 38       	rjmp	800060a4 <flashc_memset64+0x74>
80006080:	f0 c9 00 01 	sub	r9,r8,1
80006084:	fa ca ff b8 	sub	r10,sp,-72
80006088:	f4 08 00 08 	add	r8,r10,r8
8000608c:	ea 0a 16 08 	lsr	r10,r5,0x8
80006090:	f1 64 ff f0 	st.b	r8[-16],r4
80006094:	f1 d9 c0 03 	bfextu	r8,r9,0x0,0x3
80006098:	e8 09 16 08 	lsr	r9,r4,0x8
8000609c:	f3 e5 11 89 	or	r9,r9,r5<<0x18
800060a0:	14 95       	mov	r5,r10
800060a2:	12 94       	mov	r4,r9
800060a4:	58 04       	cp.w	r4,0
800060a6:	5c 25       	cpc	r5
800060a8:	ce c1       	brne	80006080 <flashc_memset64+0x50>
800060aa:	ee 06 00 06 	add	r6,r7,r6
800060ae:	e0 69 ff ff 	mov	r9,65535
800060b2:	ea 19 7f ff 	orh	r9,0x7fff
800060b6:	12 37       	cp.w	r7,r9
800060b8:	e0 8b 00 06 	brhi	800060c4 <flashc_memset64+0x94>
800060bc:	30 08       	mov	r8,0
800060be:	ea 18 80 00 	orh	r8,0x8000
800060c2:	c0 e8       	rjmp	800060de <flashc_memset64+0xae>
800060c4:	0e 33       	cp.w	r3,r7
800060c6:	e0 8b 00 0d 	brhi	800060e0 <flashc_memset64+0xb0>
800060ca:	e0 68 ff ff 	mov	r8,65535
800060ce:	ea 18 80 7f 	orh	r8,0x807f
800060d2:	10 37       	cp.w	r7,r8
800060d4:	e0 8b 00 06 	brhi	800060e0 <flashc_memset64+0xb0>
800060d8:	30 08       	mov	r8,0
800060da:	ea 18 80 80 	orh	r8,0x8080
800060de:	51 18       	stdsp	sp[0x44],r8
800060e0:	e0 61 02 00 	mov	r1,512
800060e4:	ea 11 80 80 	orh	r1,0x8080
800060e8:	02 36       	cp.w	r6,r1
800060ea:	e0 88 00 04 	brls	800060f2 <flashc_memset64+0xc2>
800060ee:	02 96       	mov	r6,r1
800060f0:	c0 a8       	rjmp	80006104 <flashc_memset64+0xd4>
800060f2:	30 00       	mov	r0,0
800060f4:	ea 10 80 80 	orh	r0,0x8080
800060f8:	00 36       	cp.w	r6,r0
800060fa:	e0 8b 00 05 	brhi	80006104 <flashc_memset64+0xd4>
800060fe:	06 36       	cp.w	r6,r3
80006100:	e6 06 17 b0 	movhi	r6,r3
80006104:	fa ea 00 38 	ld.d	r10,sp[56]
80006108:	e5 d6 c0 03 	bfextu	r2,r6,0x0,0x3
8000610c:	0c 91       	mov	r1,r6
8000610e:	ec 02 01 08 	sub	r8,r6,r2
80006112:	fa eb 00 04 	st.d	sp[4],r10
80006116:	2f 88       	sub	r8,-8
80006118:	0c 9a       	mov	r10,r6
8000611a:	e0 11 ff f8 	andl	r1,0xfff8
8000611e:	e0 1a fe 00 	andl	r10,0xfe00
80006122:	50 78       	stdsp	sp[0x1c],r8
80006124:	30 05       	mov	r5,0
80006126:	e0 64 08 48 	mov	r4,2120
8000612a:	50 6a       	stdsp	sp[0x18],r10
8000612c:	c9 d8       	rjmp	80006266 <flashc_memset64+0x236>
8000612e:	c3 ff       	rcall	80005fac <flashc_clear_page_buffer>
80006130:	fa e8 00 04 	ld.d	r8,sp[4]
80006134:	fa e9 00 30 	st.d	sp[48],r8
80006138:	68 08       	ld.w	r8,r4[0x0]
8000613a:	00 99       	mov	r9,r0
8000613c:	10 45       	or	r5,r8
8000613e:	e0 19 fe 00 	andl	r9,0xfe00
80006142:	f1 d0 c0 09 	bfextu	r8,r0,0x0,0x9
80006146:	f2 cc fe 00 	sub	r12,r9,-512
8000614a:	e2 0c 0d 4c 	min	r12,r1,r12
8000614e:	58 08       	cp.w	r8,0
80006150:	c3 20       	breq	800061b4 <flashc_memset64+0x184>
80006152:	00 9a       	mov	r10,r0
80006154:	51 09       	stdsp	sp[0x40],r9
80006156:	12 9b       	mov	r11,r9
80006158:	e0 1a ff f8 	andl	r10,0xfff8
8000615c:	0c 9e       	mov	lr,r6
8000615e:	50 07       	stdsp	sp[0x0],r7
80006160:	c0 58       	rjmp	8000616a <flashc_memset64+0x13a>
80006162:	f0 e6 00 00 	ld.d	r6,r8[0]
80006166:	f0 e7 00 00 	st.d	r8[0],r6
8000616a:	16 98       	mov	r8,r11
8000616c:	2f 8b       	sub	r11,-8
8000616e:	14 38       	cp.w	r8,r10
80006170:	cf 93       	brcs	80006162 <flashc_memset64+0x132>
80006172:	51 08       	stdsp	sp[0x40],r8
80006174:	1c 96       	mov	r6,lr
80006176:	40 07       	lddsp	r7,sp[0x0]
80006178:	e1 d0 c0 03 	bfextu	r0,r0,0x0,0x3
8000617c:	c1 c0       	breq	800061b4 <flashc_memset64+0x184>
8000617e:	30 0b       	mov	r11,0
80006180:	50 39       	stdsp	sp[0xc],r9
80006182:	f0 0b 00 0e 	add	lr,r8,r11
80006186:	fa c9 ff d0 	sub	r9,sp,-48
8000618a:	1d 8e       	ld.ub	lr,lr[0x0]
8000618c:	f2 0b 0b 0e 	st.b	r9[r11],lr
80006190:	2f fb       	sub	r11,-1
80006192:	00 3b       	cp.w	r11,r0
80006194:	cf 71       	brne	80006182 <flashc_memset64+0x152>
80006196:	16 08       	add	r8,r11
80006198:	51 1a       	stdsp	sp[0x44],r10
8000619a:	51 08       	stdsp	sp[0x40],r8
8000619c:	40 39       	lddsp	r9,sp[0xc]
8000619e:	02 3a       	cp.w	r10,r1
800061a0:	c0 a2       	brcc	800061b4 <flashc_memset64+0x184>
800061a2:	14 98       	mov	r8,r10
800061a4:	fa ea 00 30 	ld.d	r10,sp[48]
800061a8:	b1 2a       	st.d	r8++,r10
800061aa:	fa ea 00 04 	ld.d	r10,sp[4]
800061ae:	51 18       	stdsp	sp[0x44],r8
800061b0:	fa eb 00 30 	st.d	sp[48],r10
800061b4:	41 18       	lddsp	r8,sp[0x44]
800061b6:	02 9e       	mov	lr,r1
800061b8:	10 1c       	sub	r12,r8
800061ba:	10 9b       	mov	r11,r8
800061bc:	a3 5c       	asr	r12,0x3
800061be:	18 9a       	mov	r10,r12
800061c0:	c0 68       	rjmp	800061cc <flashc_memset64+0x19c>
800061c2:	d7 03       	nop
800061c4:	fa e0 00 04 	ld.d	r0,sp[4]
800061c8:	20 1a       	sub	r10,1
800061ca:	b7 20       	st.d	r11++,r0
800061cc:	58 0a       	cp.w	r10,0
800061ce:	cf b1       	brne	800061c4 <flashc_memset64+0x194>
800061d0:	f0 0c 00 3c 	add	r12,r8,r12<<0x3
800061d4:	51 1c       	stdsp	sp[0x44],r12
800061d6:	1c 91       	mov	r1,lr
800061d8:	40 60       	lddsp	r0,sp[0x18]
800061da:	00 39       	cp.w	r9,r0
800061dc:	c2 13       	brcs	8000621e <flashc_memset64+0x1ee>
800061de:	51 06       	stdsp	sp[0x40],r6
800061e0:	58 02       	cp.w	r2,0
800061e2:	c1 10       	breq	80006204 <flashc_memset64+0x1d4>
800061e4:	fa c8 ff d0 	sub	r8,sp,-48
800061e8:	0c 99       	mov	r9,r6
800061ea:	04 08       	add	r8,r2
800061ec:	fa ca ff c8 	sub	r10,sp,-56
800061f0:	13 3b       	ld.ub	r11,r9++
800061f2:	10 cb       	st.b	r8++,r11
800061f4:	14 38       	cp.w	r8,r10
800061f6:	cf d1       	brne	800061f0 <flashc_memset64+0x1c0>
800061f8:	40 7b       	lddsp	r11,sp[0x1c]
800061fa:	51 0b       	stdsp	sp[0x40],r11
800061fc:	fa e8 00 30 	ld.d	r8,sp[48]
80006200:	b9 28       	st.d	r12++,r8
80006202:	51 1c       	stdsp	sp[0x44],r12
80006204:	41 08       	lddsp	r8,sp[0x40]
80006206:	c0 58       	rjmp	80006210 <flashc_memset64+0x1e0>
80006208:	f2 ea 00 00 	ld.d	r10,r9[0]
8000620c:	f2 eb 00 00 	st.d	r9[0],r10
80006210:	10 99       	mov	r9,r8
80006212:	f5 d8 c0 09 	bfextu	r10,r8,0x0,0x9
80006216:	2f 88       	sub	r8,-8
80006218:	58 0a       	cp.w	r10,0
8000621a:	cf 71       	brne	80006208 <flashc_memset64+0x1d8>
8000621c:	51 09       	stdsp	sp[0x40],r9
8000621e:	41 10       	lddsp	r0,sp[0x44]
80006220:	30 0a       	mov	r10,0
80006222:	ea 1a 80 80 	orh	r10,0x8080
80006226:	14 30       	cp.w	r0,r10
80006228:	e0 8b 00 15 	brhi	80006252 <flashc_memset64+0x222>
8000622c:	40 59       	lddsp	r9,sp[0x14]
8000622e:	58 09       	cp.w	r9,0
80006230:	c0 60       	breq	8000623c <flashc_memset64+0x20c>
80006232:	30 0b       	mov	r11,0
80006234:	3f fc       	mov	r12,-1
80006236:	cc be       	rcall	80005fcc <flashc_erase_page>
80006238:	68 08       	ld.w	r8,r4[0x0]
8000623a:	10 45       	or	r5,r8
8000623c:	3f fc       	mov	r12,-1
8000623e:	cd 9e       	rcall	80005ff0 <flashc_write_page>
80006240:	68 08       	ld.w	r8,r4[0x0]
80006242:	10 45       	or	r5,r8
80006244:	06 30       	cp.w	r0,r3
80006246:	c1 03       	brcs	80006266 <flashc_memset64+0x236>
80006248:	30 08       	mov	r8,0
8000624a:	ea 18 80 80 	orh	r8,0x8080
8000624e:	51 18       	stdsp	sp[0x44],r8
80006250:	c0 b8       	rjmp	80006266 <flashc_memset64+0x236>
80006252:	40 58       	lddsp	r8,sp[0x14]
80006254:	58 08       	cp.w	r8,0
80006256:	c0 50       	breq	80006260 <flashc_memset64+0x230>
80006258:	30 0c       	mov	r12,0
8000625a:	cd be       	rcall	80006010 <flashc_erase_user_page>
8000625c:	68 08       	ld.w	r8,r4[0x0]
8000625e:	10 45       	or	r5,r8
80006260:	ce 2e       	rcall	80006024 <flashc_write_user_page>
80006262:	68 08       	ld.w	r8,r4[0x0]
80006264:	10 45       	or	r5,r8
80006266:	41 10       	lddsp	r0,sp[0x44]
80006268:	0c 30       	cp.w	r0,r6
8000626a:	fe 93 ff 62 	brlo	8000612e <flashc_memset64+0xfe>
8000626e:	e0 68 08 48 	mov	r8,2120
80006272:	0e 9c       	mov	r12,r7
80006274:	91 05       	st.w	r8[0x0],r5
80006276:	2e ed       	sub	sp,-72
80006278:	d8 32       	popm	r0-r7,pc
8000627a:	d7 03       	nop

8000627c <flashc_memset32>:
8000627c:	d4 21       	pushm	r4-r7,lr
8000627e:	30 0e       	mov	lr,0
80006280:	16 96       	mov	r6,r11
80006282:	1c 97       	mov	r7,lr
80006284:	12 98       	mov	r8,r9
80006286:	0c 9b       	mov	r11,r6
80006288:	14 99       	mov	r9,r10
8000628a:	0e 4b       	or	r11,r7
8000628c:	0e 9a       	mov	r10,r7
8000628e:	0c 4a       	or	r10,r6
80006290:	cd 0e       	rcall	80006030 <flashc_memset64>
80006292:	d8 22       	popm	r4-r7,pc

80006294 <flashc_memset16>:
80006294:	d4 01       	pushm	lr
80006296:	f7 db d2 10 	bfins	r11,r11,0x10,0x10
8000629a:	cf 1f       	rcall	8000627c <flashc_memset32>
8000629c:	d8 02       	popm	pc
8000629e:	d7 03       	nop

800062a0 <flashc_memset8>:
800062a0:	d4 01       	pushm	lr
800062a2:	f7 eb 10 8b 	or	r11,r11,r11<<0x8
800062a6:	5c 7b       	castu.h	r11
800062a8:	cf 6f       	rcall	80006294 <flashc_memset16>
800062aa:	d8 02       	popm	pc

800062ac <flashc_memcpy>:
800062ac:	d4 31       	pushm	r0-r7,lr
800062ae:	20 4d       	sub	sp,16
800062b0:	e0 6e ff ff 	mov	lr,65535
800062b4:	ea 1e 80 7f 	orh	lr,0x807f
800062b8:	18 94       	mov	r4,r12
800062ba:	1c 3c       	cp.w	r12,lr
800062bc:	5f b5       	srhi	r5
800062be:	18 97       	mov	r7,r12
800062c0:	18 92       	mov	r2,r12
800062c2:	14 96       	mov	r6,r10
800062c4:	fa cc ff f0 	sub	r12,sp,-16
800062c8:	50 19       	stdsp	sp[0x4],r9
800062ca:	16 90       	mov	r0,r11
800062cc:	30 01       	mov	r1,0
800062ce:	e0 14 fe 00 	andl	r4,0xfe00
800062d2:	e0 63 08 48 	mov	r3,2120
800062d6:	50 0c       	stdsp	sp[0x0],r12
800062d8:	c4 08       	rjmp	80006358 <flashc_memcpy+0xac>
800062da:	c6 9e       	rcall	80005fac <flashc_clear_page_buffer>
800062dc:	66 08       	ld.w	r8,r3[0x0]
800062de:	e8 cb fe 00 	sub	r11,r4,-512
800062e2:	10 41       	or	r1,r8
800062e4:	16 9c       	mov	r12,r11
800062e6:	08 98       	mov	r8,r4
800062e8:	f0 ea 00 00 	ld.d	r10,r8[0]
800062ec:	fa c9 ff f8 	sub	r9,sp,-8
800062f0:	fa eb 00 08 	st.d	sp[8],r10
800062f4:	10 9a       	mov	r10,r8
800062f6:	18 9b       	mov	r11,r12
800062f8:	04 3a       	cp.w	r10,r2
800062fa:	5f 0e       	sreq	lr
800062fc:	58 06       	cp.w	r6,0
800062fe:	5f 1c       	srne	r12
80006300:	fd ec 00 0c 	and	r12,lr,r12
80006304:	30 0e       	mov	lr,0
80006306:	fc 0c 18 00 	cp.b	r12,lr
8000630a:	c0 50       	breq	80006314 <flashc_memcpy+0x68>
8000630c:	01 3c       	ld.ub	r12,r0++
8000630e:	2f f2       	sub	r2,-1
80006310:	20 16       	sub	r6,1
80006312:	b2 8c       	st.b	r9[0x0],r12
80006314:	2f fa       	sub	r10,-1
80006316:	2f f9       	sub	r9,-1
80006318:	40 0c       	lddsp	r12,sp[0x0]
8000631a:	18 39       	cp.w	r9,r12
8000631c:	ce e1       	brne	800062f8 <flashc_memcpy+0x4c>
8000631e:	16 9c       	mov	r12,r11
80006320:	fa ea 00 08 	ld.d	r10,sp[8]
80006324:	b1 2a       	st.d	r8++,r10
80006326:	18 38       	cp.w	r8,r12
80006328:	ce 01       	brne	800062e8 <flashc_memcpy+0x3c>
8000632a:	e8 c4 fe 00 	sub	r4,r4,-512
8000632e:	40 1a       	lddsp	r10,sp[0x4]
80006330:	58 0a       	cp.w	r10,0
80006332:	c0 b0       	breq	80006348 <flashc_memcpy+0x9c>
80006334:	58 05       	cp.w	r5,0
80006336:	c0 40       	breq	8000633e <flashc_memcpy+0x92>
80006338:	30 0c       	mov	r12,0
8000633a:	c6 be       	rcall	80006010 <flashc_erase_user_page>
8000633c:	c0 48       	rjmp	80006344 <flashc_memcpy+0x98>
8000633e:	0a 9b       	mov	r11,r5
80006340:	3f fc       	mov	r12,-1
80006342:	c4 5e       	rcall	80005fcc <flashc_erase_page>
80006344:	66 08       	ld.w	r8,r3[0x0]
80006346:	10 41       	or	r1,r8
80006348:	58 05       	cp.w	r5,0
8000634a:	c0 30       	breq	80006350 <flashc_memcpy+0xa4>
8000634c:	c6 ce       	rcall	80006024 <flashc_write_user_page>
8000634e:	c0 38       	rjmp	80006354 <flashc_memcpy+0xa8>
80006350:	3f fc       	mov	r12,-1
80006352:	c4 fe       	rcall	80005ff0 <flashc_write_page>
80006354:	66 08       	ld.w	r8,r3[0x0]
80006356:	10 41       	or	r1,r8
80006358:	58 06       	cp.w	r6,0
8000635a:	cc 01       	brne	800062da <flashc_memcpy+0x2e>
8000635c:	e0 68 08 48 	mov	r8,2120
80006360:	0e 9c       	mov	r12,r7
80006362:	91 01       	st.w	r8[0x0],r1
80006364:	2f cd       	sub	sp,-16
80006366:	d8 32       	popm	r0-r7,pc

80006368 <gpio_enable_module_pin>:
80006368:	f8 08 16 05 	lsr	r8,r12,0x5
8000636c:	a9 68       	lsl	r8,0x8
8000636e:	e0 28 f0 00 	sub	r8,61440
80006372:	58 1b       	cp.w	r11,1
80006374:	c0 d0       	breq	8000638e <gpio_enable_module_pin+0x26>
80006376:	c0 63       	brcs	80006382 <gpio_enable_module_pin+0x1a>
80006378:	58 2b       	cp.w	r11,2
8000637a:	c0 f0       	breq	80006398 <gpio_enable_module_pin+0x30>
8000637c:	58 3b       	cp.w	r11,3
8000637e:	c1 20       	breq	800063a2 <gpio_enable_module_pin+0x3a>
80006380:	5e ff       	retal	1
80006382:	30 19       	mov	r9,1
80006384:	f2 0c 09 49 	lsl	r9,r9,r12
80006388:	91 69       	st.w	r8[0x18],r9
8000638a:	91 a9       	st.w	r8[0x28],r9
8000638c:	c1 08       	rjmp	800063ac <gpio_enable_module_pin+0x44>
8000638e:	f6 0c 09 4b 	lsl	r11,r11,r12
80006392:	91 5b       	st.w	r8[0x14],r11
80006394:	91 ab       	st.w	r8[0x28],r11
80006396:	c0 b8       	rjmp	800063ac <gpio_enable_module_pin+0x44>
80006398:	30 19       	mov	r9,1
8000639a:	f2 0c 09 49 	lsl	r9,r9,r12
8000639e:	91 69       	st.w	r8[0x18],r9
800063a0:	c0 58       	rjmp	800063aa <gpio_enable_module_pin+0x42>
800063a2:	30 19       	mov	r9,1
800063a4:	f2 0c 09 49 	lsl	r9,r9,r12
800063a8:	91 59       	st.w	r8[0x14],r9
800063aa:	91 99       	st.w	r8[0x24],r9
800063ac:	30 19       	mov	r9,1
800063ae:	f2 0c 09 4c 	lsl	r12,r9,r12
800063b2:	91 2c       	st.w	r8[0x8],r12
800063b4:	5e fd       	retal	0
800063b6:	d7 03       	nop

800063b8 <gpio_enable_module>:
800063b8:	d4 21       	pushm	r4-r7,lr
800063ba:	30 07       	mov	r7,0
800063bc:	18 96       	mov	r6,r12
800063be:	16 94       	mov	r4,r11
800063c0:	0e 95       	mov	r5,r7
800063c2:	c0 78       	rjmp	800063d0 <gpio_enable_module+0x18>
800063c4:	6c 1b       	ld.w	r11,r6[0x4]
800063c6:	6c 0c       	ld.w	r12,r6[0x0]
800063c8:	2f f7       	sub	r7,-1
800063ca:	2f 86       	sub	r6,-8
800063cc:	cc ef       	rcall	80006368 <gpio_enable_module_pin>
800063ce:	18 45       	or	r5,r12
800063d0:	08 37       	cp.w	r7,r4
800063d2:	cf 93       	brcs	800063c4 <gpio_enable_module+0xc>
800063d4:	0a 9c       	mov	r12,r5
800063d6:	d8 22       	popm	r4-r7,pc

800063d8 <gpio_enable_gpio_pin>:
800063d8:	30 18       	mov	r8,1
800063da:	f0 0c 09 48 	lsl	r8,r8,r12
800063de:	a5 9c       	lsr	r12,0x5
800063e0:	a9 6c       	lsl	r12,0x8
800063e2:	e0 2c f0 00 	sub	r12,61440
800063e6:	f9 48 00 48 	st.w	r12[72],r8
800063ea:	99 18       	st.w	r12[0x4],r8
800063ec:	5e fc       	retal	r12

800063ee <gpio_get_pin_value>:
800063ee:	f8 08 16 05 	lsr	r8,r12,0x5
800063f2:	a9 68       	lsl	r8,0x8
800063f4:	e0 28 f0 00 	sub	r8,61440
800063f8:	71 88       	ld.w	r8,r8[0x60]
800063fa:	f0 0c 0a 4c 	lsr	r12,r8,r12
800063fe:	f9 dc c0 01 	bfextu	r12,r12,0x0,0x1
80006402:	5e fc       	retal	r12

80006404 <gpio_set_gpio_pin>:
80006404:	30 18       	mov	r8,1
80006406:	f0 0c 09 48 	lsl	r8,r8,r12
8000640a:	a5 9c       	lsr	r12,0x5
8000640c:	a9 6c       	lsl	r12,0x8
8000640e:	e0 2c f0 00 	sub	r12,61440
80006412:	f9 48 00 54 	st.w	r12[84],r8
80006416:	f9 48 00 44 	st.w	r12[68],r8
8000641a:	99 18       	st.w	r12[0x4],r8
8000641c:	5e fc       	retal	r12

8000641e <gpio_clr_gpio_pin>:
8000641e:	30 18       	mov	r8,1
80006420:	f0 0c 09 48 	lsl	r8,r8,r12
80006424:	a5 9c       	lsr	r12,0x5
80006426:	a9 6c       	lsl	r12,0x8
80006428:	e0 2c f0 00 	sub	r12,61440
8000642c:	f9 48 00 58 	st.w	r12[88],r8
80006430:	f9 48 00 44 	st.w	r12[68],r8
80006434:	99 18       	st.w	r12[0x4],r8
80006436:	5e fc       	retal	r12

80006438 <gpio_enable_pin_interrupt>:
80006438:	30 1a       	mov	r10,1
8000643a:	f8 08 16 05 	lsr	r8,r12,0x5
8000643e:	f4 0c 09 49 	lsl	r9,r10,r12
80006442:	a9 68       	lsl	r8,0x8
80006444:	e0 28 f0 00 	sub	r8,61440
80006448:	f1 49 00 c4 	st.w	r8[196],r9
8000644c:	14 3b       	cp.w	r11,r10
8000644e:	c0 80       	breq	8000645e <gpio_enable_pin_interrupt+0x26>
80006450:	c0 43       	brcs	80006458 <gpio_enable_pin_interrupt+0x20>
80006452:	58 2b       	cp.w	r11,2
80006454:	c0 f1       	brne	80006472 <gpio_enable_pin_interrupt+0x3a>
80006456:	c0 98       	rjmp	80006468 <gpio_enable_pin_interrupt+0x30>
80006458:	f1 49 00 a8 	st.w	r8[168],r9
8000645c:	c0 38       	rjmp	80006462 <gpio_enable_pin_interrupt+0x2a>
8000645e:	f1 49 00 a4 	st.w	r8[164],r9
80006462:	f1 49 00 b8 	st.w	r8[184],r9
80006466:	c0 78       	rjmp	80006474 <gpio_enable_pin_interrupt+0x3c>
80006468:	f1 49 00 a8 	st.w	r8[168],r9
8000646c:	f1 49 00 b4 	st.w	r8[180],r9
80006470:	c0 28       	rjmp	80006474 <gpio_enable_pin_interrupt+0x3c>
80006472:	5e fa       	retal	r10
80006474:	f1 49 00 94 	st.w	r8[148],r9
80006478:	5e fd       	retal	0

8000647a <gpio_get_pin_interrupt_flag>:
8000647a:	f8 08 16 05 	lsr	r8,r12,0x5
8000647e:	a9 68       	lsl	r8,0x8
80006480:	e0 28 f0 00 	sub	r8,61440
80006484:	f0 f8 00 d0 	ld.w	r8,r8[208]
80006488:	f0 0c 0a 4c 	lsr	r12,r8,r12
8000648c:	f9 dc c0 01 	bfextu	r12,r12,0x0,0x1
80006490:	5e fc       	retal	r12

80006492 <gpio_clear_pin_interrupt_flag>:
80006492:	30 18       	mov	r8,1
80006494:	f0 0c 09 48 	lsl	r8,r8,r12
80006498:	a5 9c       	lsr	r12,0x5
8000649a:	a9 6c       	lsl	r12,0x8
8000649c:	e0 2c f0 00 	sub	r12,61440
800064a0:	f9 48 00 d8 	st.w	r12[216],r8
800064a4:	5e fc       	retal	r12

800064a6 <_unhandled_interrupt>:
800064a6:	c0 08       	rjmp	800064a6 <_unhandled_interrupt>

800064a8 <INTC_register_interrupt>:
800064a8:	f3 db c0 05 	bfextu	r9,r11,0x0,0x5
800064ac:	fe c8 cb d0 	sub	r8,pc,-13360
800064b0:	a5 9b       	lsr	r11,0x5
800064b2:	f0 0b 00 38 	add	r8,r8,r11<<0x3
800064b6:	70 18       	ld.w	r8,r8[0x4]
800064b8:	f0 09 09 2c 	st.w	r8[r9<<0x2],r12
800064bc:	58 0a       	cp.w	r10,0
800064be:	c0 c1       	brne	800064d6 <INTC_register_interrupt+0x2e>
800064c0:	fe 78 08 00 	mov	r8,-63488
800064c4:	fe c9 d2 c4 	sub	r9,pc,-11580
800064c8:	fe ca d1 c4 	sub	r10,pc,-11836
800064cc:	f4 09 01 09 	sub	r9,r10,r9
800064d0:	f0 0b 09 29 	st.w	r8[r11<<0x2],r9
800064d4:	5e fc       	retal	r12
800064d6:	58 1a       	cp.w	r10,1
800064d8:	c0 91       	brne	800064ea <INTC_register_interrupt+0x42>
800064da:	fe c8 d2 da 	sub	r8,pc,-11558
800064de:	fe c9 d1 cc 	sub	r9,pc,-11828
800064e2:	f2 08 01 08 	sub	r8,r9,r8
800064e6:	bf a8       	sbr	r8,0x1e
800064e8:	c1 18       	rjmp	8000650a <INTC_register_interrupt+0x62>
800064ea:	fe c8 d2 ea 	sub	r8,pc,-11542
800064ee:	58 2a       	cp.w	r10,2
800064f0:	c0 71       	brne	800064fe <INTC_register_interrupt+0x56>
800064f2:	fe c9 d1 d2 	sub	r9,pc,-11822
800064f6:	f2 08 01 08 	sub	r8,r9,r8
800064fa:	bf b8       	sbr	r8,0x1f
800064fc:	c0 78       	rjmp	8000650a <INTC_register_interrupt+0x62>
800064fe:	fe c9 d1 d0 	sub	r9,pc,-11824
80006502:	f2 08 01 08 	sub	r8,r9,r8
80006506:	ea 18 c0 00 	orh	r8,0xc000
8000650a:	fe 79 08 00 	mov	r9,-63488
8000650e:	f2 0b 09 28 	st.w	r9[r11<<0x2],r8
80006512:	5e fc       	retal	r12

80006514 <INTC_init_interrupts>:
80006514:	d4 21       	pushm	r4-r7,lr
80006516:	fe c8 d3 16 	sub	r8,pc,-11498
8000651a:	e3 b8 00 01 	mtsr	0x4,r8
8000651e:	fe ce d2 1a 	sub	lr,pc,-11750
80006522:	fe c9 cc 46 	sub	r9,pc,-13242
80006526:	10 1e       	sub	lr,r8
80006528:	fe cc 00 82 	sub	r12,pc,130
8000652c:	30 08       	mov	r8,0
8000652e:	fe 7b 08 00 	mov	r11,-63488
80006532:	c0 e8       	rjmp	8000654e <INTC_init_interrupts+0x3a>
80006534:	72 16       	ld.w	r6,r9[0x4]
80006536:	ec 0a 00 26 	add	r6,r6,r10<<0x2
8000653a:	2f fa       	sub	r10,-1
8000653c:	8d 0c       	st.w	r6[0x0],r12
8000653e:	0e 3a       	cp.w	r10,r7
80006540:	cf a3       	brcs	80006534 <INTC_init_interrupts+0x20>
80006542:	f6 08 09 2e 	st.w	r11[r8<<0x2],lr
80006546:	2f 89       	sub	r9,-8
80006548:	2f f8       	sub	r8,-1
8000654a:	59 28       	cp.w	r8,18
8000654c:	c0 40       	breq	80006554 <INTC_init_interrupts+0x40>
8000654e:	30 0a       	mov	r10,0
80006550:	72 07       	ld.w	r7,r9[0x0]
80006552:	cf 6b       	rjmp	8000653e <INTC_init_interrupts+0x2a>
80006554:	d8 22       	popm	r4-r7,pc
80006556:	d7 03       	nop

80006558 <_get_interrupt_handler>:
80006558:	e0 68 00 83 	mov	r8,131
8000655c:	fe 79 08 00 	mov	r9,-63488
80006560:	f0 0c 01 0c 	sub	r12,r8,r12
80006564:	f2 0c 03 28 	ld.w	r8,r9[r12<<0x2]
80006568:	f0 ca ff c0 	sub	r10,r8,-64
8000656c:	f2 0a 03 2c 	ld.w	r12,r9[r10<<0x2]
80006570:	58 0c       	cp.w	r12,0
80006572:	5e 0c       	reteq	r12
80006574:	fe c9 cc 98 	sub	r9,pc,-13160
80006578:	f8 0c 12 00 	clz	r12,r12
8000657c:	f2 08 00 38 	add	r8,r9,r8<<0x3
80006580:	f8 0c 11 1f 	rsub	r12,r12,31
80006584:	70 18       	ld.w	r8,r8[0x4]
80006586:	f0 0c 03 2c 	ld.w	r12,r8[r12<<0x2]
8000658a:	5e fc       	retal	r12

8000658c <getBaudDiv>:
8000658c:	f8 c8 00 01 	sub	r8,r12,1
80006590:	f0 0b 00 0b 	add	r11,r8,r11
80006594:	f6 0c 0d 0a 	divu	r10,r11,r12
80006598:	14 9c       	mov	r12,r10
8000659a:	f4 c8 00 01 	sub	r8,r10,1
8000659e:	e0 48 00 fe 	cp.w	r8,254
800065a2:	e0 88 00 03 	brls	800065a8 <getBaudDiv+0x1c>
800065a6:	5e fe       	retal	-1
800065a8:	5c 8c       	casts.h	r12
800065aa:	5e fc       	retal	r12

800065ac <spi_initMaster>:
800065ac:	d4 01       	pushm	lr
800065ae:	30 18       	mov	r8,1
800065b0:	18 99       	mov	r9,r12
800065b2:	f7 3a 00 0d 	ld.ub	r10,r11[13]
800065b6:	f0 0a 18 00 	cp.b	r10,r8
800065ba:	e0 88 00 04 	brls	800065c2 <spi_initMaster+0x16>
800065be:	30 2c       	mov	r12,2
800065c0:	d8 02       	popm	pc
800065c2:	30 0a       	mov	r10,0
800065c4:	e0 68 00 80 	mov	r8,128
800065c8:	99 08       	st.w	r12[0x0],r8
800065ca:	30 1e       	mov	lr,1
800065cc:	78 18       	ld.w	r8,r12[0x4]
800065ce:	f7 3b 00 0d 	ld.ub	r11,r11[13]
800065d2:	14 9c       	mov	r12,r10
800065d4:	f1 de d0 01 	bfins	r8,lr,0x0,0x1
800065d8:	f1 db d0 81 	bfins	r8,r11,0x4,0x1
800065dc:	f1 da d0 e1 	bfins	r8,r10,0x7,0x1
800065e0:	30 fa       	mov	r10,15
800065e2:	f1 da d2 04 	bfins	r8,r10,0x10,0x4
800065e6:	93 18       	st.w	r9[0x4],r8
800065e8:	d8 02       	popm	pc

800065ea <spi_selectionMode>:
800065ea:	d4 01       	pushm	lr
800065ec:	30 18       	mov	r8,1
800065ee:	f0 0b 18 00 	cp.b	r11,r8
800065f2:	5f be       	srhi	lr
800065f4:	f0 0a 18 00 	cp.b	r10,r8
800065f8:	5f b8       	srhi	r8
800065fa:	1c 48       	or	r8,lr
800065fc:	c0 30       	breq	80006602 <spi_selectionMode+0x18>
800065fe:	30 2c       	mov	r12,2
80006600:	d8 02       	popm	pc
80006602:	78 18       	ld.w	r8,r12[0x4]
80006604:	f1 db d0 21 	bfins	r8,r11,0x1,0x1
80006608:	f1 da d0 41 	bfins	r8,r10,0x2,0x1
8000660c:	f1 d9 d3 08 	bfins	r8,r9,0x18,0x8
80006610:	99 18       	st.w	r12[0x4],r8
80006612:	d8 0a       	popm	pc,r12=0

80006614 <spi_selectChip>:
80006614:	78 19       	ld.w	r9,r12[0x4]
80006616:	18 98       	mov	r8,r12
80006618:	ea 19 00 0f 	orh	r9,0xf
8000661c:	99 19       	st.w	r12[0x4],r9
8000661e:	78 1c       	ld.w	r12,r12[0x4]
80006620:	e2 1c 00 04 	andl	r12,0x4,COH
80006624:	c1 00       	breq	80006644 <spi_selectChip+0x30>
80006626:	30 e9       	mov	r9,14
80006628:	f2 0b 18 00 	cp.b	r11,r9
8000662c:	e0 8b 00 1a 	brhi	80006660 <spi_selectChip+0x4c>
80006630:	70 19       	ld.w	r9,r8[0x4]
80006632:	b1 6b       	lsl	r11,0x10
80006634:	30 0c       	mov	r12,0
80006636:	ea 1b ff f0 	orh	r11,0xfff0
8000663a:	e8 1b ff ff 	orl	r11,0xffff
8000663e:	12 6b       	and	r11,r9
80006640:	91 1b       	st.w	r8[0x4],r11
80006642:	5e fc       	retal	r12
80006644:	30 39       	mov	r9,3
80006646:	f2 0b 18 00 	cp.b	r11,r9
8000664a:	e0 8b 00 0b 	brhi	80006660 <spi_selectChip+0x4c>
8000664e:	70 19       	ld.w	r9,r8[0x4]
80006650:	2f 0b       	sub	r11,-16
80006652:	30 1a       	mov	r10,1
80006654:	f4 0b 09 4b 	lsl	r11,r10,r11
80006658:	5c db       	com	r11
8000665a:	12 6b       	and	r11,r9
8000665c:	91 1b       	st.w	r8[0x4],r11
8000665e:	5e fc       	retal	r12
80006660:	30 2c       	mov	r12,2
80006662:	5e fc       	retal	r12

80006664 <spi_unselectChip>:
80006664:	e0 68 3a 98 	mov	r8,15000
80006668:	c0 58       	rjmp	80006672 <spi_unselectChip+0xe>
8000666a:	58 08       	cp.w	r8,0
8000666c:	c0 21       	brne	80006670 <spi_unselectChip+0xc>
8000666e:	5e ff       	retal	1
80006670:	20 18       	sub	r8,1
80006672:	78 49       	ld.w	r9,r12[0x10]
80006674:	ed b9 00 09 	bld	r9,0x9
80006678:	cf 91       	brne	8000666a <spi_unselectChip+0x6>
8000667a:	78 18       	ld.w	r8,r12[0x4]
8000667c:	ea 18 00 0f 	orh	r8,0xf
80006680:	99 18       	st.w	r12[0x4],r8
80006682:	30 08       	mov	r8,0
80006684:	ea 18 01 00 	orh	r8,0x100
80006688:	99 08       	st.w	r12[0x0],r8
8000668a:	5e fd       	retal	0

8000668c <spi_setupChipReg>:
8000668c:	d4 31       	pushm	r0-r7,lr
8000668e:	30 32       	mov	r2,3
80006690:	16 97       	mov	r7,r11
80006692:	18 96       	mov	r6,r12
80006694:	f7 34 00 0c 	ld.ub	r4,r11[12]
80006698:	e4 04 18 00 	cp.b	r4,r2
8000669c:	e0 8b 00 46 	brhi	80006728 <spi_setupChipReg+0x9c>
800066a0:	f7 31 00 0b 	ld.ub	r1,r11[11]
800066a4:	30 15       	mov	r5,1
800066a6:	ea 01 18 00 	cp.b	r1,r5
800066aa:	e0 8b 00 3f 	brhi	80006728 <spi_setupChipReg+0x9c>
800066ae:	f7 33 00 08 	ld.ub	r3,r11[8]
800066b2:	30 78       	mov	r8,7
800066b4:	f0 03 18 00 	cp.b	r3,r8
800066b8:	e0 88 00 38 	brls	80006728 <spi_setupChipReg+0x9c>
800066bc:	31 08       	mov	r8,16
800066be:	f0 03 18 00 	cp.b	r3,r8
800066c2:	e0 8b 00 33 	brhi	80006728 <spi_setupChipReg+0x9c>
800066c6:	14 9b       	mov	r11,r10
800066c8:	6e 1c       	ld.w	r12,r7[0x4]
800066ca:	c6 1f       	rcall	8000658c <getBaudDiv>
800066cc:	c2 e5       	brlt	80006728 <spi_setupChipReg+0x9c>
800066ce:	08 9a       	mov	r10,r4
800066d0:	ec 1a 00 01 	eorl	r10,0x1
800066d4:	30 08       	mov	r8,0
800066d6:	a1 94       	lsr	r4,0x1
800066d8:	f1 d4 d0 01 	bfins	r8,r4,0x0,0x1
800066dc:	f1 da d0 21 	bfins	r8,r10,0x1,0x1
800066e0:	ef 3a 00 09 	ld.ub	r10,r7[9]
800066e4:	20 83       	sub	r3,8
800066e6:	f1 d1 d0 61 	bfins	r8,r1,0x3,0x1
800066ea:	0f 89       	ld.ub	r9,r7[0x0]
800066ec:	f1 d3 d0 84 	bfins	r8,r3,0x4,0x4
800066f0:	f1 dc d1 08 	bfins	r8,r12,0x8,0x8
800066f4:	f1 da d2 08 	bfins	r8,r10,0x10,0x8
800066f8:	ef 3a 00 0a 	ld.ub	r10,r7[10]
800066fc:	f1 da d3 08 	bfins	r8,r10,0x18,0x8
80006700:	ea 09 18 00 	cp.b	r9,r5
80006704:	c0 c0       	breq	8000671c <spi_setupChipReg+0x90>
80006706:	c0 93       	brcs	80006718 <spi_setupChipReg+0x8c>
80006708:	30 2a       	mov	r10,2
8000670a:	f4 09 18 00 	cp.b	r9,r10
8000670e:	c0 90       	breq	80006720 <spi_setupChipReg+0x94>
80006710:	e4 09 18 00 	cp.b	r9,r2
80006714:	c0 a1       	brne	80006728 <spi_setupChipReg+0x9c>
80006716:	c0 78       	rjmp	80006724 <spi_setupChipReg+0x98>
80006718:	8d c8       	st.w	r6[0x30],r8
8000671a:	c0 68       	rjmp	80006726 <spi_setupChipReg+0x9a>
8000671c:	8d d8       	st.w	r6[0x34],r8
8000671e:	c0 48       	rjmp	80006726 <spi_setupChipReg+0x9a>
80006720:	8d e8       	st.w	r6[0x38],r8
80006722:	c0 28       	rjmp	80006726 <spi_setupChipReg+0x9a>
80006724:	8d f8       	st.w	r6[0x3c],r8
80006726:	d8 3a       	popm	r0-r7,pc,r12=0
80006728:	30 2c       	mov	r12,2
8000672a:	d8 32       	popm	r0-r7,pc

8000672c <spi_enable>:
8000672c:	30 18       	mov	r8,1
8000672e:	99 08       	st.w	r12[0x0],r8
80006730:	5e fc       	retal	r12

80006732 <spi_write>:
80006732:	e0 68 3a 98 	mov	r8,15000
80006736:	c0 58       	rjmp	80006740 <spi_write+0xe>
80006738:	58 08       	cp.w	r8,0
8000673a:	c0 21       	brne	8000673e <spi_write+0xc>
8000673c:	5e ff       	retal	1
8000673e:	20 18       	sub	r8,1
80006740:	78 49       	ld.w	r9,r12[0x10]
80006742:	ed b9 00 01 	bld	r9,0x1
80006746:	cf 91       	brne	80006738 <spi_write+0x6>
80006748:	5c 7b       	castu.h	r11
8000674a:	99 3b       	st.w	r12[0xc],r11
8000674c:	5e fd       	retal	0

8000674e <spi_read>:
8000674e:	e0 68 3a 98 	mov	r8,15000
80006752:	c0 58       	rjmp	8000675c <spi_read+0xe>
80006754:	58 08       	cp.w	r8,0
80006756:	c0 21       	brne	8000675a <spi_read+0xc>
80006758:	5e ff       	retal	1
8000675a:	20 18       	sub	r8,1
8000675c:	78 49       	ld.w	r9,r12[0x10]
8000675e:	e2 19 02 01 	andl	r9,0x201,COH
80006762:	e0 49 02 01 	cp.w	r9,513
80006766:	cf 71       	brne	80006754 <spi_read+0x6>
80006768:	78 28       	ld.w	r8,r12[0x8]
8000676a:	30 0c       	mov	r12,0
8000676c:	b6 08       	st.h	r11[0x0],r8
8000676e:	5e fc       	retal	r12

80006770 <tc_init_waveform>:
80006770:	d4 01       	pushm	lr
80006772:	76 09       	ld.w	r9,r11[0x0]
80006774:	58 29       	cp.w	r9,2
80006776:	e0 88 00 03 	brls	8000677c <tc_init_waveform+0xc>
8000677a:	dc 0a       	popm	pc,r12=-1
8000677c:	76 18       	ld.w	r8,r11[0x4]
8000677e:	a5 69       	lsl	r9,0x4
80006780:	10 9e       	mov	lr,r8
80006782:	e6 1e c0 00 	andh	lr,0xc000,COH
80006786:	f2 ca ff ff 	sub	r10,r9,-1
8000678a:	f3 d8 c0 03 	bfextu	r9,r8,0x0,0x3
8000678e:	af b9       	sbr	r9,0xf
80006790:	1c 49       	or	r9,lr
80006792:	10 9e       	mov	lr,r8
80006794:	e6 1e 30 00 	andh	lr,0x3000,COH
80006798:	1c 49       	or	r9,lr
8000679a:	10 9e       	mov	lr,r8
8000679c:	e6 1e 0c 00 	andh	lr,0xc00,COH
800067a0:	1c 49       	or	r9,lr
800067a2:	10 9e       	mov	lr,r8
800067a4:	e6 1e 03 00 	andh	lr,0x300,COH
800067a8:	1c 49       	or	r9,lr
800067aa:	10 9e       	mov	lr,r8
800067ac:	e6 1e 00 c0 	andh	lr,0xc0,COH
800067b0:	1c 49       	or	r9,lr
800067b2:	10 9e       	mov	lr,r8
800067b4:	e6 1e 00 30 	andh	lr,0x30,COH
800067b8:	1c 49       	or	r9,lr
800067ba:	10 9e       	mov	lr,r8
800067bc:	e6 1e 00 0c 	andh	lr,0xc,COH
800067c0:	1c 49       	or	r9,lr
800067c2:	10 9e       	mov	lr,r8
800067c4:	e6 1e 00 03 	andh	lr,0x3,COH
800067c8:	1c 49       	or	r9,lr
800067ca:	10 9e       	mov	lr,r8
800067cc:	e2 1e 60 00 	andl	lr,0x6000,COH
800067d0:	1c 49       	or	r9,lr
800067d2:	10 9e       	mov	lr,r8
800067d4:	e2 1e 10 00 	andl	lr,0x1000,COH
800067d8:	1c 49       	or	r9,lr
800067da:	10 9e       	mov	lr,r8
800067dc:	e2 1e 0c 00 	andl	lr,0xc00,COH
800067e0:	1c 49       	or	r9,lr
800067e2:	10 9e       	mov	lr,r8
800067e4:	e2 1e 03 00 	andl	lr,0x300,COH
800067e8:	1c 49       	or	r9,lr
800067ea:	10 9e       	mov	lr,r8
800067ec:	e2 1e 00 80 	andl	lr,0x80,COH
800067f0:	10 9b       	mov	r11,r8
800067f2:	1c 49       	or	r9,lr
800067f4:	e2 1b 00 08 	andl	r11,0x8,COH
800067f8:	10 9e       	mov	lr,r8
800067fa:	e2 18 00 30 	andl	r8,0x30,COH
800067fe:	e2 1e 00 40 	andl	lr,0x40,COH
80006802:	1c 49       	or	r9,lr
80006804:	f3 e8 10 08 	or	r8,r9,r8
80006808:	16 48       	or	r8,r11
8000680a:	f8 0a 09 28 	st.w	r12[r10<<0x2],r8
8000680e:	d8 0a       	popm	pc,r12=0

80006810 <tc_start>:
80006810:	58 2b       	cp.w	r11,2
80006812:	e0 88 00 03 	brls	80006818 <tc_start+0x8>
80006816:	5e fe       	retal	-1
80006818:	a7 6b       	lsl	r11,0x6
8000681a:	16 0c       	add	r12,r11
8000681c:	30 58       	mov	r8,5
8000681e:	99 08       	st.w	r12[0x0],r8
80006820:	5e fd       	retal	0

80006822 <tc_read_sr>:
80006822:	58 2b       	cp.w	r11,2
80006824:	e0 88 00 03 	brls	8000682a <tc_read_sr+0x8>
80006828:	5e fe       	retal	-1
8000682a:	a7 6b       	lsl	r11,0x6
8000682c:	2e 0b       	sub	r11,-32
8000682e:	16 0c       	add	r12,r11
80006830:	78 0c       	ld.w	r12,r12[0x0]
80006832:	5e fc       	retal	r12

80006834 <tc_write_rc>:
80006834:	58 2b       	cp.w	r11,2
80006836:	e0 88 00 03 	brls	8000683c <tc_write_rc+0x8>
8000683a:	5e fe       	retal	-1
8000683c:	f6 08 15 04 	lsl	r8,r11,0x4
80006840:	2f f8       	sub	r8,-1
80006842:	f8 08 03 28 	ld.w	r8,r12[r8<<0x2]
80006846:	ed b8 00 0f 	bld	r8,0xf
8000684a:	c0 c1       	brne	80006862 <tc_write_rc+0x2e>
8000684c:	a7 6b       	lsl	r11,0x6
8000684e:	f3 da c0 10 	bfextu	r9,r10,0x0,0x10
80006852:	16 0c       	add	r12,r11
80006854:	2e 4c       	sub	r12,-28
80006856:	78 08       	ld.w	r8,r12[0x0]
80006858:	e0 18 00 00 	andl	r8,0x0
8000685c:	f3 e8 10 08 	or	r8,r9,r8
80006860:	99 08       	st.w	r12[0x0],r8
80006862:	f9 da c0 10 	bfextu	r12,r10,0x0,0x10
80006866:	5e fc       	retal	r12

80006868 <tc_configure_interrupts>:
80006868:	d4 21       	pushm	r4-r7,lr
8000686a:	e1 b9 00 00 	mfsr	r9,0x0
8000686e:	58 2b       	cp.w	r11,2
80006870:	e0 88 00 03 	brls	80006876 <tc_configure_interrupts+0xe>
80006874:	dc 2a       	popm	r4-r7,pc,r12=-1
80006876:	74 08       	ld.w	r8,r10[0x0]
80006878:	10 9e       	mov	lr,r8
8000687a:	e2 1e 00 02 	andl	lr,0x2,COH
8000687e:	e2 18 00 fd 	andl	r8,0xfd,COH
80006882:	1c 48       	or	r8,lr
80006884:	f6 0e 15 06 	lsl	lr,r11,0x6
80006888:	f8 0e 00 0e 	add	lr,r12,lr
8000688c:	2d ce       	sub	lr,-36
8000688e:	9d 08       	st.w	lr[0x0],r8
80006890:	ee 19 00 01 	eorh	r9,0x1
80006894:	f3 d9 c2 01 	bfextu	r9,r9,0x10,0x1
80006898:	c0 20       	breq	8000689c <tc_configure_interrupts+0x34>
8000689a:	d3 03       	ssrf	0x10
8000689c:	74 08       	ld.w	r8,r10[0x0]
8000689e:	e0 67 00 80 	mov	r7,128
800068a2:	ed d8 c0 e1 	bfextu	r6,r8,0x7,0x1
800068a6:	f9 b7 01 00 	movne	r7,0
800068aa:	f5 d8 c0 01 	bfextu	r10,r8,0x0,0x1
800068ae:	ec 1a 00 01 	eorl	r10,0x1
800068b2:	ef ea 10 0a 	or	r10,r7,r10
800068b6:	ef d8 c0 c1 	bfextu	r7,r8,0x6,0x1
800068ba:	f9 b7 00 40 	moveq	r7,64
800068be:	f9 b7 01 00 	movne	r7,0
800068c2:	0e 4a       	or	r10,r7
800068c4:	ef d8 c0 a1 	bfextu	r7,r8,0x5,0x1
800068c8:	f9 b7 00 20 	moveq	r7,32
800068cc:	f9 b7 01 00 	movne	r7,0
800068d0:	0e 4a       	or	r10,r7
800068d2:	ef d8 c0 81 	bfextu	r7,r8,0x4,0x1
800068d6:	f9 b7 00 10 	moveq	r7,16
800068da:	f9 b7 01 00 	movne	r7,0
800068de:	0e 4a       	or	r10,r7
800068e0:	ef d8 c0 61 	bfextu	r7,r8,0x3,0x1
800068e4:	f9 b7 00 08 	moveq	r7,8
800068e8:	f9 b7 01 00 	movne	r7,0
800068ec:	0e 4a       	or	r10,r7
800068ee:	ef d8 c0 41 	bfextu	r7,r8,0x2,0x1
800068f2:	f1 d8 c0 21 	bfextu	r8,r8,0x1,0x1
800068f6:	58 07       	cp.w	r7,0
800068f8:	f9 b7 00 04 	moveq	r7,4
800068fc:	f9 b7 01 00 	movne	r7,0
80006900:	58 08       	cp.w	r8,0
80006902:	f9 b8 00 02 	moveq	r8,2
80006906:	f9 b8 01 00 	movne	r8,0
8000690a:	0e 4a       	or	r10,r7
8000690c:	f5 e8 10 08 	or	r8,r10,r8
80006910:	f6 0e 15 06 	lsl	lr,r11,0x6
80006914:	a7 6b       	lsl	r11,0x6
80006916:	2e 0e       	sub	lr,-32
80006918:	f8 0e 00 0e 	add	lr,r12,lr
8000691c:	16 0c       	add	r12,r11
8000691e:	2d 8c       	sub	r12,-40
80006920:	99 08       	st.w	r12[0x0],r8
80006922:	7c 08       	ld.w	r8,lr[0x0]
80006924:	58 09       	cp.w	r9,0
80006926:	c0 31       	brne	8000692c <tc_configure_interrupts+0xc4>
80006928:	12 9c       	mov	r12,r9
8000692a:	d8 22       	popm	r4-r7,pc
8000692c:	d5 03       	csrf	0x10
8000692e:	d8 2a       	popm	r4-r7,pc,r12=0

80006930 <usart_set_async_baudrate>:
80006930:	d4 01       	pushm	lr
80006932:	f6 0e 15 04 	lsl	lr,r11,0x4
80006936:	1c 3a       	cp.w	r10,lr
80006938:	f9 be 02 10 	movhs	lr,16
8000693c:	f9 be 03 08 	movlo	lr,8
80006940:	fc 0b 02 4b 	mul	r11,lr,r11
80006944:	f6 08 16 01 	lsr	r8,r11,0x1
80006948:	f0 0a 00 3a 	add	r10,r8,r10<<0x3
8000694c:	f4 0b 0d 0a 	divu	r10,r10,r11
80006950:	f4 09 16 03 	lsr	r9,r10,0x3
80006954:	f2 c8 00 01 	sub	r8,r9,1
80006958:	e0 48 ff fe 	cp.w	r8,65534
8000695c:	e0 88 00 03 	brls	80006962 <usart_set_async_baudrate+0x32>
80006960:	da 0a       	popm	pc,r12=1
80006962:	78 18       	ld.w	r8,r12[0x4]
80006964:	e8 6b 00 00 	mov	r11,524288
80006968:	e4 18 ff f7 	andh	r8,0xfff7
8000696c:	e0 18 fe cf 	andl	r8,0xfecf
80006970:	59 0e       	cp.w	lr,16
80006972:	f6 0e 17 10 	movne	lr,r11
80006976:	f9 be 00 00 	moveq	lr,0
8000697a:	fd e8 10 08 	or	r8,lr,r8
8000697e:	99 18       	st.w	r12[0x4],r8
80006980:	f5 da c0 03 	bfextu	r10,r10,0x0,0x3
80006984:	f3 ea 11 09 	or	r9,r9,r10<<0x10
80006988:	99 89       	st.w	r12[0x20],r9
8000698a:	d8 0a       	popm	pc,r12=0

8000698c <usart_write_line>:
8000698c:	c0 e8       	rjmp	800069a8 <usart_write_line+0x1c>
8000698e:	e0 68 27 10 	mov	r8,10000
80006992:	20 18       	sub	r8,1
80006994:	5b f8       	cp.w	r8,-1
80006996:	c0 80       	breq	800069a6 <usart_write_line+0x1a>
80006998:	78 59       	ld.w	r9,r12[0x14]
8000699a:	ed b9 00 01 	bld	r9,0x1
8000699e:	cf a1       	brne	80006992 <usart_write_line+0x6>
800069a0:	f5 da c0 09 	bfextu	r10,r10,0x0,0x9
800069a4:	99 7a       	st.w	r12[0x1c],r10
800069a6:	2f fb       	sub	r11,-1
800069a8:	17 8a       	ld.ub	r10,r11[0x0]
800069aa:	58 0a       	cp.w	r10,0
800069ac:	cf 11       	brne	8000698e <usart_write_line+0x2>
800069ae:	5e fc       	retal	r12

800069b0 <usart_reset>:
800069b0:	e1 b8 00 00 	mfsr	r8,0x0
800069b4:	ee 18 00 01 	eorh	r8,0x1
800069b8:	f1 d8 c2 01 	bfextu	r8,r8,0x10,0x1
800069bc:	c0 20       	breq	800069c0 <usart_reset+0x10>
800069be:	d3 03       	ssrf	0x10
800069c0:	3f f9       	mov	r9,-1
800069c2:	99 39       	st.w	r12[0xc],r9
800069c4:	78 59       	ld.w	r9,r12[0x14]
800069c6:	58 08       	cp.w	r8,0
800069c8:	c0 20       	breq	800069cc <usart_reset+0x1c>
800069ca:	d5 03       	csrf	0x10
800069cc:	30 08       	mov	r8,0
800069ce:	99 18       	st.w	r12[0x4],r8
800069d0:	99 98       	st.w	r12[0x24],r8
800069d2:	99 a8       	st.w	r12[0x28],r8
800069d4:	ea 68 61 0c 	mov	r8,680204
800069d8:	99 08       	st.w	r12[0x0],r8
800069da:	5e fc       	retal	r12

800069dc <usart_init_rs232>:
800069dc:	d4 21       	pushm	r4-r7,lr
800069de:	20 1d       	sub	sp,4
800069e0:	50 0a       	stdsp	sp[0x0],r10
800069e2:	16 96       	mov	r6,r11
800069e4:	18 97       	mov	r7,r12
800069e6:	ce 5f       	rcall	800069b0 <usart_reset>
800069e8:	40 0a       	lddsp	r10,sp[0x0]
800069ea:	58 06       	cp.w	r6,0
800069ec:	c5 40       	breq	80006a94 <usart_init_rs232+0xb8>
800069ee:	0d c8       	ld.ub	r8,r6[0x4]
800069f0:	30 49       	mov	r9,4
800069f2:	f2 08 18 00 	cp.b	r8,r9
800069f6:	e0 88 00 4f 	brls	80006a94 <usart_init_rs232+0xb8>
800069fa:	30 95       	mov	r5,9
800069fc:	ea 08 18 00 	cp.b	r8,r5
80006a00:	e0 8b 00 4a 	brhi	80006a94 <usart_init_rs232+0xb8>
80006a04:	0d d9       	ld.ub	r9,r6[0x5]
80006a06:	30 78       	mov	r8,7
80006a08:	f0 09 18 00 	cp.b	r9,r8
80006a0c:	e0 8b 00 44 	brhi	80006a94 <usart_init_rs232+0xb8>
80006a10:	8c 39       	ld.sh	r9,r6[0x6]
80006a12:	e0 68 01 01 	mov	r8,257
80006a16:	f0 09 19 00 	cp.h	r9,r8
80006a1a:	e0 8b 00 3d 	brhi	80006a94 <usart_init_rs232+0xb8>
80006a1e:	ed 39 00 08 	ld.ub	r9,r6[8]
80006a22:	30 38       	mov	r8,3
80006a24:	f0 09 18 00 	cp.b	r9,r8
80006a28:	e0 8b 00 36 	brhi	80006a94 <usart_init_rs232+0xb8>
80006a2c:	6c 0b       	ld.w	r11,r6[0x0]
80006a2e:	0e 9c       	mov	r12,r7
80006a30:	c8 0f       	rcall	80006930 <usart_set_async_baudrate>
80006a32:	58 1c       	cp.w	r12,1
80006a34:	c3 00       	breq	80006a94 <usart_init_rs232+0xb8>
80006a36:	0d c8       	ld.ub	r8,r6[0x4]
80006a38:	ea 08 18 00 	cp.b	r8,r5
80006a3c:	c0 41       	brne	80006a44 <usart_init_rs232+0x68>
80006a3e:	6e 18       	ld.w	r8,r7[0x4]
80006a40:	b1 b8       	sbr	r8,0x11
80006a42:	c0 58       	rjmp	80006a4c <usart_init_rs232+0x70>
80006a44:	20 58       	sub	r8,5
80006a46:	6e 19       	ld.w	r9,r7[0x4]
80006a48:	f3 e8 10 68 	or	r8,r9,r8<<0x6
80006a4c:	8f 18       	st.w	r7[0x4],r8
80006a4e:	6e 19       	ld.w	r9,r7[0x4]
80006a50:	ed 3a 00 08 	ld.ub	r10,r6[8]
80006a54:	0d d8       	ld.ub	r8,r6[0x5]
80006a56:	a9 78       	lsl	r8,0x9
80006a58:	f1 ea 10 e8 	or	r8,r8,r10<<0xe
80006a5c:	12 48       	or	r8,r9
80006a5e:	8f 18       	st.w	r7[0x4],r8
80006a60:	30 29       	mov	r9,2
80006a62:	8c 38       	ld.sh	r8,r6[0x6]
80006a64:	f2 08 19 00 	cp.h	r8,r9
80006a68:	e0 88 00 09 	brls	80006a7a <usart_init_rs232+0x9e>
80006a6c:	6e 18       	ld.w	r8,r7[0x4]
80006a6e:	ad b8       	sbr	r8,0xd
80006a70:	8f 18       	st.w	r7[0x4],r8
80006a72:	8c b8       	ld.uh	r8,r6[0x6]
80006a74:	20 28       	sub	r8,2
80006a76:	8f a8       	st.w	r7[0x28],r8
80006a78:	c0 68       	rjmp	80006a84 <usart_init_rs232+0xa8>
80006a7a:	6e 19       	ld.w	r9,r7[0x4]
80006a7c:	5c 78       	castu.h	r8
80006a7e:	f3 e8 10 c8 	or	r8,r9,r8<<0xc
80006a82:	8f 18       	st.w	r7[0x4],r8
80006a84:	6e 18       	ld.w	r8,r7[0x4]
80006a86:	e0 18 ff f0 	andl	r8,0xfff0
80006a8a:	8f 18       	st.w	r7[0x4],r8
80006a8c:	30 0c       	mov	r12,0
80006a8e:	35 08       	mov	r8,80
80006a90:	8f 08       	st.w	r7[0x0],r8
80006a92:	c0 28       	rjmp	80006a96 <usart_init_rs232+0xba>
80006a94:	30 1c       	mov	r12,1
80006a96:	2f fd       	sub	sp,-4
80006a98:	d8 22       	popm	r4-r7,pc
80006a9a:	d7 03       	nop

80006a9c <uhd_get_speed>:
	cpu_irq_restore(flags);
}

uhd_speed_t uhd_get_speed(void)
{
	switch (uhd_get_speed_mode()) {
80006a9c:	fe 68 08 04 	mov	r8,-129020
80006aa0:	70 08       	ld.w	r8,r8[0x0]
80006aa2:	f1 d8 c1 82 	bfextu	r8,r8,0xc,0x2
80006aa6:	58 38       	cp.w	r8,3
80006aa8:	c0 21       	brne	80006aac <uhd_get_speed+0x10>
80006aaa:	5e fd       	retal	0
80006aac:	fe c9 d1 40 	sub	r9,pc,-11968
80006ab0:	f2 08 03 2c 	ld.w	r12,r9[r8<<0x2]

	default:
		Assert(false);
		return UHD_SPEED_LOW;
	}
}
80006ab4:	5e fc       	retal	r12
80006ab6:	d7 03       	nop

80006ab8 <uhd_send_reset>:
	return uhd_get_microsof_number();
}

void uhd_send_reset(uhd_callback_reset_t callback)
{
	uhd_reset_callback = callback;
80006ab8:	e0 69 08 f4 	mov	r9,2292
	uhd_start_reset();
80006abc:	93 0c       	st.w	r9[0x0],r12
80006abe:	fe 68 04 00 	mov	r8,-130048
80006ac2:	70 09       	ld.w	r9,r8[0x0]
80006ac4:	a9 b9       	sbr	r9,0x9
}
80006ac6:	91 09       	st.w	r8[0x0],r9
80006ac8:	5e fc       	retal	r12
80006aca:	d7 03       	nop

80006acc <uhd_suspend>:

void uhd_suspend(void)
{
80006acc:	d4 01       	pushm	lr
	if (uhd_ctrl_request_timeout) {
80006ace:	e0 68 1c b4 	mov	r8,7348
80006ad2:	90 08       	ld.sh	r8,r8[0x0]
80006ad4:	58 08       	cp.w	r8,0
		// Delay suspend after setup requests
		uhd_b_suspend_requested = true;
80006ad6:	c0 50       	breq	80006ae0 <uhd_suspend+0x14>
80006ad8:	30 19       	mov	r9,1
80006ada:	e0 68 09 73 	mov	r8,2419
		return;
80006ade:	c1 d8       	rjmp	80006b18 <uhd_suspend+0x4c>
80006ae0:	fe 69 05 c4 	mov	r9,-129596
	}
	// Save pipe freeze states and freeze pipes
	uhd_pipes_unfreeze = 0;
	for (uint8_t pipe = 1; pipe < AVR32_USBB_EPT_NUM; pipe++) {
		uhd_pipes_unfreeze |= (!Is_uhd_pipe_frozen(pipe)) << pipe;
		uhd_freeze_pipe(pipe);
80006ae4:	10 9a       	mov	r10,r8
		return;
	}
	// Save pipe freeze states and freeze pipes
	uhd_pipes_unfreeze = 0;
	for (uint8_t pipe = 1; pipe < AVR32_USBB_EPT_NUM; pipe++) {
		uhd_pipes_unfreeze |= (!Is_uhd_pipe_frozen(pipe)) << pipe;
80006ae6:	e2 6c 00 00 	mov	r12,131072
		uhd_freeze_pipe(pipe);
80006aea:	72 0b       	ld.w	r11,r9[0x0]
80006aec:	93 cc       	st.w	r9[0x30],r12
{
	uhd_reset_callback = callback;
	uhd_start_reset();
}

void uhd_suspend(void)
80006aee:	f2 ce ff d0 	sub	lr,r9,-48
		return;
	}
	// Save pipe freeze states and freeze pipes
	uhd_pipes_unfreeze = 0;
	for (uint8_t pipe = 1; pipe < AVR32_USBB_EPT_NUM; pipe++) {
		uhd_pipes_unfreeze |= (!Is_uhd_pipe_frozen(pipe)) << pipe;
80006af2:	2f f8       	sub	r8,-1
		uhd_freeze_pipe(pipe);
80006af4:	ee 1b 00 02 	eorh	r11,0x2
		return;
	}
	// Save pipe freeze states and freeze pipes
	uhd_pipes_unfreeze = 0;
	for (uint8_t pipe = 1; pipe < AVR32_USBB_EPT_NUM; pipe++) {
		uhd_pipes_unfreeze |= (!Is_uhd_pipe_frozen(pipe)) << pipe;
80006af8:	2f c9       	sub	r9,-4
80006afa:	f7 db c2 21 	bfextu	r11,r11,0x11,0x1
80006afe:	f6 08 09 4b 	lsl	r11,r11,r8
80006b02:	f7 ea 10 0a 	or	r10,r11,r10
		uhd_b_suspend_requested = true;
		return;
	}
	// Save pipe freeze states and freeze pipes
	uhd_pipes_unfreeze = 0;
	for (uint8_t pipe = 1; pipe < AVR32_USBB_EPT_NUM; pipe++) {
80006b06:	5c 5a       	castu.b	r10
80006b08:	58 68       	cp.w	r8,6
		uhd_pipes_unfreeze |= (!Is_uhd_pipe_frozen(pipe)) << pipe;
		uhd_freeze_pipe(pipe);
	}
	// Wait three SOFs before entering in suspend state
	uhd_suspend_start = 3;
80006b0a:	cf 01       	brne	80006aea <uhd_suspend+0x1e>
		uhd_b_suspend_requested = true;
		return;
	}
	// Save pipe freeze states and freeze pipes
	uhd_pipes_unfreeze = 0;
	for (uint8_t pipe = 1; pipe < AVR32_USBB_EPT_NUM; pipe++) {
80006b0c:	e0 68 09 71 	mov	r8,2417
		uhd_pipes_unfreeze |= (!Is_uhd_pipe_frozen(pipe)) << pipe;
		uhd_freeze_pipe(pipe);
	}
	// Wait three SOFs before entering in suspend state
	uhd_suspend_start = 3;
80006b10:	30 39       	mov	r9,3
80006b12:	b0 8a       	st.b	r8[0x0],r10
80006b14:	e0 68 09 70 	mov	r8,2416
80006b18:	b0 89       	st.b	r8[0x0],r9
80006b1a:	d8 02       	popm	pc

80006b1c <uhd_ctrl_phase_data_out>:
80006b1c:	d4 21       	pushm	r4-r7,lr
80006b1e:	e0 68 1c a8 	mov	r8,7336
80006b22:	e0 6b 1c a4 	mov	r11,7332
	uint8_t *ptr_ep_data;
	uint8_t ep_ctrl_size;

	uhd_ctrl_request_phase = UHD_CTRL_REQ_PHASE_DATA_OUT;

	if (uhd_ctrl_nb_trans == uhd_ctrl_request_first->req.wLength) {
80006b26:	70 0a       	ld.w	r10,r8[0x0]
static void uhd_ctrl_phase_data_out(void)
{
	uint8_t *ptr_ep_data;
	uint8_t ep_ctrl_size;

	uhd_ctrl_request_phase = UHD_CTRL_REQ_PHASE_DATA_OUT;
80006b28:	30 19       	mov	r9,1

	if (uhd_ctrl_nb_trans == uhd_ctrl_request_first->req.wLength) {
80006b2a:	e0 68 1c ac 	mov	r8,7340
80006b2e:	97 09       	st.w	r11[0x0],r9
80006b30:	90 0c       	ld.sh	r12,r8[0x0]
80006b32:	15 fe       	ld.ub	lr,r10[0x7]
80006b34:	f5 38 00 08 	ld.ub	r8,r10[8]
80006b38:	f1 ee 10 88 	or	r8,r8,lr<<0x8
 * \brief Starts the ZLP IN phase on control endpoint
 */
static void uhd_ctrl_phase_zlp_in(void)
{
	uhd_ctrl_request_phase = UHD_CTRL_REQ_PHASE_ZLP_IN;
	uhd_configure_pipe_token(0, AVR32_USBB_PTOKEN_IN);
80006b3c:	f0 0c 19 00 	cp.h	r12,r8
80006b40:	c1 91       	brne	80006b72 <uhd_ctrl_phase_data_out+0x56>
80006b42:	fe 6a 05 00 	mov	r10,-129792
80006b46:	74 08       	ld.w	r8,r10[0x0]
80006b48:	e0 18 fc ff 	andl	r8,0xfcff
	uhd_ack_in_received(0);
80006b4c:	a9 a8       	sbr	r8,0x8
80006b4e:	95 08       	st.w	r10[0x0],r8
	uhd_ack_short_packet(0);
80006b50:	fe 68 05 60 	mov	r8,-129696
80006b54:	91 09       	st.w	r8[0x0],r9
	uhd_enable_in_received_interrupt(0);
80006b56:	e0 6a 00 80 	mov	r10,128
80006b5a:	91 0a       	st.w	r8[0x0],r10
	uhd_ack_fifocon(0);
80006b5c:	fe 68 05 f0 	mov	r8,-129552
80006b60:	91 09       	st.w	r8[0x0],r9
80006b62:	e0 69 40 00 	mov	r9,16384
 * \internal
 * \brief Starts the ZLP IN phase on control endpoint
 */
static void uhd_ctrl_phase_zlp_in(void)
{
	uhd_ctrl_request_phase = UHD_CTRL_REQ_PHASE_ZLP_IN;
80006b66:	fe 68 06 20 	mov	r8,-129504
80006b6a:	91 09       	st.w	r8[0x0],r9
		// End of DATA phase
		uhd_ctrl_phase_zlp_in();
		return;
	}

	if (!uhd_ctrl_request_first->payload_size) {
80006b6c:	30 39       	mov	r9,3
80006b6e:	97 09       	st.w	r11[0x0],r9
80006b70:	c7 a8       	rjmp	80006c64 <uhd_ctrl_phase_data_out+0x148>
80006b72:	f5 09 00 10 	ld.sh	r9,r10[16]
80006b76:	30 08       	mov	r8,0
		// Buffer empty, then request a new buffer
		if (uhd_ctrl_request_first->callback_run==NULL
				|| !uhd_ctrl_request_first->callback_run(
80006b78:	f0 09 19 00 	cp.h	r9,r8
		return;
	}

	if (!uhd_ctrl_request_first->payload_size) {
		// Buffer empty, then request a new buffer
		if (uhd_ctrl_request_first->callback_run==NULL
80006b7c:	c2 91       	brne	80006bce <uhd_ctrl_phase_data_out+0xb2>
				|| !uhd_ctrl_request_first->callback_run(
				uhd_get_configured_address(0),
80006b7e:	74 58       	ld.w	r8,r10[0x14]
80006b80:	58 08       	cp.w	r8,0
		return;
	}

	if (!uhd_ctrl_request_first->payload_size) {
		// Buffer empty, then request a new buffer
		if (uhd_ctrl_request_first->callback_run==NULL
80006b82:	c0 b0       	breq	80006b98 <uhd_ctrl_phase_data_out+0x7c>
80006b84:	fe 69 04 24 	mov	r9,-130012
80006b88:	f4 cb ff f4 	sub	r11,r10,-12
80006b8c:	72 0c       	ld.w	r12,r9[0x0]
80006b8e:	2f 0a       	sub	r10,-16
80006b90:	f9 dc c0 07 	bfextu	r12,r12,0x0,0x7
 * \brief Starts the ZLP IN phase on control endpoint
 */
static void uhd_ctrl_phase_zlp_in(void)
{
	uhd_ctrl_request_phase = UHD_CTRL_REQ_PHASE_ZLP_IN;
	uhd_configure_pipe_token(0, AVR32_USBB_PTOKEN_IN);
80006b94:	5d 18       	icall	r8
80006b96:	c1 c1       	brne	80006bce <uhd_ctrl_phase_data_out+0xb2>
80006b98:	fe 69 05 00 	mov	r9,-129792
80006b9c:	72 08       	ld.w	r8,r9[0x0]
80006b9e:	e0 18 fc ff 	andl	r8,0xfcff
	uhd_ack_in_received(0);
80006ba2:	a9 a8       	sbr	r8,0x8
80006ba4:	93 08       	st.w	r9[0x0],r8
80006ba6:	fe 69 05 60 	mov	r9,-129696
	uhd_ack_short_packet(0);
80006baa:	30 18       	mov	r8,1
80006bac:	93 08       	st.w	r9[0x0],r8
	uhd_enable_in_received_interrupt(0);
80006bae:	e0 6a 00 80 	mov	r10,128
80006bb2:	93 0a       	st.w	r9[0x0],r10
	uhd_ack_fifocon(0);
80006bb4:	fe 69 05 f0 	mov	r9,-129552
80006bb8:	93 08       	st.w	r9[0x0],r8
80006bba:	e0 69 40 00 	mov	r9,16384
 * \internal
 * \brief Starts the ZLP IN phase on control endpoint
 */
static void uhd_ctrl_phase_zlp_in(void)
{
	uhd_ctrl_request_phase = UHD_CTRL_REQ_PHASE_ZLP_IN;
80006bbe:	fe 68 06 20 	mov	r8,-129504
80006bc2:	91 09       	st.w	r8[0x0],r9
80006bc4:	30 3a       	mov	r10,3
	}

#ifdef USB_HOST_HUB_SUPPORT
	// TODO
#else
	ep_ctrl_size = uhd_get_pipe_size(0);
80006bc6:	e0 69 1c a4 	mov	r9,7332
80006bca:	93 0a       	st.w	r9[0x0],r10
#endif

	// Fill pipe
	uhd_configure_pipe_token(0, AVR32_USBB_PTOKEN_OUT);
80006bcc:	c4 c8       	rjmp	80006c64 <uhd_ctrl_phase_data_out+0x148>
80006bce:	fe 69 05 00 	mov	r9,-129792
80006bd2:	72 06       	ld.w	r6,r9[0x0]
80006bd4:	72 08       	ld.w	r8,r9[0x0]
	}

#ifdef USB_HOST_HUB_SUPPORT
	// TODO
#else
	ep_ctrl_size = uhd_get_pipe_size(0);
80006bd6:	e0 18 fc ff 	andl	r8,0xfcff
80006bda:	a9 b8       	sbr	r8,0x9
80006bdc:	93 08       	st.w	r9[0x0],r8
#endif

	// Fill pipe
	uhd_configure_pipe_token(0, AVR32_USBB_PTOKEN_OUT);
	uhd_ack_out_ready(0);
80006bde:	30 88       	mov	r8,8
80006be0:	30 29       	mov	r9,2
80006be2:	ed d6 c0 83 	bfextu	r6,r6,0x4,0x3
	}

#ifdef USB_HOST_HUB_SUPPORT
	// TODO
#else
	ep_ctrl_size = uhd_get_pipe_size(0);
80006be6:	30 0a       	mov	r10,0

	// Fill pipe
	uhd_configure_pipe_token(0, AVR32_USBB_PTOKEN_OUT);
	uhd_ack_out_ready(0);
	ptr_ep_data = (uint8_t *) & uhd_get_pipe_fifo_access(0, 8);
	while ((uhd_ctrl_nb_trans < uhd_ctrl_request_first->req.wLength)
80006be8:	ea 1a d0 00 	orh	r10,0xd000
	ep_ctrl_size = uhd_get_pipe_size(0);
#endif

	// Fill pipe
	uhd_configure_pipe_token(0, AVR32_USBB_PTOKEN_OUT);
	uhd_ack_out_ready(0);
80006bec:	f0 06 09 46 	lsl	r6,r8,r6
80006bf0:	e0 6e 1c a8 	mov	lr,7336
	ptr_ep_data = (uint8_t *) & uhd_get_pipe_fifo_access(0, 8);
	while ((uhd_ctrl_nb_trans < uhd_ctrl_request_first->req.wLength)
80006bf4:	fe 68 05 60 	mov	r8,-129696
80006bf8:	5c 56       	castu.b	r6
			&& ep_ctrl_size && uhd_ctrl_request_first->payload_size) {
		*ptr_ep_data++ = *uhd_ctrl_request_first->payload++;
80006bfa:	91 09       	st.w	r8[0x0],r9
80006bfc:	30 0c       	mov	r12,0
80006bfe:	e0 69 1c ac 	mov	r9,7340
		uhd_ctrl_nb_trans++;
80006c02:	30 07       	mov	r7,0
80006c04:	c0 e8       	rjmp	80006c20 <uhd_ctrl_phase_data_out+0x104>
80006c06:	70 3b       	ld.w	r11,r8[0xc]
		ep_ctrl_size--;
		uhd_ctrl_request_first->payload_size--;
80006c08:	17 35       	ld.ub	r5,r11++
80006c0a:	14 c5       	st.b	r10++,r5
80006c0c:	91 3b       	st.w	r8[0xc],r11
80006c0e:	92 08       	ld.sh	r8,r9[0x0]
80006c10:	2f f8       	sub	r8,-1
80006c12:	b2 08       	st.h	r9[0x0],r8

	// Fill pipe
	uhd_configure_pipe_token(0, AVR32_USBB_PTOKEN_OUT);
	uhd_ack_out_ready(0);
	ptr_ep_data = (uint8_t *) & uhd_get_pipe_fifo_access(0, 8);
	while ((uhd_ctrl_nb_trans < uhd_ctrl_request_first->req.wLength)
80006c14:	7c 08       	ld.w	r8,lr[0x0]
80006c16:	f1 0b 00 10 	ld.sh	r11,r8[16]
80006c1a:	20 1b       	sub	r11,1
80006c1c:	f1 5b 00 10 	st.h	r8[16],r11
80006c20:	92 05       	ld.sh	r5,r9[0x0]
80006c22:	7c 08       	ld.w	r8,lr[0x0]
80006c24:	11 f4       	ld.ub	r4,r8[0x7]
80006c26:	f1 3b 00 08 	ld.ub	r11,r8[8]
80006c2a:	f7 e4 10 8b 	or	r11,r11,r4<<0x8
80006c2e:	f6 05 19 00 	cp.h	r5,r11
80006c32:	5f 3b       	srlo	r11
80006c34:	ec 0a 01 05 	sub	r5,r6,r10
80006c38:	f8 05 18 00 	cp.b	r5,r12
			&& ep_ctrl_size && uhd_ctrl_request_first->payload_size) {
80006c3c:	5f 15       	srne	r5
80006c3e:	eb eb 00 0b 	and	r11,r5,r11
80006c42:	f8 0b 18 00 	cp.b	r11,r12
		*ptr_ep_data++ = *uhd_ctrl_request_first->payload++;
		uhd_ctrl_nb_trans++;
		ep_ctrl_size--;
		uhd_ctrl_request_first->payload_size--;
	}
	uhd_enable_out_ready_interrupt(0);
80006c46:	c0 60       	breq	80006c52 <uhd_ctrl_phase_data_out+0x136>
80006c48:	f1 0b 00 10 	ld.sh	r11,r8[16]
80006c4c:	ee 0b 19 00 	cp.h	r11,r7
	uhd_ack_fifocon(0);
80006c50:	cd b1       	brne	80006c06 <uhd_ctrl_phase_data_out+0xea>
80006c52:	30 29       	mov	r9,2
80006c54:	fe 68 05 f0 	mov	r8,-129552
	uhd_unfreeze_pipe(0);
80006c58:	91 09       	st.w	r8[0x0],r9
80006c5a:	fe 68 06 20 	mov	r8,-129504
80006c5e:	e0 69 40 00 	mov	r9,16384
80006c62:	91 09       	st.w	r8[0x0],r9
80006c64:	e2 69 00 00 	mov	r9,131072
80006c68:	91 09       	st.w	r8[0x0],r9
80006c6a:	d8 22       	popm	r4-r7,pc

80006c6c <uhd_get_pipe>:
 * \param endp  Endpoint number
 *
 * \return Pipe number
 */
static uint8_t uhd_get_pipe(usb_add_t add, usb_ep_t endp)
{
80006c6c:	d4 31       	pushm	r0-r7,lr
80006c6e:	fe 6a 05 00 	mov	r10,-129792
80006c72:	18 98       	mov	r8,r12
80006c74:	30 09       	mov	r9,0
	uint8_t pipe;

	// Search pipe
	for (pipe = 0; pipe < AVR32_USBB_EPT_NUM; pipe++) {
		if (!Is_uhd_pipe_enabled(pipe)) {
80006c76:	fe 64 00 00 	mov	r4,-131072
80006c7a:	30 15       	mov	r5,1
			continue;
		}
		if (add != uhd_get_configured_address(pipe)) {
80006c7c:	37 f6       	mov	r6,127
			continue;
		}
		if (endp != uhd_get_pipe_endpoint_address(pipe)) {
80006c7e:	e0 67 00 80 	mov	r7,128
{
	uint8_t pipe;

	// Search pipe
	for (pipe = 0; pipe < AVR32_USBB_EPT_NUM; pipe++) {
		if (!Is_uhd_pipe_enabled(pipe)) {
80006c82:	e8 f2 04 1c 	ld.w	r2,r4[1052]
 * \param endp  Endpoint number
 *
 * \return Pipe number
 */
static uint8_t uhd_get_pipe(usb_add_t add, usb_ep_t endp)
{
80006c86:	f9 d9 c0 08 	bfextu	r12,r9,0x0,0x8
	uint8_t pipe;

	// Search pipe
	for (pipe = 0; pipe < AVR32_USBB_EPT_NUM; pipe++) {
		if (!Is_uhd_pipe_enabled(pipe)) {
80006c8a:	ea 09 09 41 	lsl	r1,r5,r9
			continue;
		}
		if (add != uhd_get_configured_address(pipe)) {
80006c8e:	18 9e       	mov	lr,r12
			continue;
		}
		if (endp != uhd_get_pipe_endpoint_address(pipe)) {
80006c90:	f8 c3 ff ff 	sub	r3,r12,-1
	// Search pipe
	for (pipe = 0; pipe < AVR32_USBB_EPT_NUM; pipe++) {
		if (!Is_uhd_pipe_enabled(pipe)) {
			continue;
		}
		if (add != uhd_get_configured_address(pipe)) {
80006c94:	e2 1e 00 fc 	andl	lr,0xfc,COH
{
	uint8_t pipe;

	// Search pipe
	for (pipe = 0; pipe < AVR32_USBB_EPT_NUM; pipe++) {
		if (!Is_uhd_pipe_enabled(pipe)) {
80006c98:	e3 e2 00 02 	and	r2,r1,r2
			continue;
		}
		if (add != uhd_get_configured_address(pipe)) {
80006c9c:	e0 3e fb dc 	sub	lr,130012
{
	uint8_t pipe;

	// Search pipe
	for (pipe = 0; pipe < AVR32_USBB_EPT_NUM; pipe++) {
		if (!Is_uhd_pipe_enabled(pipe)) {
80006ca0:	58 02       	cp.w	r2,0
80006ca2:	c1 d0       	breq	80006cdc <uhd_get_pipe+0x70>
			continue;
		}
		if (add != uhd_get_configured_address(pipe)) {
80006ca4:	7c 02       	ld.w	r2,lr[0x0]
80006ca6:	fd d9 c0 02 	bfextu	lr,r9,0x0,0x2
80006caa:	a3 7e       	lsl	lr,0x3
80006cac:	ec 0e 09 4e 	lsl	lr,r6,lr
80006cb0:	1c 62       	and	r2,lr
80006cb2:	5c 9e       	brev	lr
80006cb4:	fc 0e 12 00 	clz	lr,lr
80006cb8:	e4 0e 0a 4e 	lsr	lr,r2,lr
80006cbc:	1c 38       	cp.w	r8,lr
80006cbe:	c0 f1       	brne	80006cdc <uhd_get_pipe+0x70>
			continue;
		}
		if (endp != uhd_get_pipe_endpoint_address(pipe)) {
80006cc0:	74 02       	ld.w	r2,r10[0x0]
80006cc2:	74 0e       	ld.w	lr,r10[0x0]
80006cc4:	e5 d2 c2 04 	bfextu	r2,r2,0x10,0x4
80006cc8:	fd de c1 02 	bfextu	lr,lr,0x8,0x2
80006ccc:	58 1e       	cp.w	lr,1
80006cce:	ee 0e 17 00 	moveq	lr,r7
80006cd2:	f9 be 01 00 	movne	lr,0
80006cd6:	04 4e       	or	lr,r2
80006cd8:	1c 3b       	cp.w	r11,lr
80006cda:	c0 70       	breq	80006ce8 <uhd_get_pipe+0x7c>
80006cdc:	f9 d3 c0 08 	bfextu	r12,r3,0x0,0x8
80006ce0:	2f f9       	sub	r9,-1
80006ce2:	2f ca       	sub	r10,-4
static uint8_t uhd_get_pipe(usb_add_t add, usb_ep_t endp)
{
	uint8_t pipe;

	// Search pipe
	for (pipe = 0; pipe < AVR32_USBB_EPT_NUM; pipe++) {
80006ce4:	58 79       	cp.w	r9,7
80006ce6:	cc e1       	brne	80006c82 <uhd_get_pipe+0x16>
			continue;
		}
		break;
	}
	return pipe;
}
80006ce8:	d8 32       	popm	r0-r7,pc
80006cea:	d7 03       	nop

80006cec <uhd_pipe_finish_job>:
 *
 * \param pipe   Pipe number
 * \param status Status of the transfer
 */
static void uhd_pipe_finish_job(uint8_t pipe, uhd_trans_status_t status)
{
80006cec:	d4 21       	pushm	r4-r7,lr
	uhd_pipe_job_t *ptr_job;

	// Get job corresponding at endpoint
	ptr_job = &uhd_pipe_job[pipe - 1];
80006cee:	e0 68 08 f8 	mov	r8,2296
80006cf2:	f8 c9 00 01 	sub	r9,r12,1
80006cf6:	16 9a       	mov	r10,r11
80006cf8:	f2 09 00 29 	add	r9,r9,r9<<0x2
80006cfc:	f0 09 00 29 	add	r9,r8,r9<<0x2
	if (ptr_job->busy == false) {
80006d00:	72 08       	ld.w	r8,r9[0x0]
80006d02:	58 08       	cp.w	r8,0
		return; // No job running
	}
	ptr_job->busy = false;
80006d04:	c2 f4       	brge	80006d62 <uhd_pipe_finish_job+0x76>
80006d06:	30 0b       	mov	r11,0
80006d08:	f1 db d3 e1 	bfins	r8,r11,0x1f,0x1
	if (NULL == ptr_job->call_end) {
80006d0c:	93 08       	st.w	r9[0x0],r8
80006d0e:	72 48       	ld.w	r8,r9[0x10]
80006d10:	58 08       	cp.w	r8,0
		return; // No callback linked to job
	}
	ptr_job->call_end(uhd_get_configured_address(pipe),
			uhd_get_pipe_endpoint_address(pipe),
80006d12:	c2 80       	breq	80006d62 <uhd_pipe_finish_job+0x76>
80006d14:	f8 0e 15 02 	lsl	lr,r12,0x2
80006d18:	e0 3e fb 00 	sub	lr,129792
	}
	ptr_job->busy = false;
	if (NULL == ptr_job->call_end) {
		return; // No callback linked to job
	}
	ptr_job->call_end(uhd_get_configured_address(pipe),
80006d1c:	ef dc c0 02 	bfextu	r7,r12,0x0,0x2
80006d20:	7c 06       	ld.w	r6,lr[0x0]
80006d22:	e2 1c 03 fc 	andl	r12,0x3fc,COH
80006d26:	7c 0b       	ld.w	r11,lr[0x0]
80006d28:	e0 3c fb dc 	sub	r12,130012
80006d2c:	fd d6 c2 04 	bfextu	lr,r6,0x10,0x4
80006d30:	a3 77       	lsl	r7,0x3
80006d32:	f7 db c1 02 	bfextu	r11,r11,0x8,0x2
80006d36:	e0 66 00 80 	mov	r6,128
80006d3a:	58 1b       	cp.w	r11,1
80006d3c:	ec 0b 17 00 	moveq	r11,r6
80006d40:	f9 bb 01 00 	movne	r11,0
80006d44:	1c 4b       	or	r11,lr
80006d46:	78 0e       	ld.w	lr,r12[0x0]
80006d48:	37 fc       	mov	r12,127
80006d4a:	f8 07 09 4c 	lsl	r12,r12,r7
80006d4e:	f9 ee 00 0e 	and	lr,r12,lr
80006d52:	72 39       	ld.w	r9,r9[0xc]
80006d54:	5c 9c       	brev	r12
80006d56:	f8 0c 12 00 	clz	r12,r12
80006d5a:	fc 0c 0a 4c 	lsr	r12,lr,r12
80006d5e:	5c 5c       	castu.b	r12
80006d60:	5d 18       	icall	r8
80006d62:	d8 22       	popm	r4-r7,pc

80006d64 <uhd_ep_abort_pipe>:
80006d64:	d4 01       	pushm	lr
80006d66:	fe 68 00 00 	mov	r8,-131072
 * \param status Reason of abort
 */
static void uhd_ep_abort_pipe(uint8_t pipe, uhd_trans_status_t status)
{
	// Stop transfer
	uhd_reset_pipe(pipe);
80006d6a:	e0 7a 00 00 	mov	r10,65536
80006d6e:	f0 fe 04 1c 	ld.w	lr,r8[1052]
80006d72:	f4 0c 09 4a 	lsl	r10,r10,r12
80006d76:	f5 ee 10 0e 	or	lr,r10,lr
80006d7a:	5c da       	com	r10
80006d7c:	f1 4e 04 1c 	st.w	r8[1052],lr
80006d80:	f0 fe 04 1c 	ld.w	lr,r8[1052]
80006d84:	1c 6a       	and	r10,lr
80006d86:	f1 4a 04 1c 	st.w	r8[1052],r10

	// Autoswitch bank and interrupts has been reseted, then re-enable it
	uhd_enable_pipe_bank_autoswitch(pipe);
80006d8a:	f8 08 15 02 	lsl	r8,r12,0x2
80006d8e:	fe 6a 05 00 	mov	r10,-129792
80006d92:	f0 0a 00 0e 	add	lr,r8,r10
80006d96:	7c 0a       	ld.w	r10,lr[0x0]
80006d98:	ab aa       	sbr	r10,0xa
80006d9a:	9d 0a       	st.w	lr[0x0],r10
	uhd_enable_stall_interrupt(pipe);
80006d9c:	fe 6e 05 f0 	mov	lr,-129552
80006da0:	f0 0e 00 0a 	add	r10,r8,lr
80006da4:	34 0e       	mov	lr,64
80006da6:	95 0e       	st.w	r10[0x0],lr
	uhd_enable_pipe_error_interrupt(pipe);

	uhd_disable_out_ready_interrupt(pipe);
80006da8:	e0 38 f9 e0 	sub	r8,129504
	uhd_reset_pipe(pipe);

	// Autoswitch bank and interrupts has been reseted, then re-enable it
	uhd_enable_pipe_bank_autoswitch(pipe);
	uhd_enable_stall_interrupt(pipe);
	uhd_enable_pipe_error_interrupt(pipe);
80006dac:	30 8e       	mov	lr,8
80006dae:	95 0e       	st.w	r10[0x0],lr

	uhd_disable_out_ready_interrupt(pipe);
	uhd_pipe_dma_set_control(pipe, 0);
80006db0:	30 09       	mov	r9,0
	// Autoswitch bank and interrupts has been reseted, then re-enable it
	uhd_enable_pipe_bank_autoswitch(pipe);
	uhd_enable_stall_interrupt(pipe);
	uhd_enable_pipe_error_interrupt(pipe);

	uhd_disable_out_ready_interrupt(pipe);
80006db2:	30 2a       	mov	r10,2
80006db4:	91 0a       	st.w	r8[0x0],r10
	uhd_pipe_dma_set_control(pipe, 0);
80006db6:	f8 08 15 04 	lsl	r8,r12,0x4
80006dba:	e0 38 f9 00 	sub	r8,129280
80006dbe:	91 29       	st.w	r8[0x8],r9
	uhd_pipe_finish_job(pipe, status);
80006dc0:	c9 6f       	rcall	80006cec <uhd_pipe_finish_job>
80006dc2:	d8 02       	popm	pc

80006dc4 <uhd_pipe_trans_complet>:
}
80006dc4:	d4 31       	pushm	r0-r7,lr
80006dc6:	e0 69 08 f8 	mov	r9,2296
80006dca:	f8 c8 00 01 	sub	r8,r12,1
	iram_size_t max_trans;
	iram_size_t next_trans;
	irqflags_t flags;

	// Get job corresponding at endpoint
	ptr_job = &uhd_pipe_job[pipe - 1];
80006dce:	f0 08 00 28 	add	r8,r8,r8<<0x2
80006dd2:	f2 08 00 28 	add	r8,r9,r8<<0x2

	if (!ptr_job->busy) {
80006dd6:	70 09       	ld.w	r9,r8[0x0]
80006dd8:	58 09       	cp.w	r9,0
80006dda:	e0 84 00 cb 	brge	80006f70 <uhd_pipe_trans_complet+0x1ac>
		return; // No job is running, then ignore it (system error)
	}

	if (ptr_job->nb_trans != ptr_job->buf_size) {
80006dde:	70 3e       	ld.w	lr,r8[0xc]
80006de0:	70 2a       	ld.w	r10,r8[0x8]
80006de2:	14 3e       	cp.w	lr,r10
80006de4:	e0 80 00 9e 	breq	80006f20 <uhd_pipe_trans_complet+0x15c>
		// Need to send or receive other data
		next_trans = ptr_job->buf_size - ptr_job->nb_trans;
		max_trans = UHD_PIPE_MAX_TRANS;
		if (uhd_is_pipe_in(pipe)) {
80006de8:	fe 6b 05 00 	mov	r11,-129792
80006dec:	f8 07 15 02 	lsl	r7,r12,0x2
80006df0:	ee 0b 00 09 	add	r9,r7,r11
80006df4:	72 0b       	ld.w	r11,r9[0x0]
80006df6:	f7 db c1 02 	bfextu	r11,r11,0x8,0x2
80006dfa:	58 1b       	cp.w	r11,1
			// 256 is the maximum of IN requests via UPINRQ
			if ((256L*uhd_get_pipe_size(pipe))<UHD_PIPE_MAX_TRANS) {
80006dfc:	c1 51       	brne	80006e26 <uhd_pipe_trans_complet+0x62>
80006dfe:	72 0b       	ld.w	r11,r9[0x0]
80006e00:	30 86       	mov	r6,8
80006e02:	f7 db c0 83 	bfextu	r11,r11,0x4,0x3
80006e06:	ec 0b 09 4b 	lsl	r11,r6,r11
80006e0a:	f6 06 09 4b 	lsl	r11,r11,r6
80006e0e:	e0 4b ff ff 	cp.w	r11,65535
80006e12:	e0 89 00 0a 	brgt	80006e26 <uhd_pipe_trans_complet+0x62>
				 max_trans = 256L * uhd_get_pipe_size(pipe);
80006e16:	72 0b       	ld.w	r11,r9[0x0]
80006e18:	f7 db c0 83 	bfextu	r11,r11,0x4,0x3
80006e1c:	ec 0b 09 4b 	lsl	r11,r6,r11
80006e20:	f6 06 09 4b 	lsl	r11,r11,r6
80006e24:	c0 38       	rjmp	80006e2a <uhd_pipe_trans_complet+0x66>
80006e26:	e0 7b 00 00 	mov	r11,65536
		return; // No job is running, then ignore it (system error)
	}

	if (ptr_job->nb_trans != ptr_job->buf_size) {
		// Need to send or receive other data
		next_trans = ptr_job->buf_size - ptr_job->nb_trans;
80006e2a:	1c 1a       	sub	r10,lr
80006e2c:	14 3b       	cp.w	r11,r10
80006e2e:	f6 0a 17 80 	movls	r10,r11
			// The USB hardware supports a maximum
			// transfer size of UHD_PIPE_MAX_TRANS Bytes
			next_trans = max_trans;
		}

		if (next_trans == UHD_PIPE_MAX_TRANS) {
80006e32:	e0 5a 00 00 	cp.w	r10,65536
80006e36:	c0 31       	brne	80006e3c <uhd_pipe_trans_complet+0x78>
80006e38:	30 0b       	mov	r11,0
			// Set 0 to transfer the maximum
			uhd_dma_ctrl = (0 <<
					AVR32_USBB_UHDMA1_CONTROL_CH_BYTE_LENGTH_OFFSET)
					& AVR32_USBB_UHDMA1_CONTROL_CH_BYTE_LENGTH_MASK;
		} else {
			uhd_dma_ctrl = (next_trans <<
80006e3a:	c0 38       	rjmp	80006e40 <uhd_pipe_trans_complet+0x7c>
80006e3c:	f4 0b 15 10 	lsl	r11,r10,0x10
					AVR32_USBB_UHDMA1_CONTROL_CH_BYTE_LENGTH_OFFSET)
					& AVR32_USBB_UHDMA1_CONTROL_CH_BYTE_LENGTH_MASK;
		}

		if (uhd_is_pipe_out(pipe)) {
80006e40:	72 0e       	ld.w	lr,r9[0x0]
80006e42:	fd de c1 02 	bfextu	lr,lr,0x8,0x2
80006e46:	58 2e       	cp.w	lr,2
			if (0 != next_trans % uhd_get_pipe_size(pipe)) {
80006e48:	c1 21       	brne	80006e6c <uhd_pipe_trans_complet+0xa8>
80006e4a:	72 0e       	ld.w	lr,r9[0x0]
80006e4c:	30 86       	mov	r6,8
80006e4e:	fd de c0 83 	bfextu	lr,lr,0x4,0x3
80006e52:	ec 0e 09 4e 	lsl	lr,r6,lr
80006e56:	20 1e       	sub	lr,1
80006e58:	f5 ee 00 0e 	and	lr,r10,lr
				// Enable short packet option
				// else the DMA transfer is accepted
				// and interrupt DMA valid but nothing is sent.
				uhd_dma_ctrl |= AVR32_USBB_UHDMA1_CONTROL_DMAEND_EN_MASK;
				// No need to request another ZLP
				ptr_job->b_shortpacket = false;
80006e5c:	c1 80       	breq	80006e8c <uhd_pipe_trans_complet+0xc8>
		if (uhd_is_pipe_out(pipe)) {
			if (0 != next_trans % uhd_get_pipe_size(pipe)) {
				// Enable short packet option
				// else the DMA transfer is accepted
				// and interrupt DMA valid but nothing is sent.
				uhd_dma_ctrl |= AVR32_USBB_UHDMA1_CONTROL_DMAEND_EN_MASK;
80006e5e:	70 0e       	ld.w	lr,r8[0x0]
				// No need to request another ZLP
				ptr_job->b_shortpacket = false;
80006e60:	0c 4b       	or	r11,r6
80006e62:	30 06       	mov	r6,0
80006e64:	fd d6 d3 c1 	bfins	lr,r6,0x1e,0x1
80006e68:	91 0e       	st.w	r8[0x0],lr
			}
		} else {
			if ((USB_EP_TYPE_ISOCHRONOUS != uhd_get_pipe_type(pipe))
80006e6a:	c1 18       	rjmp	80006e8c <uhd_pipe_trans_complet+0xc8>
80006e6c:	72 0e       	ld.w	lr,r9[0x0]
80006e6e:	fd de c1 82 	bfextu	lr,lr,0xc,0x2
80006e72:	58 1e       	cp.w	lr,1
					|| (next_trans <= uhd_get_pipe_size(pipe))) {
80006e74:	c0 a1       	brne	80006e88 <uhd_pipe_trans_complet+0xc4>
				uhd_dma_ctrl |= AVR32_USBB_UHDMA1_CONTROL_DMAEND_EN_MASK;
				// No need to request another ZLP
				ptr_job->b_shortpacket = false;
			}
		} else {
			if ((USB_EP_TYPE_ISOCHRONOUS != uhd_get_pipe_type(pipe))
80006e76:	72 0e       	ld.w	lr,r9[0x0]
80006e78:	30 86       	mov	r6,8
80006e7a:	fd de c0 83 	bfextu	lr,lr,0x4,0x3
80006e7e:	ec 0e 09 4e 	lsl	lr,r6,lr
80006e82:	1c 3a       	cp.w	r10,lr
80006e84:	e0 8b 00 04 	brhi	80006e8c <uhd_pipe_trans_complet+0xc8>
					|| (next_trans <= uhd_get_pipe_size(pipe))) {
				// Enable short packet reception
				uhd_dma_ctrl |= AVR32_USBB_UHDMA1_CONTROL_EOT_IRQ_EN_MASK
80006e88:	e8 1b 00 14 	orl	r11,0x14
						| AVR32_USBB_UHDMA1_CONTROL_BUFF_CLOSE_IN_EN_MASK;
			}
		}

		// Start USB DMA to fill or read fifo of the selected endpoint
		uhd_pipe_dma_set_addr(pipe, (U32) &ptr_job->buf[ptr_job->nb_trans]);
80006e8c:	70 3e       	ld.w	lr,r8[0xc]
80006e8e:	70 16       	ld.w	r6,r8[0x4]
80006e90:	1c 06       	add	r6,lr
80006e92:	f8 0e 15 04 	lsl	lr,r12,0x4
80006e96:	e0 3e f9 00 	sub	lr,129280

static inline irqflags_t cpu_irq_save(void)
{
	irqflags_t flags;

	flags = sysreg_read(AVR32_SR);
80006e9a:	9d 16       	st.w	lr[0x4],r6
80006e9c:	e1 b5 00 00 	mfsr	r5,0x0
				AVR32_USBB_UHDMA1_CONTROL_CH_EN_MASK;

		// Disable IRQs to have a short sequence
		// between read of EOT_STA and DMA enable
		flags = cpu_irq_save();
		if( !(uhd_pipe_dma_get_status(pipe)
80006ea0:	d3 03       	ssrf	0x10
80006ea2:	7c 36       	ld.w	r6,lr[0xc]
80006ea4:	e2 16 00 10 	andl	r6,0x10,COH
				& AVR32_USBB_UHDMA1_STATUS_EOT_STA_MASK)) {
			if (uhd_is_pipe_in(pipe)) {
80006ea8:	c3 61       	brne	80006f14 <uhd_pipe_trans_complet+0x150>
80006eaa:	72 0c       	ld.w	r12,r9[0x0]
80006eac:	f9 dc c1 02 	bfextu	r12,r12,0x8,0x2
80006eb0:	58 1c       	cp.w	r12,1
				uhd_in_request_number(pipe,
80006eb2:	c1 c1       	brne	80006eea <uhd_pipe_trans_complet+0x126>
80006eb4:	fe 6c 06 50 	mov	r12,-129456
80006eb8:	ee 0c 00 06 	add	r6,r7,r12
80006ebc:	6c 0c       	ld.w	r12,r6[0x0]
80006ebe:	72 03       	ld.w	r3,r9[0x0]
80006ec0:	e0 1c ff 00 	andl	r12,0xff00
80006ec4:	72 04       	ld.w	r4,r9[0x0]
80006ec6:	f3 d3 c0 83 	bfextu	r9,r3,0x4,0x3
80006eca:	e9 d4 c0 83 	bfextu	r4,r4,0x4,0x3
80006ece:	30 83       	mov	r3,8
80006ed0:	2f d4       	sub	r4,-3
80006ed2:	e6 09 09 49 	lsl	r9,r3,r9
80006ed6:	20 19       	sub	r9,1
80006ed8:	14 09       	add	r9,r10
80006eda:	f2 04 0a 49 	lsr	r9,r9,r4
80006ede:	20 19       	sub	r9,1
80006ee0:	f3 d9 c0 08 	bfextu	r9,r9,0x0,0x8
80006ee4:	f3 ec 10 0c 	or	r12,r9,r12
						(next_trans+uhd_get_pipe_size(pipe)-1)/uhd_get_pipe_size(pipe));
			}
			uhd_disable_bank_interrupt(pipe);
80006ee8:	8d 0c       	st.w	r6[0x0],r12
80006eea:	e0 37 f9 e0 	sub	r7,129504
80006eee:	e0 69 10 00 	mov	r9,4096
			uhd_unfreeze_pipe(pipe);
80006ef2:	8f 09       	st.w	r7[0x0],r9
80006ef4:	e2 69 00 00 	mov	r9,131072
			}
		}

		// Start USB DMA to fill or read fifo of the selected endpoint
		uhd_pipe_dma_set_addr(pipe, (U32) &ptr_job->buf[ptr_job->nb_trans]);
		uhd_dma_ctrl |= AVR32_USBB_UHDMA1_CONTROL_EOBUFF_IRQ_EN_MASK |
80006ef8:	8f 09       	st.w	r7[0x0],r9
80006efa:	e8 1b 00 21 	orl	r11,0x21
						(next_trans+uhd_get_pipe_size(pipe)-1)/uhd_get_pipe_size(pipe));
			}
			uhd_disable_bank_interrupt(pipe);
			uhd_unfreeze_pipe(pipe);
			uhd_pipe_dma_set_control(pipe, uhd_dma_ctrl);
			ptr_job->nb_trans += next_trans;
80006efe:	9d 2b       	st.w	lr[0x8],r11
80006f00:	70 39       	ld.w	r9,r8[0xc]
80006f02:	f2 0a 00 0a 	add	r10,r9,r10
static inline void cpu_irq_restore(irqflags_t flags)
{
	barrier();

   /* Restore the global IRQ mask status flag if it was previously set */
   if ( cpu_irq_is_enabled_flags(flags) ) {
80006f06:	91 3a       	st.w	r8[0xc],r10
80006f08:	e6 15 00 01 	andh	r5,0x1,COH
      cpu_irq_enable();
80006f0c:	c0 21       	brne	80006f10 <uhd_pipe_trans_complet+0x14c>
			cpu_irq_restore(flags);
			return;
80006f0e:	d5 03       	csrf	0x10
80006f10:	d8 32       	popm	r0-r7,pc
80006f12:	d7 03       	nop
static inline void cpu_irq_restore(irqflags_t flags)
{
	barrier();

   /* Restore the global IRQ mask status flag if it was previously set */
   if ( cpu_irq_is_enabled_flags(flags) ) {
80006f14:	e6 15 00 01 	andh	r5,0x1,COH
80006f18:	c0 21       	brne	80006f1c <uhd_pipe_trans_complet+0x158>
      cpu_irq_enable();
80006f1a:	d5 03       	csrf	0x10
		}
		cpu_irq_restore(flags);
		// Here a ZLP has been received
		// and the DMA transfer must be not started.
		// It is the end of transfer
		ptr_job->buf_size = ptr_job->nb_trans;
80006f1c:	70 39       	ld.w	r9,r8[0xc]
80006f1e:	91 29       	st.w	r8[0x8],r9
	}
	if (uhd_is_pipe_out(pipe)) {
80006f20:	f8 09 15 02 	lsl	r9,r12,0x2
80006f24:	fe 6b 05 00 	mov	r11,-129792
80006f28:	f2 0b 00 0a 	add	r10,r9,r11
80006f2c:	74 0a       	ld.w	r10,r10[0x0]
80006f2e:	f5 da c1 02 	bfextu	r10,r10,0x8,0x2
80006f32:	58 2a       	cp.w	r10,2
80006f34:	c1 c1       	brne	80006f6c <uhd_pipe_trans_complet+0x1a8>
		if (ptr_job->b_shortpacket) {
80006f36:	70 08       	ld.w	r8,r8[0x0]
80006f38:	ed b8 00 1e 	bld	r8,0x1e
80006f3c:	c1 81       	brne	80006f6c <uhd_pipe_trans_complet+0x1a8>
			// Need to send a ZLP (No possible with USB DMA)
			// enable interrupt to wait a free bank to sent ZLP
			uhd_ack_out_ready(pipe);
80006f3e:	fe 6c 05 60 	mov	r12,-129696
80006f42:	f2 0c 00 08 	add	r8,r9,r12
80006f46:	91 0a       	st.w	r8[0x0],r10
			if (Is_uhd_write_enabled(pipe)) {
80006f48:	fe 6b 05 30 	mov	r11,-129744
80006f4c:	f2 0b 00 08 	add	r8,r9,r11
80006f50:	70 08       	ld.w	r8,r8[0x0]
80006f52:	ed b8 00 10 	bld	r8,0x10
80006f56:	c0 61       	brne	80006f62 <uhd_pipe_trans_complet+0x19e>
				// Force interrupt in case of pipe already free
				uhd_raise_out_ready(pipe);
80006f58:	fe 6c 05 90 	mov	r12,-129648
80006f5c:	f2 0c 00 08 	add	r8,r9,r12
80006f60:	91 0a       	st.w	r8[0x0],r10
			}
			uhd_enable_out_ready_interrupt(pipe);
80006f62:	e0 39 fa 10 	sub	r9,129552
80006f66:	30 28       	mov	r8,2
80006f68:	93 08       	st.w	r9[0x0],r8
			return;
80006f6a:	d8 32       	popm	r0-r7,pc
		}
	}
	// Call callback to signal end of transfer
	uhd_pipe_finish_job(pipe, UHD_TRANS_NOERROR);
80006f6c:	30 0b       	mov	r11,0
80006f6e:	cb fe       	rcall	80006cec <uhd_pipe_finish_job>
80006f70:	d8 32       	popm	r0-r7,pc
80006f72:	d7 03       	nop

80006f74 <uhd_ep_run>:
80006f74:	d4 31       	pushm	r0-r7,lr
80006f76:	fa c4 ff dc 	sub	r4,sp,-36
		bool b_shortpacket,
		uint8_t *buf,
		iram_size_t buf_size,
		uint16_t timeout,
		uhd_callback_trans_t callback)
{
80006f7a:	10 95       	mov	r5,r8
80006f7c:	68 13       	ld.w	r3,r4[0x4]
80006f7e:	14 97       	mov	r7,r10
80006f80:	12 96       	mov	r6,r9
80006f82:	68 04       	ld.w	r4,r4[0x0]
	irqflags_t flags;
	uint8_t pipe;
	uhd_pipe_job_t *ptr_job;

	pipe = uhd_get_pipe(add,endp);
80006f84:	c7 4e       	rcall	80006c6c <uhd_get_pipe>
80006f86:	30 78       	mov	r8,7
	if (pipe == AVR32_USBB_EPT_NUM) {
80006f88:	f0 0c 18 00 	cp.b	r12,r8
80006f8c:	c1 60       	breq	80006fb8 <uhd_ep_run+0x44>
80006f8e:	e0 69 08 f8 	mov	r9,2296
		return false; // pipe not found
	}

	// Get job about pipe
	ptr_job = &uhd_pipe_job[pipe-1];
80006f92:	f8 c8 00 01 	sub	r8,r12,1
80006f96:	f0 08 00 28 	add	r8,r8,r8<<0x2
80006f9a:	f2 08 00 28 	add	r8,r9,r8<<0x2

static inline irqflags_t cpu_irq_save(void)
{
	irqflags_t flags;

	flags = sysreg_read(AVR32_SR);
80006f9e:	e1 b9 00 00 	mfsr	r9,0x0
	cpu_irq_disable();
80006fa2:	d3 03       	ssrf	0x10
	flags = cpu_irq_save();
	if (ptr_job->busy == true) {
80006fa4:	70 0b       	ld.w	r11,r8[0x0]
80006fa6:	e6 19 00 01 	andh	r9,0x1,COH
80006faa:	16 9a       	mov	r10,r11
80006fac:	e6 1a 80 00 	andh	r10,0x8000,COH
80006fb0:	c0 50       	breq	80006fba <uhd_ep_run+0x46>
static inline void cpu_irq_restore(irqflags_t flags)
{
	barrier();

   /* Restore the global IRQ mask status flag if it was previously set */
   if ( cpu_irq_is_enabled_flags(flags) ) {
80006fb2:	58 09       	cp.w	r9,0
80006fb4:	c0 21       	brne	80006fb8 <uhd_ep_run+0x44>
      cpu_irq_enable();
80006fb6:	d5 03       	csrf	0x10
   }

	barrier();
80006fb8:	d8 3a       	popm	r0-r7,pc,r12=0
		cpu_irq_restore(flags);
		return false; // Job already on going
	}
	ptr_job->busy = true;
80006fba:	30 1e       	mov	lr,1
80006fbc:	f7 de d3 e1 	bfins	r11,lr,0x1f,0x1
80006fc0:	91 0b       	st.w	r8[0x0],r11

	// No job running. Let's setup a new one.
	ptr_job->buf = buf;
	ptr_job->buf_size = buf_size;
	ptr_job->nb_trans = 0;
	ptr_job->timeout = timeout;
80006fc2:	b0 14       	st.h	r8[0x2],r4
	ptr_job->busy = true;

	// No job running. Let's setup a new one.
	ptr_job->buf = buf;
	ptr_job->buf_size = buf_size;
	ptr_job->nb_trans = 0;
80006fc4:	91 3a       	st.w	r8[0xc],r10
	ptr_job->timeout = timeout;
	ptr_job->b_shortpacket = b_shortpacket;
	ptr_job->call_end = callback;
80006fc6:	91 43       	st.w	r8[0x10],r3
	// No job running. Let's setup a new one.
	ptr_job->buf = buf;
	ptr_job->buf_size = buf_size;
	ptr_job->nb_trans = 0;
	ptr_job->timeout = timeout;
	ptr_job->b_shortpacket = b_shortpacket;
80006fc8:	70 0a       	ld.w	r10,r8[0x0]
		return false; // Job already on going
	}
	ptr_job->busy = true;

	// No job running. Let's setup a new one.
	ptr_job->buf = buf;
80006fca:	91 16       	st.w	r8[0x4],r6
	ptr_job->buf_size = buf_size;
	ptr_job->nb_trans = 0;
	ptr_job->timeout = timeout;
	ptr_job->b_shortpacket = b_shortpacket;
80006fcc:	f5 d7 d3 c1 	bfins	r10,r7,0x1e,0x1
	}
	ptr_job->busy = true;

	// No job running. Let's setup a new one.
	ptr_job->buf = buf;
	ptr_job->buf_size = buf_size;
80006fd0:	91 25       	st.w	r8[0x8],r5
	ptr_job->nb_trans = 0;
	ptr_job->timeout = timeout;
	ptr_job->b_shortpacket = b_shortpacket;
80006fd2:	91 0a       	st.w	r8[0x0],r10
static inline void cpu_irq_restore(irqflags_t flags)
{
	barrier();

   /* Restore the global IRQ mask status flag if it was previously set */
   if ( cpu_irq_is_enabled_flags(flags) ) {
80006fd4:	58 09       	cp.w	r9,0
80006fd6:	c0 21       	brne	80006fda <uhd_ep_run+0x66>
      cpu_irq_enable();
80006fd8:	d5 03       	csrf	0x10
	ptr_job->call_end = callback;
	cpu_irq_restore(flags);

	// Request first transfer
	uhd_pipe_trans_complet(pipe);
80006fda:	cf 5e       	rcall	80006dc4 <uhd_pipe_trans_complet>
80006fdc:	da 3a       	popm	r0-r7,pc,r12=1
80006fde:	d7 03       	nop

80006fe0 <uhd_ctrl_request_end>:
80006fe0:	d4 21       	pushm	r4-r7,lr
80006fe2:	30 09       	mov	r9,0
80006fe4:	e0 68 1c b4 	mov	r8,7348
80006fe8:	18 95       	mov	r5,r12
80006fea:	b0 09       	st.h	r8[0x0],r9
	bool b_new_request;

	uhd_ctrl_request_timeout = 0;

	// Remove request from the control request list
	callback_end = uhd_ctrl_request_first->callback_end;
80006fec:	e0 69 1c a8 	mov	r9,7336

static inline irqflags_t cpu_irq_save(void)
{
	irqflags_t flags;

	flags = sysreg_read(AVR32_SR);
80006ff0:	72 0c       	ld.w	r12,r9[0x0]
80006ff2:	78 66       	ld.w	r6,r12[0x18]
	cpu_irq_disable();
80006ff4:	e1 b8 00 00 	mfsr	r8,0x0
	request_to_free = uhd_ctrl_request_first;
	flags = cpu_irq_save();
	uhd_ctrl_request_first = uhd_ctrl_request_first->next_request;
80006ff8:	d3 03       	ssrf	0x10
80006ffa:	72 0a       	ld.w	r10,r9[0x0]
static inline void cpu_irq_restore(irqflags_t flags)
{
	barrier();

   /* Restore the global IRQ mask status flag if it was previously set */
   if ( cpu_irq_is_enabled_flags(flags) ) {
80006ffc:	74 77       	ld.w	r7,r10[0x1c]
80006ffe:	93 07       	st.w	r9[0x0],r7
80007000:	ed b8 00 10 	bld	r8,0x10
	b_new_request = (uhd_ctrl_request_first != NULL);
	cpu_irq_restore(flags);
	free(request_to_free);
80007004:	c0 20       	breq	80007008 <uhd_ctrl_request_end+0x28>
80007006:	d5 03       	csrf	0x10

	// Call callback
	if (callback_end != NULL) {
80007008:	e0 a0 0b a2 	rcall	8000874c <free>
		callback_end(uhd_get_configured_address(0), status, uhd_ctrl_nb_trans);
8000700c:	58 06       	cp.w	r6,0
8000700e:	c0 b0       	breq	80007024 <uhd_ctrl_request_end+0x44>
80007010:	fe 68 04 24 	mov	r8,-130012
80007014:	70 0c       	ld.w	r12,r8[0x0]
80007016:	e0 68 1c ac 	mov	r8,7340
8000701a:	0a 9b       	mov	r11,r5
8000701c:	f9 dc c0 07 	bfextu	r12,r12,0x0,0x7
	}

	// If a setup request is pending and no started by previous callback
	if (b_new_request) {
80007020:	90 8a       	ld.uh	r10,r8[0x0]
		uhd_ctrl_phase_setup();
80007022:	5d 16       	icall	r6
80007024:	58 07       	cp.w	r7,0
	}
	if (uhd_b_suspend_requested) {
80007026:	c0 20       	breq	8000702a <uhd_ctrl_request_end+0x4a>
80007028:	c0 cc       	rcall	80007040 <uhd_ctrl_phase_setup>
8000702a:	e0 68 09 73 	mov	r8,2419
8000702e:	30 09       	mov	r9,0
80007030:	11 8a       	ld.ub	r10,r8[0x0]
		// A suspend request has been delay after all setup request
		uhd_b_suspend_requested = false;
80007032:	f2 0a 18 00 	cp.b	r10,r9
		uhd_suspend();
80007036:	c0 40       	breq	8000703e <uhd_ctrl_request_end+0x5e>
80007038:	b0 89       	st.b	r8[0x0],r9
8000703a:	fe b0 fd 49 	rcall	80006acc <uhd_suspend>
8000703e:	d8 22       	popm	r4-r7,pc

80007040 <uhd_ctrl_phase_setup>:
80007040:	d4 21       	pushm	r4-r7,lr
80007042:	20 2d       	sub	sp,8
80007044:	e0 68 1c a4 	mov	r8,7332
80007048:	30 06       	mov	r6,0
8000704a:	91 06       	st.w	r8[0x0],r6
8000704c:	e0 68 1c a8 	mov	r8,7336
80007050:	30 8a       	mov	r10,8
80007052:	70 07       	ld.w	r7,r8[0x0]
80007054:	1a 9c       	mov	r12,sp
80007056:	ee cb ff ff 	sub	r11,r7,-1

	// Manage LSB/MSB to fit with CPU usage
	setup.req.wValue = cpu_to_le16(setup.req.wValue);
	setup.req.wIndex = cpu_to_le16(setup.req.wIndex);
	setup.req.wLength = cpu_to_le16(setup.req.wLength);
	uhd_ctrl_nb_trans = 0;
8000705a:	e0 a0 0d 9d 	rcall	80008b94 <memcpy>
	}
#error TODO check address in list
	// Reconfigure USB address of pipe 0 used for all control endpoints
	uhd_configure_address(0, uhd_ctrl_request_first->add);
#else
	if (!Is_uhd_pipe_enabled(0) ||
8000705e:	e0 68 1c ac 	mov	r8,7340
		uint64_t value64;
	} setup;
	volatile uint64_t *ptr_ep_data;

	uhd_ctrl_request_phase = UHD_CTRL_REQ_PHASE_SETUP;
	memcpy( &setup.req, &uhd_ctrl_request_first->req, sizeof(usb_setup_req_t));
80007062:	b0 06       	st.h	r8[0x0],r6
	}
#error TODO check address in list
	// Reconfigure USB address of pipe 0 used for all control endpoints
	uhd_configure_address(0, uhd_ctrl_request_first->add);
#else
	if (!Is_uhd_pipe_enabled(0) ||
80007064:	fe 68 00 00 	mov	r8,-131072

	uhd_ctrl_request_phase = UHD_CTRL_REQ_PHASE_SETUP;
	memcpy( &setup.req, &uhd_ctrl_request_first->req, sizeof(usb_setup_req_t));

	// Manage LSB/MSB to fit with CPU usage
	setup.req.wValue = cpu_to_le16(setup.req.wValue);
80007068:	40 09       	lddsp	r9,sp[0x0]
8000706a:	f0 fc 04 1c 	ld.w	r12,r8[1052]
8000706e:	f7 d9 c0 10 	bfextu	r11,r9,0x0,0x10
80007072:	f6 06 16 08 	lsr	r6,r11,0x8
80007076:	ed eb 10 8b 	or	r11,r6,r11<<0x8
	setup.req.wIndex = cpu_to_le16(setup.req.wIndex);
8000707a:	40 18       	lddsp	r8,sp[0x4]
8000707c:	f3 db d0 10 	bfins	r9,r11,0x0,0x10
	}
#error TODO check address in list
	// Reconfigure USB address of pipe 0 used for all control endpoints
	uhd_configure_address(0, uhd_ctrl_request_first->add);
#else
	if (!Is_uhd_pipe_enabled(0) ||
80007080:	f0 0a 16 10 	lsr	r10,r8,0x10
	uhd_ctrl_request_phase = UHD_CTRL_REQ_PHASE_SETUP;
	memcpy( &setup.req, &uhd_ctrl_request_first->req, sizeof(usb_setup_req_t));

	// Manage LSB/MSB to fit with CPU usage
	setup.req.wValue = cpu_to_le16(setup.req.wValue);
	setup.req.wIndex = cpu_to_le16(setup.req.wIndex);
80007084:	f9 dc c0 01 	bfextu	r12,r12,0x0,0x1
80007088:	f4 0b 16 08 	lsr	r11,r10,0x8
8000708c:	f7 ea 10 8a 	or	r10,r11,r10<<0x8
	setup.req.wLength = cpu_to_le16(setup.req.wLength);
80007090:	f1 da d2 10 	bfins	r8,r10,0x10,0x10
	}
#error TODO check address in list
	// Reconfigure USB address of pipe 0 used for all control endpoints
	uhd_configure_address(0, uhd_ctrl_request_first->add);
#else
	if (!Is_uhd_pipe_enabled(0) ||
80007094:	ed d8 b0 10 	bfexts	r6,r8,0x0,0x10
			(uhd_ctrl_request_first->add != uhd_get_configured_address(0))) {
80007098:	58 0c       	cp.w	r12,0
8000709a:	c0 90       	breq	800070ac <uhd_ctrl_phase_setup+0x6c>
8000709c:	fe 6a 04 24 	mov	r10,-130012
800070a0:	74 0a       	ld.w	r10,r10[0x0]
800070a2:	0f 8b       	ld.ub	r11,r7[0x0]
800070a4:	f5 da c0 07 	bfextu	r10,r10,0x0,0x7
		uhd_ctrl_request_end(UHD_TRANS_DISCONNECT);
800070a8:	14 3b       	cp.w	r11,r10
800070aa:	c0 40       	breq	800070b2 <uhd_ctrl_phase_setup+0x72>
		return; // Endpoint not valid
800070ac:	30 1c       	mov	r12,1
	}
#endif

	// Fill pipe
	uhd_configure_pipe_token(0, AVR32_USBB_PTOKEN_SETUP);
800070ae:	c9 9f       	rcall	80006fe0 <uhd_ctrl_request_end>
800070b0:	c2 a8       	rjmp	80007104 <uhd_ctrl_phase_setup+0xc4>
800070b2:	fe 6b 05 00 	mov	r11,-129792
800070b6:	76 0a       	ld.w	r10,r11[0x0]
800070b8:	e0 1a fc ff 	andl	r10,0xfcff
	uhd_ack_setup_ready(0);
800070bc:	97 0a       	st.w	r11[0x0],r10
800070be:	30 4c       	mov	r12,4
	memcpy( &setup.req, &uhd_ctrl_request_first->req, sizeof(usb_setup_req_t));

	// Manage LSB/MSB to fit with CPU usage
	setup.req.wValue = cpu_to_le16(setup.req.wValue);
	setup.req.wIndex = cpu_to_le16(setup.req.wIndex);
	setup.req.wLength = cpu_to_le16(setup.req.wLength);
800070c0:	fe 6a 05 60 	mov	r10,-129696
	}
#endif

	// Fill pipe
	uhd_configure_pipe_token(0, AVR32_USBB_PTOKEN_SETUP);
	uhd_ack_setup_ready(0);
800070c4:	ef d6 c0 10 	bfextu	r7,r6,0x0,0x10
	memcpy( &setup.req, &uhd_ctrl_request_first->req, sizeof(usb_setup_req_t));

	// Manage LSB/MSB to fit with CPU usage
	setup.req.wValue = cpu_to_le16(setup.req.wValue);
	setup.req.wIndex = cpu_to_le16(setup.req.wIndex);
	setup.req.wLength = cpu_to_le16(setup.req.wLength);
800070c8:	95 0c       	st.w	r10[0x0],r12
800070ca:	12 9b       	mov	r11,r9
800070cc:	ee 09 16 08 	lsr	r9,r7,0x8
800070d0:	f3 e7 10 87 	or	r7,r9,r7<<0x8
	// Fill pipe
	uhd_configure_pipe_token(0, AVR32_USBB_PTOKEN_SETUP);
	uhd_ack_setup_ready(0);
	Assert(sizeof(setup) == sizeof(uint64_t));
	ptr_ep_data = (volatile uint64_t *)&uhd_get_pipe_fifo_access(0, 64);
	*ptr_ep_data = setup.value64;
800070d4:	f1 d7 d0 10 	bfins	r8,r7,0x0,0x10
800070d8:	10 9a       	mov	r10,r8
800070da:	30 08       	mov	r8,0
800070dc:	ea 18 d0 00 	orh	r8,0xd000

	uhd_ctrl_request_timeout = 5000;
800070e0:	f0 eb 00 00 	st.d	r8[0],r10
800070e4:	e0 69 13 88 	mov	r9,5000
	uhd_enable_setup_ready_interrupt(0);
800070e8:	e0 68 1c b4 	mov	r8,7348
800070ec:	b0 09       	st.h	r8[0x0],r9
	uhd_ack_fifocon(0);
800070ee:	fe 68 05 f0 	mov	r8,-129552
800070f2:	91 0c       	st.w	r8[0x0],r12
800070f4:	e0 69 40 00 	mov	r9,16384
	uhd_unfreeze_pipe(0);
800070f8:	fe 68 06 20 	mov	r8,-129504
800070fc:	91 09       	st.w	r8[0x0],r9
}
800070fe:	e2 69 00 00 	mov	r9,131072
80007102:	91 09       	st.w	r8[0x0],r9
80007104:	2f ed       	sub	sp,-8
80007106:	d8 22       	popm	r4-r7,pc

80007108 <uhd_setup_request>:
80007108:	d4 31       	pushm	r0-r7,lr
8000710a:	20 1d       	sub	sp,4
8000710c:	18 97       	mov	r7,r12
8000710e:	50 0b       	stdsp	sp[0x0],r11
80007110:	14 92       	mov	r2,r10
80007112:	12 96       	mov	r6,r9
80007114:	10 93       	mov	r3,r8
80007116:	40 a4       	lddsp	r4,sp[0x28]
80007118:	32 0c       	mov	r12,32
8000711a:	e0 a0 0b 21 	rcall	8000875c <malloc>
	irqflags_t flags;
	struct uhd_ctrl_request_t *request;
	bool b_start_request = false;

	request = malloc( sizeof(struct uhd_ctrl_request_t) );
	if (request == NULL) {
8000711e:	40 0b       	lddsp	r11,sp[0x0]
{
	irqflags_t flags;
	struct uhd_ctrl_request_t *request;
	bool b_start_request = false;

	request = malloc( sizeof(struct uhd_ctrl_request_t) );
80007120:	18 95       	mov	r5,r12
	if (request == NULL) {
80007122:	c2 60       	breq	8000716e <uhd_setup_request+0x66>
		Assert(false);
		return false;
	}

	// Fill structure
	request->add = (uint8_t) add;
80007124:	18 c7       	st.b	r12++,r7
	memcpy(&request->req, req, sizeof(usb_setup_req_t));
80007126:	30 8a       	mov	r10,8
80007128:	e0 a0 0d 36 	rcall	80008b94 <memcpy>
	request->payload = payload;
	request->payload_size = payload_size;
	request->callback_run = callback_run;
	request->callback_end = callback_end;
	request->next_request = NULL;
8000712c:	30 08       	mov	r8,0
	}

	// Fill structure
	request->add = (uint8_t) add;
	memcpy(&request->req, req, sizeof(usb_setup_req_t));
	request->payload = payload;
8000712e:	8b 32       	st.w	r5[0xc],r2
	request->payload_size = payload_size;
80007130:	eb 56 00 10 	st.h	r5[16],r6
	request->callback_run = callback_run;
80007134:	8b 53       	st.w	r5[0x14],r3
	request->callback_end = callback_end;
80007136:	8b 64       	st.w	r5[0x18],r4
	request->next_request = NULL;
80007138:	8b 78       	st.w	r5[0x1c],r8

static inline irqflags_t cpu_irq_save(void)
{
	irqflags_t flags;

	flags = sysreg_read(AVR32_SR);
8000713a:	e1 ba 00 00 	mfsr	r10,0x0
	cpu_irq_disable();
8000713e:	d3 03       	ssrf	0x10

	// Add this request in the queue
	flags = cpu_irq_save();
	if (uhd_ctrl_request_first == NULL) {
80007140:	e0 69 1c a8 	mov	r9,7336
80007144:	72 0b       	ld.w	r11,r9[0x0]
80007146:	58 0b       	cp.w	r11,0
		uhd_ctrl_request_first = request;
80007148:	c0 41       	brne	80007150 <uhd_setup_request+0x48>
8000714a:	93 05       	st.w	r9[0x0],r5
8000714c:	30 18       	mov	r8,1
		b_start_request = true;
	} else {
		uhd_ctrl_request_last->next_request = request;
8000714e:	c0 58       	rjmp	80007158 <uhd_setup_request+0x50>
80007150:	e0 69 1c b0 	mov	r9,7344
	}
	uhd_ctrl_request_last = request;
80007154:	72 09       	ld.w	r9,r9[0x0]
80007156:	93 75       	st.w	r9[0x1c],r5
static inline void cpu_irq_restore(irqflags_t flags)
{
	barrier();

   /* Restore the global IRQ mask status flag if it was previously set */
   if ( cpu_irq_is_enabled_flags(flags) ) {
80007158:	e0 69 1c b0 	mov	r9,7344
8000715c:	93 05       	st.w	r9[0x0],r5
      cpu_irq_enable();
8000715e:	ed ba 00 10 	bld	r10,0x10
	cpu_irq_restore(flags);

	if (b_start_request) {
80007162:	c0 20       	breq	80007166 <uhd_setup_request+0x5e>
		// Start immediately request
		uhd_ctrl_phase_setup();
80007164:	d5 03       	csrf	0x10
80007166:	58 08       	cp.w	r8,0
80007168:	c0 20       	breq	8000716c <uhd_setup_request+0x64>
	}
	return true;
}
8000716a:	c6 bf       	rcall	80007040 <uhd_ctrl_phase_setup>
8000716c:	30 1c       	mov	r12,1
8000716e:	2f fd       	sub	sp,-4
80007170:	d8 32       	popm	r0-r7,pc
80007172:	d7 03       	nop

80007174 <uhd_ep_free>:
80007174:	d4 31       	pushm	r0-r7,lr
80007176:	fe 66 05 00 	mov	r6,-129792
8000717a:	18 90       	mov	r0,r12
8000717c:	16 94       	mov	r4,r11
8000717e:	30 07       	mov	r7,0
80007180:	fe 65 00 00 	mov	r5,-131072
		return;
	}
#endif
	// Search endpoint(s) in all pipes
	for (uint8_t pipe = 0; pipe < AVR32_USBB_EPT_NUM; pipe++) {
		if (!Is_uhd_pipe_enabled(pipe)) {
80007184:	30 11       	mov	r1,1
			continue;
		}
		if (add != uhd_get_configured_address(pipe)) {
80007186:	37 f2       	mov	r2,127
			continue;
		}
		if (endp != 0xFF) {
80007188:	3f f3       	mov	r3,-1
		return;
	}
#endif
	// Search endpoint(s) in all pipes
	for (uint8_t pipe = 0; pipe < AVR32_USBB_EPT_NUM; pipe++) {
		if (!Is_uhd_pipe_enabled(pipe)) {
8000718a:	ea fb 04 1c 	ld.w	r11,r5[1052]
	return false;
}


void uhd_ep_free(usb_add_t add, usb_ep_t endp)
{
8000718e:	0e 99       	mov	r9,r7
		return;
	}
#endif
	// Search endpoint(s) in all pipes
	for (uint8_t pipe = 0; pipe < AVR32_USBB_EPT_NUM; pipe++) {
		if (!Is_uhd_pipe_enabled(pipe)) {
80007190:	e2 07 09 4a 	lsl	r10,r1,r7
	return false;
}


void uhd_ep_free(usb_add_t add, usb_ep_t endp)
{
80007194:	5c 59       	castu.b	r9
		return;
	}
#endif
	// Search endpoint(s) in all pipes
	for (uint8_t pipe = 0; pipe < AVR32_USBB_EPT_NUM; pipe++) {
		if (!Is_uhd_pipe_enabled(pipe)) {
80007196:	f5 eb 00 0b 	and	r11,r10,r11
			continue;
		}
		if (add != uhd_get_configured_address(pipe)) {
8000719a:	12 98       	mov	r8,r9
8000719c:	e2 18 00 fc 	andl	r8,0xfc,COH
800071a0:	e0 38 fb dc 	sub	r8,130012
		return;
	}
#endif
	// Search endpoint(s) in all pipes
	for (uint8_t pipe = 0; pipe < AVR32_USBB_EPT_NUM; pipe++) {
		if (!Is_uhd_pipe_enabled(pipe)) {
800071a4:	58 0b       	cp.w	r11,0
800071a6:	c3 90       	breq	80007218 <uhd_ep_free+0xa4>
			continue;
		}
		if (add != uhd_get_configured_address(pipe)) {
800071a8:	70 0b       	ld.w	r11,r8[0x0]
800071aa:	f1 d7 c0 02 	bfextu	r8,r7,0x0,0x2
800071ae:	a3 78       	lsl	r8,0x3
800071b0:	e4 08 09 48 	lsl	r8,r2,r8
800071b4:	10 6b       	and	r11,r8
800071b6:	5c 98       	brev	r8
800071b8:	f0 08 12 00 	clz	r8,r8
800071bc:	f6 08 0a 48 	lsr	r8,r11,r8
800071c0:	10 30       	cp.w	r0,r8
800071c2:	c2 b1       	brne	80007218 <uhd_ep_free+0xa4>
			if (endp != uhd_get_pipe_endpoint_address(pipe)) {
				continue; // Mismatch
			}
		}
		// Unalloc pipe
		uhd_disable_pipe(pipe);
800071c4:	5c da       	com	r10
			continue;
		}
		if (add != uhd_get_configured_address(pipe)) {
			continue;
		}
		if (endp != 0xFF) {
800071c6:	e6 04 18 00 	cp.b	r4,r3
800071ca:	c1 10       	breq	800071ec <uhd_ep_free+0x78>
			// Disable specific endpoint number
			if (endp != uhd_get_pipe_endpoint_address(pipe)) {
800071cc:	6c 0b       	ld.w	r11,r6[0x0]
800071ce:	6c 08       	ld.w	r8,r6[0x0]
800071d0:	f7 db c2 04 	bfextu	r11,r11,0x10,0x4
800071d4:	f1 d8 c1 02 	bfextu	r8,r8,0x8,0x2
800071d8:	e0 6c 00 80 	mov	r12,128
800071dc:	58 18       	cp.w	r8,1
800071de:	f8 08 17 00 	moveq	r8,r12
800071e2:	f9 b8 01 00 	movne	r8,0
800071e6:	16 48       	or	r8,r11
800071e8:	10 34       	cp.w	r4,r8
800071ea:	c1 71       	brne	80007218 <uhd_ep_free+0xa4>
				continue; // Mismatch
			}
		}
		// Unalloc pipe
		uhd_disable_pipe(pipe);
800071ec:	ea f8 04 1c 	ld.w	r8,r5[1052]
800071f0:	10 6a       	and	r10,r8
800071f2:	eb 4a 04 1c 	st.w	r5[1052],r10
		uhd_unallocate_memory(pipe);
800071f6:	6c 08       	ld.w	r8,r6[0x0]
800071f8:	a1 d8       	cbr	r8,0x1
800071fa:	8d 08       	st.w	r6[0x0],r8

		// Stop transfer on this pipe
#ifndef USB_HOST_HUB_SUPPORT
		if (pipe == 0) {
800071fc:	58 09       	cp.w	r9,0
800071fe:	c0 91       	brne	80007210 <uhd_ep_free+0x9c>
			// Endpoint control
			if (uhd_ctrl_request_timeout) {
80007200:	e0 69 1c b4 	mov	r9,7348
80007204:	92 08       	ld.sh	r8,r9[0x0]
80007206:	58 08       	cp.w	r8,0
				uhd_ctrl_request_end(UHD_TRANS_DISCONNECT);
80007208:	c0 80       	breq	80007218 <uhd_ep_free+0xa4>
8000720a:	30 1c       	mov	r12,1
8000720c:	ce ae       	rcall	80006fe0 <uhd_ctrl_request_end>
8000720e:	c0 58       	rjmp	80007218 <uhd_ep_free+0xa4>
			}
			continue;
		}
#endif
		// Endpoint interrupt, bulk or isochronous
		uhd_ep_abort_pipe(pipe, UHD_TRANS_DISCONNECT);
80007210:	0e 9c       	mov	r12,r7
80007212:	30 1b       	mov	r11,1
80007214:	fe b0 fd a8 	rcall	80006d64 <uhd_ep_abort_pipe>
80007218:	2f f7       	sub	r7,-1
8000721a:	2f c6       	sub	r6,-4
		}
		return;
	}
#endif
	// Search endpoint(s) in all pipes
	for (uint8_t pipe = 0; pipe < AVR32_USBB_EPT_NUM; pipe++) {
8000721c:	58 77       	cp.w	r7,7
8000721e:	cb 61       	brne	8000718a <uhd_ep_free+0x16>
		}
#endif
		// Endpoint interrupt, bulk or isochronous
		uhd_ep_abort_pipe(pipe, UHD_TRANS_DISCONNECT);
	}
}
80007220:	d8 32       	popm	r0-r7,pc
80007222:	d7 03       	nop

80007224 <uhd_ep_alloc>:
80007224:	d4 31       	pushm	r0-r7,lr
80007226:	30 08       	mov	r8,0
80007228:	fe 65 00 00 	mov	r5,-131072
8000722c:	30 16       	mov	r6,1
8000722e:	ea f7 04 1c 	ld.w	r7,r5[1052]
	uhd_enable_pipe_interrupt(0);
	return true;
}

bool uhd_ep_alloc(usb_add_t add, usb_ep_desc_t * ep_desc)
{
80007232:	f0 c9 ff ff 	sub	r9,r8,-1
	uint8_t ep_dir;
	uint8_t ep_interval;
	uint8_t bank;

	for (uint8_t pipe = 1; pipe < AVR32_USBB_EPT_NUM; pipe++) {
		if (Is_uhd_pipe_enabled(pipe)) {
80007236:	fe 6e 00 00 	mov	lr,-131072
	uhd_enable_pipe_error_interrupt(0);
	uhd_enable_pipe_interrupt(0);
	return true;
}

bool uhd_ep_alloc(usb_add_t add, usb_ep_desc_t * ep_desc)
8000723a:	2f f8       	sub	r8,-1
{
8000723c:	5c 59       	castu.b	r9
	uint8_t ep_dir;
	uint8_t ep_interval;
	uint8_t bank;

	for (uint8_t pipe = 1; pipe < AVR32_USBB_EPT_NUM; pipe++) {
		if (Is_uhd_pipe_enabled(pipe)) {
8000723e:	ec 08 09 4a 	lsl	r10,r6,r8
80007242:	f5 e7 00 07 	and	r7,r10,r7
80007246:	c0 40       	breq	8000724e <uhd_ep_alloc+0x2a>
	uint8_t ep_type;
	uint8_t ep_dir;
	uint8_t ep_interval;
	uint8_t bank;

	for (uint8_t pipe = 1; pipe < AVR32_USBB_EPT_NUM; pipe++) {
80007248:	58 68       	cp.w	r8,6
8000724a:	cf 21       	brne	8000722e <uhd_ep_alloc+0xa>
8000724c:	c9 a8       	rjmp	80007380 <uhd_ep_alloc+0x15c>
		if (Is_uhd_pipe_enabled(pipe)) {
			continue;
		}
		uhd_enable_pipe(pipe);
8000724e:	fc f6 04 1c 	ld.w	r6,lr[1052]
80007252:	f5 e6 10 06 	or	r6,r10,r6
80007256:	fd 46 04 1c 	st.w	lr[1052],r6
		ep_dir = (ep_desc->bEndpointAddress & USB_EP_DIR_IN)?
				AVR32_USBB_UPCFG0_PTOKEN_IN:
				AVR32_USBB_UPCFG0_PTOKEN_OUT,
		ep_type = ep_desc->bmAttributes&USB_EP_TYPE_MASK;
		// Bank choice
		switch(ep_type) {
8000725a:	30 25       	mov	r5,2
	for (uint8_t pipe = 1; pipe < AVR32_USBB_EPT_NUM; pipe++) {
		if (Is_uhd_pipe_enabled(pipe)) {
			continue;
		}
		uhd_enable_pipe(pipe);
		ep_addr = ep_desc->bEndpointAddress & USB_EP_ADDR_MASK;
8000725c:	17 a6       	ld.ub	r6,r11[0x2]
		ep_dir = (ep_desc->bEndpointAddress & USB_EP_DIR_IN)?
				AVR32_USBB_UPCFG0_PTOKEN_IN:
				AVR32_USBB_UPCFG0_PTOKEN_OUT,
		ep_type = ep_desc->bmAttributes&USB_EP_TYPE_MASK;
8000725e:	17 be       	ld.ub	lr,r11[0x3]
		if (Is_uhd_pipe_enabled(pipe)) {
			continue;
		}
		uhd_enable_pipe(pipe);
		ep_addr = ep_desc->bEndpointAddress & USB_EP_ADDR_MASK;
		ep_dir = (ep_desc->bEndpointAddress & USB_EP_DIR_IN)?
80007260:	ec 07 18 00 	cp.b	r7,r6
80007264:	f9 b3 09 01 	movgt	r3,1
80007268:	f9 b3 0a 02 	movle	r3,2
				AVR32_USBB_UPCFG0_PTOKEN_IN:
				AVR32_USBB_UPCFG0_PTOKEN_OUT,
		ep_type = ep_desc->bmAttributes&USB_EP_TYPE_MASK;
8000726c:	fd de c0 02 	bfextu	lr,lr,0x0,0x2
		// Bank choice
		switch(ep_type) {
80007270:	ea 0e 18 00 	cp.b	lr,r5
80007274:	c0 d0       	breq	8000728e <uhd_ep_alloc+0x6a>
80007276:	30 35       	mov	r5,3
80007278:	ea 0e 18 00 	cp.b	lr,r5
8000727c:	c0 70       	breq	8000728a <uhd_ep_alloc+0x66>
8000727e:	30 17       	mov	r7,1
80007280:	ee 0e 18 00 	cp.b	lr,r7
80007284:	c7 e1       	brne	80007380 <uhd_ep_alloc+0x15c>
		case USB_EP_TYPE_ISOCHRONOUS:
			bank = UHD_ISOCHRONOUS_NB_BANK;
			ep_interval = ep_desc->bInterval;
80007286:	17 e5       	ld.ub	r5,r11[0x6]
80007288:	c0 48       	rjmp	80007290 <uhd_ep_alloc+0x6c>
			break;
		case USB_EP_TYPE_INTERRUPT:
			bank = UHD_INTERRUPT_NB_BANK;
			ep_interval = ep_desc->bInterval;
8000728a:	17 e5       	ld.ub	r5,r11[0x6]
8000728c:	c0 38       	rjmp	80007292 <uhd_ep_alloc+0x6e>
8000728e:	0e 95       	mov	r5,r7
80007290:	30 17       	mov	r7,1
		default:
			Assert(false);
			return false;
		}

		uhd_configure_pipe(pipe, ep_interval, ep_addr, ep_type, ep_dir,
80007292:	17 d4       	ld.ub	r4,r11[0x5]
80007294:	ed d6 c0 04 	bfextu	r6,r6,0x0,0x4
80007298:	ad 6e       	lsl	lr,0xc
8000729a:	17 cb       	ld.ub	r11,r11[0x4]
8000729c:	fd e6 11 0e 	or	lr,lr,r6<<0x10
800072a0:	e9 eb 10 8b 	or	r11,r4,r11<<0x8
800072a4:	ab ae       	sbr	lr,0xa
800072a6:	fe 64 05 00 	mov	r4,-129792
800072aa:	fd e3 10 8e 	or	lr,lr,r3<<0x8
800072ae:	ee 06 15 02 	lsl	r6,r7,0x2
800072b2:	fd e5 11 85 	or	r5,lr,r5<<0x18
800072b6:	f6 07 16 08 	lsr	r7,r11,0x8
800072ba:	f2 0e 15 02 	lsl	lr,r9,0x2
800072be:	ef eb 10 87 	or	r7,r7,r11<<0x8
800072c2:	e0 63 04 00 	mov	r3,1024
800072c6:	fc 04 00 0b 	add	r11,lr,r4
800072ca:	5c 77       	castu.h	r7
800072cc:	30 84       	mov	r4,8
800072ce:	ee 04 0c 47 	max	r7,r7,r4
800072d2:	ee 03 0d 47 	min	r7,r7,r3
800072d6:	a1 77       	lsl	r7,0x1
800072d8:	20 17       	sub	r7,1
800072da:	ee 07 12 00 	clz	r7,r7
800072de:	ee 07 11 1c 	rsub	r7,r7,28
800072e2:	e2 16 00 0c 	andl	r6,0xc,COH
800072e6:	eb e7 10 45 	or	r5,r5,r7<<0x4
				le16_to_cpu(ep_desc->wMaxPacketSize),
				bank, AVR32_USBB_UPCFG0_AUTOSW_MASK);
		uhd_allocate_memory(pipe);
		if (!Is_uhd_pipe_configured(pipe)) {
800072ea:	fe 67 05 30 	mov	r7,-129744
		default:
			Assert(false);
			return false;
		}

		uhd_configure_pipe(pipe, ep_interval, ep_addr, ep_type, ep_dir,
800072ee:	eb e6 10 06 	or	r6,r5,r6
800072f2:	97 06       	st.w	r11[0x0],r6
				le16_to_cpu(ep_desc->wMaxPacketSize),
				bank, AVR32_USBB_UPCFG0_AUTOSW_MASK);
		uhd_allocate_memory(pipe);
		if (!Is_uhd_pipe_configured(pipe)) {
800072f4:	fc 07 00 06 	add	r6,lr,r7
		}

		uhd_configure_pipe(pipe, ep_interval, ep_addr, ep_type, ep_dir,
				le16_to_cpu(ep_desc->wMaxPacketSize),
				bank, AVR32_USBB_UPCFG0_AUTOSW_MASK);
		uhd_allocate_memory(pipe);
800072f8:	76 07       	ld.w	r7,r11[0x0]
800072fa:	a1 b7       	sbr	r7,0x1
800072fc:	97 07       	st.w	r11[0x0],r7
		if (!Is_uhd_pipe_configured(pipe)) {
800072fe:	6c 0b       	ld.w	r11,r6[0x0]
80007300:	e6 1b 00 04 	andh	r11,0x4,COH
80007304:	c0 b1       	brne	8000731a <uhd_ep_alloc+0xf6>
			uhd_disable_pipe(pipe);
80007306:	fe 68 00 00 	mov	r8,-131072
8000730a:	5c da       	com	r10
8000730c:	f0 f9 04 1c 	ld.w	r9,r8[1052]
80007310:	16 9c       	mov	r12,r11
80007312:	12 6a       	and	r10,r9
80007314:	f1 4a 04 1c 	st.w	r8[1052],r10
			return false;
80007318:	d8 32       	popm	r0-r7,pc
		}
		uhd_configure_address(pipe, add);
8000731a:	37 f6       	mov	r6,127
8000731c:	f7 d8 c0 02 	bfextu	r11,r8,0x0,0x2
80007320:	e2 19 00 fc 	andl	r9,0xfc,COH
80007324:	a3 7b       	lsl	r11,0x3
80007326:	e0 39 fb dc 	sub	r9,130012
8000732a:	ec 0b 09 4b 	lsl	r11,r6,r11
8000732e:	72 07       	ld.w	r7,r9[0x0]
80007330:	16 96       	mov	r6,r11
80007332:	5c 96       	brev	r6
80007334:	ec 06 12 00 	clz	r6,r6
80007338:	16 87       	andn	r7,r11
8000733a:	f8 06 09 4c 	lsl	r12,r12,r6
8000733e:	f9 eb 00 0b 	and	r11,r12,r11
80007342:	0e 4b       	or	r11,r7
80007344:	93 0b       	st.w	r9[0x0],r11
		uhd_enable_pipe(pipe);
80007346:	fe 69 00 00 	mov	r9,-131072
8000734a:	f2 fb 04 1c 	ld.w	r11,r9[1052]
8000734e:	16 4a       	or	r10,r11
80007350:	f3 4a 04 1c 	st.w	r9[1052],r10

		// Enable endpoint interrupts
		uhd_enable_pipe_dma_interrupt(pipe);
80007354:	30 0b       	mov	r11,0
80007356:	ea 1b 02 00 	orh	r11,0x200
8000735a:	f0 ca 00 01 	sub	r10,r8,1
8000735e:	f6 0a 09 4a 	lsl	r10,r11,r10
80007362:	f3 4a 04 18 	st.w	r9[1048],r10
		uhd_enable_stall_interrupt(pipe);
80007366:	e0 3e fa 10 	sub	lr,129552
8000736a:	34 0a       	mov	r10,64
8000736c:	9d 0a       	st.w	lr[0x0],r10
		uhd_enable_pipe_error_interrupt(pipe);
8000736e:	9d 04       	st.w	lr[0x0],r4
		uhd_enable_pipe_interrupt(pipe);
80007370:	e0 6a 01 00 	mov	r10,256
80007374:	30 1c       	mov	r12,1
80007376:	f4 08 09 48 	lsl	r8,r10,r8
8000737a:	f3 48 04 18 	st.w	r9[1048],r8
		return true;
8000737e:	d8 32       	popm	r0-r7,pc
80007380:	d8 3a       	popm	r0-r7,pc,r12=0

80007382 <uhd_ep0_alloc>:
	uhd_send_resume();
	uhd_sleep_mode(UHD_STATE_IDLE);
}

bool uhd_ep0_alloc(usb_add_t add, uint8_t ep_size)
{
80007382:	d4 01       	pushm	lr
	if (ep_size < 8) {
80007384:	30 78       	mov	r8,7
80007386:	f0 0b 18 00 	cp.b	r11,r8
8000738a:	e0 8b 00 03 	brhi	80007390 <uhd_ep0_alloc+0xe>
8000738e:	d8 0a       	popm	pc,r12=0
#error TODO Add USB address in a list
		return true;
	}
#endif

	uhd_enable_pipe(0);
80007390:	fe 68 00 00 	mov	r8,-131072
80007394:	f0 f9 04 1c 	ld.w	r9,r8[1052]
80007398:	a1 a9       	sbr	r9,0x0
8000739a:	f1 49 04 1c 	st.w	r8[1052],r9
	uhd_configure_pipe(0, // Pipe 0
8000739e:	30 8e       	mov	lr,8
800073a0:	fe 69 05 00 	mov	r9,-129792
800073a4:	f6 0e 0c 4b 	max	r11,r11,lr
800073a8:	e0 6a 04 00 	mov	r10,1024
800073ac:	f6 0a 0d 4a 	min	r10,r11,r10
800073b0:	a1 7a       	lsl	r10,0x1
800073b2:	20 1a       	sub	r10,1
800073b4:	f4 0a 12 00 	clz	r10,r10
800073b8:	f4 0a 11 1c 	rsub	r10,r10,28
800073bc:	a5 6a       	lsl	r10,0x4
800073be:	93 0a       	st.w	r9[0x0],r10
#else
			ep_size,
#endif
			AVR32_USBB_UECFG0_EPBK_SINGLE, 0);

	uhd_allocate_memory(0);
800073c0:	72 0a       	ld.w	r10,r9[0x0]
800073c2:	a1 ba       	sbr	r10,0x1
800073c4:	93 0a       	st.w	r9[0x0],r10
	if (!Is_uhd_pipe_configured(0)) {
800073c6:	fe 69 05 30 	mov	r9,-129744
800073ca:	72 09       	ld.w	r9,r9[0x0]
800073cc:	e6 19 00 04 	andh	r9,0x4,COH
800073d0:	c0 81       	brne	800073e0 <uhd_ep0_alloc+0x5e>
		uhd_disable_pipe(0);
800073d2:	12 9c       	mov	r12,r9
800073d4:	f0 f9 04 1c 	ld.w	r9,r8[1052]
800073d8:	a1 c9       	cbr	r9,0x0
800073da:	f1 49 04 1c 	st.w	r8[1052],r9
		return false;
800073de:	d8 02       	popm	pc
	}
	uhd_configure_address(0, add);
800073e0:	fe 6a 04 24 	mov	r10,-130012
800073e4:	f9 dc c0 07 	bfextu	r12,r12,0x0,0x7
800073e8:	74 09       	ld.w	r9,r10[0x0]
800073ea:	e0 19 ff 80 	andl	r9,0xff80
800073ee:	f9 e9 10 09 	or	r9,r12,r9
800073f2:	95 09       	st.w	r10[0x0],r9

	// Always enable stall and error interrupts of control endpoint
	uhd_enable_stall_interrupt(0);
800073f4:	fe 69 05 f0 	mov	r9,-129552
800073f8:	34 0a       	mov	r10,64
800073fa:	93 0a       	st.w	r9[0x0],r10
	uhd_enable_pipe_error_interrupt(0);
800073fc:	93 0e       	st.w	r9[0x0],lr
	uhd_enable_pipe_interrupt(0);
800073fe:	30 1c       	mov	r12,1
80007400:	e0 69 01 00 	mov	r9,256
80007404:	f1 49 04 18 	st.w	r8[1048],r9
	return true;
}
80007408:	d8 02       	popm	pc
8000740a:	d7 03       	nop

8000740c <otg_dual_disable>:
# endif
}


void otg_dual_disable(void)
{
8000740c:	d4 01       	pushm	lr
	if (!otg_initialized) {
8000740e:	e0 6a 08 f0 	mov	r10,2288
80007412:	30 0b       	mov	r11,0
80007414:	15 88       	ld.ub	r8,r10[0x0]
80007416:	f6 08 18 00 	cp.b	r8,r11
		return; // Dual role not initialized
	}
	otg_initialized = false;

	// Do not authorize asynchronous USB interrupts
	AVR32_PM.AWEN.usb_waken = 0;
8000741a:	c1 b0       	breq	80007450 <otg_dual_disable+0x44>
8000741c:	fe 78 0c 00 	mov	r8,-62464
80007420:	30 0c       	mov	r12,0
80007422:	f0 f9 01 44 	ld.w	r9,r8[324]
80007426:	f3 dc d0 01 	bfins	r9,r12,0x0,0x1
8000742a:	f1 49 01 44 	st.w	r8[324],r9
	otg_unfreeze_clock();
8000742e:	fe 68 08 00 	mov	r8,-129024
80007432:	70 09       	ld.w	r9,r8[0x0]
80007434:	af c9       	cbr	r9,0xe
# ifdef USB_ID
	otg_disable_id_interrupt();
80007436:	91 09       	st.w	r8[0x0],r9
80007438:	70 09       	ld.w	r9,r8[0x0]
8000743a:	a1 c9       	cbr	r9,0x0
# endif
	otg_disable();
8000743c:	91 09       	st.w	r8[0x0],r9
8000743e:	70 09       	ld.w	r9,r8[0x0]
80007440:	af d9       	cbr	r9,0xf
void otg_dual_disable(void)
{
	if (!otg_initialized) {
		return; // Dual role not initialized
	}
	otg_initialized = false;
80007442:	91 09       	st.w	r8[0x0],r9
	otg_unfreeze_clock();
# ifdef USB_ID
	otg_disable_id_interrupt();
# endif
	otg_disable();
	otg_disable_pad();
80007444:	b4 8b       	st.b	r10[0x0],r11
80007446:	70 09       	ld.w	r9,r8[0x0]
80007448:	ad c9       	cbr	r9,0xc
	sysclk_disable_usb();
8000744a:	91 09       	st.w	r8[0x0],r9
8000744c:	e0 a0 07 7e 	rcall	80008348 <sysclk_disable_usb>
80007450:	d8 02       	popm	pc
80007452:	d7 03       	nop

80007454 <uhd_disable>:
80007454:	d4 21       	pushm	r4-r7,lr
80007456:	fe 69 08 04 	mov	r9,-129020
	cpu_irq_restore(flags);
}


void uhd_disable(bool b_id_stop)
{
8000745a:	18 96       	mov	r6,r12
	irqflags_t flags;

	// Check USB clock ready after a potential sleep mode < IDLE
	while (!Is_otg_clock_usable());
8000745c:	72 08       	ld.w	r8,r9[0x0]
8000745e:	ed b8 00 0e 	bld	r8,0xe
80007462:	cf d1       	brne	8000745c <uhd_disable+0x8>
	otg_unfreeze_clock();
80007464:	fe 67 08 00 	mov	r7,-129024
80007468:	6e 08       	ld.w	r8,r7[0x0]
8000746a:	af c8       	cbr	r8,0xe
8000746c:	8f 08       	st.w	r7[0x0],r8

	// Disable Vbus change and error interrupts
	Clr_bits(AVR32_USBB.usbcon, AVR32_USBB_USBCON_VBUSTE_MASK
8000746e:	fe 68 00 00 	mov	r8,-131072
80007472:	f0 f9 08 00 	ld.w	r9,r8[2048]
80007476:	e0 19 ff f5 	andl	r9,0xfff5
8000747a:	f1 49 08 00 	st.w	r8[2048],r9
			| AVR32_USBB_USBCON_VBERRE_MASK);

	// Disable main control interrupt
	// (Connection, disconnection, SOF and reset)
	AVR32_USBB.uhinteclr = AVR32_USBB_UHINTECLR_DCONNIEC_MASK
8000747e:	37 f9       	mov	r9,127
80007480:	f1 49 04 14 	st.w	r8[1044],r9
			| AVR32_USBB_UHINTECLR_HSOFIEC_MASK
			| AVR32_USBB_UHINTECLR_RSTIEC_MASK
			| AVR32_USBB_UHINTECLR_HWUPIEC_MASK
			| AVR32_USBB_UHINTECLR_RSMEDIEC_MASK
			| AVR32_USBB_UHINTECLR_RXRSMIEC_MASK;
	uhd_disable_sof();
80007484:	fe 69 04 00 	mov	r9,-130048
80007488:	72 08       	ld.w	r8,r9[0x0]
8000748a:	a9 c8       	cbr	r8,0x8
8000748c:	93 08       	st.w	r9[0x0],r8
	uhd_disable_vbus();
8000748e:	fe 68 08 08 	mov	r8,-129016
80007492:	e0 69 02 00 	mov	r9,512
	uhc_notify_connection(false);
80007496:	30 0c       	mov	r12,0
			| AVR32_USBB_UHINTECLR_RSTIEC_MASK
			| AVR32_USBB_UHINTECLR_HWUPIEC_MASK
			| AVR32_USBB_UHINTECLR_RSMEDIEC_MASK
			| AVR32_USBB_UHINTECLR_RXRSMIEC_MASK;
	uhd_disable_sof();
	uhd_disable_vbus();
80007498:	91 09       	st.w	r8[0x0],r9
	uhc_notify_connection(false);
8000749a:	e0 a0 06 f3 	rcall	80008280 <uhc_notify_connection>
	otg_freeze_clock();
8000749e:	6e 08       	ld.w	r8,r7[0x0]
800074a0:	af a8       	sbr	r8,0xe
800074a2:	8f 08       	st.w	r7[0x0],r8

#ifdef USB_ID
	uhd_sleep_mode(UHD_STATE_WAIT_ID_HOST);
	if (!b_id_stop) {
800074a4:	58 06       	cp.w	r6,0
800074a6:	c0 90       	breq	800074b8 <uhd_disable+0x64>

static inline irqflags_t cpu_irq_save(void)
{
	irqflags_t flags;

	flags = sysreg_read(AVR32_SR);
800074a8:	e1 b7 00 00 	mfsr	r7,0x0
	cpu_irq_disable();
800074ac:	d3 03       	ssrf	0x10
		return; // No need to disable host, it is done automatically by hardware
	}
#endif

	flags = cpu_irq_save();
	otg_dual_disable();
800074ae:	ca ff       	rcall	8000740c <otg_dual_disable>
800074b0:	e6 17 00 01 	andh	r7,0x1,COH
static inline void cpu_irq_restore(irqflags_t flags)
{
	barrier();

   /* Restore the global IRQ mask status flag if it was previously set */
   if ( cpu_irq_is_enabled_flags(flags) ) {
800074b4:	c0 21       	brne	800074b8 <uhd_disable+0x64>
800074b6:	d5 03       	csrf	0x10
      cpu_irq_enable();
800074b8:	d8 22       	popm	r4-r7,pc
   }

	barrier();
800074ba:	d7 03       	nop

800074bc <otg_dual_enable>:
800074bc:	d4 21       	pushm	r4-r7,lr
800074be:	e0 68 08 f0 	mov	r8,2288
800074c2:	30 09       	mov	r9,0
	otg_data_memory_barrier();
}

bool otg_dual_enable(void)
{
	if (otg_initialized) {
800074c4:	11 8a       	ld.ub	r10,r8[0x0]
800074c6:	f2 0a 18 00 	cp.b	r10,r9
800074ca:	c0 20       	breq	800074ce <otg_dual_enable+0x12>
		return false; // Dual role already initialized
	}
	otg_initialized = true;
800074cc:	d8 2a       	popm	r4-r7,pc,r12=0
800074ce:	30 19       	mov	r9,1

	//* Enable USB hardware clock
	sysclk_enable_usb();
800074d0:	b0 89       	st.b	r8[0x0],r9
800074d2:	e0 a0 07 d3 	rcall	80008478 <sysclk_enable_usb>

	//* Link USB interrupt on OTG interrupt in dual role
	irq_register_handler(otg_interrupt, AVR32_USBB_IRQ, UHD_USB_INT_LEVEL);
800074d6:	30 0a       	mov	r10,0
800074d8:	e0 6b 02 20 	mov	r11,544
800074dc:	fe cc fe c8 	sub	r12,pc,-312
 *  AVR32_PM_AWEN_xxxxWEN_MASK in the part-specific header file under
 *  "toolchain folder"/avr32/inc(lude)/avr32/)
 */
__always_inline static void pm_asyn_wake_up_enable(unsigned long awen_mask)
{
  AVR32_PM.awen |= awen_mask;
800074e0:	fe b0 f7 e4 	rcall	800064a8 <INTC_register_interrupt>
800074e4:	fe 79 0c 00 	mov	r9,-62464
800074e8:	f2 f8 01 44 	ld.w	r8,r9[324]
800074ec:	a1 a8       	sbr	r8,0x0
	pm_asyn_wake_up_enable(AVR32_PM_AWEN_USB_WAKEN_MASK);

# ifdef USB_ID
	// By default USBB is already configured with ID pin enable
	// The USBB must be enabled to provide interrupt
	otg_input_id_pin();
800074ee:	f3 48 01 44 	st.w	r9[324],r8
800074f2:	fe 78 10 00 	mov	r8,-61440
800074f6:	30 09       	mov	r9,0
800074f8:	ea 19 04 00 	orh	r9,0x400
800074fc:	91 69       	st.w	r8[0x18],r9
800074fe:	91 a9       	st.w	r8[0x28],r9
80007500:	91 29       	st.w	r8[0x8],r9
	otg_unfreeze_clock();
80007502:	f1 49 00 74 	st.w	r8[116],r9
80007506:	fe 68 08 00 	mov	r8,-129024
8000750a:	70 09       	ld.w	r9,r8[0x0]
	otg_enable();
8000750c:	af c9       	cbr	r9,0xe
8000750e:	91 09       	st.w	r8[0x0],r9
80007510:	70 09       	ld.w	r9,r8[0x0]
	otg_enable_id_interrupt();
80007512:	af b9       	sbr	r9,0xf
80007514:	91 09       	st.w	r8[0x0],r9
80007516:	70 09       	ld.w	r9,r8[0x0]
	otg_ack_id_transition();
80007518:	a1 a9       	sbr	r9,0x0
8000751a:	91 09       	st.w	r8[0x0],r9
8000751c:	30 17       	mov	r7,1
8000751e:	fe 69 08 08 	mov	r9,-129016
	otg_freeze_clock();
80007522:	93 07       	st.w	r9[0x0],r7
80007524:	70 09       	ld.w	r9,r8[0x0]
	if (Is_otg_id_device()) {
80007526:	af a9       	sbr	r9,0xe
80007528:	91 09       	st.w	r8[0x0],r9
8000752a:	fe 68 08 04 	mov	r8,-129020
8000752e:	70 08       	ld.w	r8,r8[0x0]
80007530:	ed b8 00 0a 	bld	r8,0xa
		uhd_sleep_mode(UHD_STATE_WAIT_ID_HOST);
		UHC_MODE_CHANGE(false);
80007534:	c0 61       	brne	80007540 <otg_dual_enable+0x84>
80007536:	30 0c       	mov	r12,0
80007538:	fe b0 f2 fe 	rcall	80005b34 <usb_mode_change>
		udc_start();
	} else {
		UHC_MODE_CHANGE(true);
8000753c:	0e 9c       	mov	r12,r7
8000753e:	d8 22       	popm	r4-r7,pc
80007540:	0e 9c       	mov	r12,r7
		uhc_start();
80007542:	fe b0 f2 f9 	rcall	80005b34 <usb_mode_change>
80007546:	e0 a0 04 77 	rcall	80007e34 <uhc_start>
	return true;  // ID pin management has been enabled
# else
	uhd_sleep_mode(UHD_STATE_OFF);
	return false; // ID pin management has not been enabled
# endif
}
8000754a:	0e 9c       	mov	r12,r7
8000754c:	d8 22       	popm	r4-r7,pc
8000754e:	d7 03       	nop

80007550 <uhd_enable>:
80007550:	d4 21       	pushm	r4-r7,lr
80007552:	e1 b7 00 00 	mfsr	r7,0x0
80007556:	d3 03       	ssrf	0x10
80007558:	cb 2f       	rcall	800074bc <otg_dual_enable>
8000755a:	c5 71       	brne	80007608 <uhd_enable+0xb8>
8000755c:	fe 6b 08 04 	mov	r11,-129020
80007560:	76 09       	ld.w	r9,r11[0x0]
80007562:	e2 19 04 00 	andl	r9,0x400,COH
		return;
	}

#ifdef USB_ID
	// Check that the host mode is selected by ID pin
	if (!Is_otg_id_host()) {
80007566:	c5 11       	brne	80007608 <uhd_enable+0xb8>
80007568:	fe 78 10 00 	mov	r8,-61440
	otg_force_host_mode();
#endif

	// Enable USB hardware
#ifdef USB_VBOF
	uhd_output_vbof_pin();
8000756c:	30 0a       	mov	r10,0
8000756e:	ea 1a 08 00 	orh	r10,0x800
80007572:	91 6a       	st.w	r8[0x18],r10
80007574:	91 aa       	st.w	r8[0x28],r10
80007576:	91 2a       	st.w	r8[0x8],r10
80007578:	f1 4a 00 88 	st.w	r8[136],r10
8000757c:	f1 4a 00 78 	st.w	r8[120],r10
80007580:	fe 68 08 00 	mov	r8,-129024
# if USB_VBOF_ACTIVE_LEVEL == HIGH
	uhd_set_vbof_active_high();
# else // USB_VBOF_ACTIVE_LEVEL == LOW
	uhd_set_vbof_active_low();
80007584:	70 0a       	ld.w	r10,r8[0x0]
80007586:	ad ba       	sbr	r10,0xd
80007588:	91 0a       	st.w	r8[0x0],r10
8000758a:	70 0a       	ld.w	r10,r8[0x0]
# endif
#endif
	otg_enable_pad();
8000758c:	ad aa       	sbr	r10,0xc
8000758e:	91 0a       	st.w	r8[0x0],r10
80007590:	70 0a       	ld.w	r10,r8[0x0]
	otg_enable();
80007592:	af ba       	sbr	r10,0xf
80007594:	91 0a       	st.w	r8[0x0],r10
80007596:	e0 6a 1c b4 	mov	r10,7348

	uhd_ctrl_request_first = NULL;
	uhd_ctrl_request_last = NULL;
	uhd_ctrl_request_timeout = 0;
8000759a:	b4 09       	st.h	r10[0x0],r9
	uhd_suspend_start = 0;
	uhd_resume_start = 0;
	uhd_b_suspend_requested = false;

	otg_unfreeze_clock();
8000759c:	70 0a       	ld.w	r10,r8[0x0]
8000759e:	af ca       	cbr	r10,0xe
800075a0:	91 0a       	st.w	r8[0x0],r10
	uhd_disable_high_speed_mode();
#  endif
#endif

	// Clear all interrupts that may have been set by a previous host mode
	AVR32_USBB.uhintclr = AVR32_USBB_UHINTCLR_DCONNIC_MASK
800075a2:	37 fa       	mov	r10,127
800075a4:	fe 68 00 00 	mov	r8,-131072
800075a8:	f1 4a 04 08 	st.w	r8[1032],r10
			| AVR32_USBB_UHINTCLR_DDISCIC_MASK | AVR32_USBB_UHINTCLR_HSOFIC_MASK
			| AVR32_USBB_UHINTCLR_HWUPIC_MASK | AVR32_USBB_UHINTCLR_RSMEDIC_MASK
			| AVR32_USBB_UHINTCLR_RSTIC_MASK | AVR32_USBB_UHINTCLR_RXRSMIC_MASK;
	otg_ack_vbus_transition();
800075ac:	fe 6a 08 08 	mov	r10,-129016
800075b0:	30 2c       	mov	r12,2
800075b2:	95 0c       	st.w	r10[0x0],r12

	// Enable Vbus change and error interrupts
	// Disable automatic Vbus control after Vbus error
	Set_bits(AVR32_USBB.usbcon, AVR32_USBB_USBCON_VBUSHWC_MASK
800075b4:	f0 fa 08 00 	ld.w	r10,r8[2048]
800075b8:	e8 1a 01 0a 	orl	r10,0x10a
800075bc:	f1 4a 08 00 	st.w	r8[2048],r10
# endif
#endif
	otg_enable_pad();
	otg_enable();

	uhd_ctrl_request_first = NULL;
800075c0:	e0 6a 1c a8 	mov	r10,7336
800075c4:	12 98       	mov	r8,r9
	uhd_ctrl_request_last = NULL;
800075c6:	95 09       	st.w	r10[0x0],r9
800075c8:	e0 6a 1c b0 	mov	r10,7344
	uhd_ctrl_request_timeout = 0;
	uhd_suspend_start = 0;
800075cc:	95 09       	st.w	r10[0x0],r9
	uhd_resume_start = 0;
800075ce:	e0 69 09 70 	mov	r9,2416
	uhd_b_suspend_requested = false;
800075d2:	b2 88       	st.b	r9[0x0],r8
800075d4:	e0 69 09 72 	mov	r9,2418
	// Enable Vbus change and error interrupts
	// Disable automatic Vbus control after Vbus error
	Set_bits(AVR32_USBB.usbcon, AVR32_USBB_USBCON_VBUSHWC_MASK
			|AVR32_USBB_USBCON_VBUSTE_MASK
			|AVR32_USBB_USBCON_VBERRE_MASK);
	uhd_enable_vbus();
800075d8:	b2 88       	st.b	r9[0x0],r8
800075da:	e0 69 09 73 	mov	r9,2419
800075de:	b2 88       	st.b	r9[0x0],r8

	// Force Vbus interrupt when Vbus is always high
	// This is possible due to a short timing between a Host mode stop/start.
	if (Is_otg_vbus_high()) {
800075e0:	e0 68 02 00 	mov	r8,512
800075e4:	fe 69 08 0c 	mov	r9,-129012
		otg_raise_vbus_transition();
800075e8:	93 08       	st.w	r9[0x0],r8
	}

	// Enable main control interrupt
	// Connection, SOF and reset
	AVR32_USBB.uhinteset = AVR32_USBB_UHINTESET_DCONNIES_MASK
800075ea:	76 08       	ld.w	r8,r11[0x0]
800075ec:	ed b8 00 0b 	bld	r8,0xb
800075f0:	c0 21       	brne	800075f4 <uhd_enable+0xa4>
800075f2:	93 0c       	st.w	r9[0x0],r12
			| AVR32_USBB_UHINTESET_HSOFIES_MASK
			| AVR32_USBB_UHINTESET_RSTIES_MASK;

	otg_freeze_clock();
800075f4:	32 59       	mov	r9,37
800075f6:	fe 68 00 00 	mov	r8,-131072
800075fa:	f1 49 04 18 	st.w	r8[1048],r9
static inline void cpu_irq_restore(irqflags_t flags)
{
	barrier();

   /* Restore the global IRQ mask status flag if it was previously set */
   if ( cpu_irq_is_enabled_flags(flags) ) {
800075fe:	fe 69 08 00 	mov	r9,-129024
80007602:	72 08       	ld.w	r8,r9[0x0]
      cpu_irq_enable();
80007604:	af a8       	sbr	r8,0xe
   }

	barrier();
80007606:	93 08       	st.w	r9[0x0],r8
80007608:	e6 17 00 01 	andh	r7,0x1,COH
8000760c:	c0 21       	brne	80007610 <uhd_enable+0xc0>
8000760e:	d5 03       	csrf	0x10
80007610:	d8 22       	popm	r4-r7,pc
80007612:	d7 03       	nop

80007614 <otg_interrupt>:
80007614:	d4 31       	pushm	r0-r7,lr
80007616:	fe 68 08 04 	mov	r8,-129020
8000761a:	70 09       	ld.w	r9,r8[0x0]
8000761c:	ed b9 00 00 	bld	r9,0x0
80007620:	c2 51       	brne	8000766a <otg_interrupt+0x56>
80007622:	70 09       	ld.w	r9,r8[0x0]
{
	bool b_mode_device;

#ifdef USB_ID
	if (Is_otg_id_transition()) {
		while (!Is_otg_clock_usable());
80007624:	ed b9 00 0e 	bld	r9,0xe
80007628:	cf d1       	brne	80007622 <otg_interrupt+0xe>
		otg_unfreeze_clock();
8000762a:	fe 68 08 00 	mov	r8,-129024
8000762e:	70 09       	ld.w	r9,r8[0x0]
80007630:	af c9       	cbr	r9,0xe
80007632:	91 09       	st.w	r8[0x0],r9
		otg_ack_id_transition();
80007634:	30 1c       	mov	r12,1
80007636:	fe 69 08 08 	mov	r9,-129016
8000763a:	93 0c       	st.w	r9[0x0],r12
		otg_freeze_clock();
8000763c:	70 09       	ld.w	r9,r8[0x0]
8000763e:	af a9       	sbr	r9,0xe
80007640:	91 09       	st.w	r8[0x0],r9
		if (Is_otg_id_device()) {
80007642:	fe 68 08 04 	mov	r8,-129020
80007646:	70 08       	ld.w	r8,r8[0x0]
80007648:	ed b8 00 0a 	bld	r8,0xa
8000764c:	c0 91       	brne	8000765e <otg_interrupt+0x4a>
			uhc_stop(false);
8000764e:	30 0c       	mov	r12,0
80007650:	e0 a0 03 ee 	rcall	80007e2c <uhc_stop>
			UHC_MODE_CHANGE(false);
80007654:	30 0c       	mov	r12,0
80007656:	fe b0 f2 6f 	rcall	80005b34 <usb_mode_change>
8000765a:	e0 8f 03 2e 	bral	80007cb6 <otg_interrupt+0x6a2>
			udc_start();
		} else {
			udc_stop();
			UHC_MODE_CHANGE(true);
8000765e:	fe b0 f2 6b 	rcall	80005b34 <usb_mode_change>
			uhc_start();
80007662:	e0 a0 03 e9 	rcall	80007e34 <uhc_start>
80007666:	e0 8f 03 28 	bral	80007cb6 <otg_interrupt+0x6a2>
		}
		return;
	}
	b_mode_device = Is_otg_id_device();
8000766a:	70 08       	ld.w	r8,r8[0x0]
#else
	b_mode_device = Is_otg_device_mode_forced();
#endif

	// Redirection to host or device interrupt
	if (b_mode_device) {
8000766c:	ed b8 00 0a 	bld	r8,0xa
80007670:	e0 80 03 1f 	breq	80007cae <otg_interrupt+0x69a>
static void uhd_interrupt(void)
{
	uint8_t pipe_int;

	// Manage SOF interrupt
	if (Is_uhd_sof()) {
80007674:	fe 6a 04 04 	mov	r10,-130044
80007678:	74 08       	ld.w	r8,r10[0x0]
8000767a:	ed b8 00 05 	bld	r8,0x5
8000767e:	e0 81 00 83 	brne	80007784 <otg_interrupt+0x170>
		uhd_ack_sof();
80007682:	32 09       	mov	r9,32
80007684:	fe 68 04 08 	mov	r8,-130040
80007688:	91 09       	st.w	r8[0x0],r9
			return;
		}
	}

	// Manage a delay to enter in suspend
	if (uhd_suspend_start) {
8000768a:	e0 69 09 70 	mov	r9,2416
8000768e:	13 88       	ld.ub	r8,r9[0x0]
80007690:	58 08       	cp.w	r8,0
		if (--uhd_suspend_start == 0) {
80007692:	c2 80       	breq	800076e2 <otg_interrupt+0xce>
80007694:	20 18       	sub	r8,1
80007696:	5c 58       	castu.b	r8
80007698:	b2 88       	st.b	r9[0x0],r8
8000769a:	c0 80       	breq	800076aa <otg_interrupt+0x96>
8000769c:	e0 8f 03 09 	bral	80007cae <otg_interrupt+0x69a>
#ifdef AVR32_USBB_USBSTA_SPEED_HIGH // If UTMI
			while (115<uhd_get_frame_position()) {
#else
			while (185<uhd_get_frame_position()) {
#endif
				if (Is_uhd_disconnection()) {
800076a0:	74 08       	ld.w	r8,r10[0x0]
800076a2:	ed b8 00 01 	bld	r8,0x1
800076a6:	c0 41       	brne	800076ae <otg_interrupt+0x9a>
			// then wait end of SOF generation
			// to be sure that disable SOF has been accepted
#ifdef AVR32_USBB_USBSTA_SPEED_HIGH // If UTMI
			while (115<uhd_get_frame_position()) {
#else
			while (185<uhd_get_frame_position()) {
800076a8:	c0 a8       	rjmp	800076bc <otg_interrupt+0xa8>
800076aa:	fe 69 04 20 	mov	r9,-130016
800076ae:	72 08       	ld.w	r8,r9[0x0]
800076b0:	f1 d8 c2 08 	bfextu	r8,r8,0x10,0x8
800076b4:	e0 48 00 b9 	cp.w	r8,185
800076b8:	fe 9b ff f4 	brhi	800076a0 <otg_interrupt+0x8c>
#endif
				if (Is_uhd_disconnection()) {
					break;
				}
			}
			uhd_disable_sof();
800076bc:	fe 69 04 00 	mov	r9,-130048
800076c0:	72 08       	ld.w	r8,r9[0x0]
800076c2:	a9 c8       	cbr	r8,0x8

			// Ack previous wakeup and resumes interrupts
			AVR32_USBB.uhintclr = AVR32_USBB_UHINTCLR_HWUPIC_MASK
800076c4:	93 08       	st.w	r9[0x0],r8
800076c6:	fe 68 00 00 	mov	r8,-131072
800076ca:	35 89       	mov	r9,88
800076cc:	f1 49 04 08 	st.w	r8[1032],r9
					|AVR32_USBB_UHINTCLR_RSMEDIC_MASK
					|AVR32_USBB_UHINTCLR_RXRSMIC_MASK;

			// Enable wakeup/resumes interrupts
			AVR32_USBB.uhinteset = AVR32_USBB_UHINTESET_HWUPIES_MASK
800076d0:	f1 49 04 18 	st.w	r8[1048],r9
					|AVR32_USBB_UHINTESET_RSMEDIES_MASK
					|AVR32_USBB_UHINTESET_RXRSMIES_MASK;

			otg_freeze_clock();
800076d4:	fe 69 08 00 	mov	r9,-129024
800076d8:	72 08       	ld.w	r8,r9[0x0]
800076da:	af a8       	sbr	r8,0xe
800076dc:	93 08       	st.w	r9[0x0],r8
800076de:	e0 8f 02 e8 	bral	80007cae <otg_interrupt+0x69a>
			uhd_sleep_mode(UHD_STATE_SUSPEND);
		}
		return; // Abort SOF events
	}
	// Manage a delay to exit of suspend
	if (uhd_resume_start) {
800076e2:	e0 69 09 72 	mov	r9,2418
800076e6:	13 88       	ld.ub	r8,r9[0x0]
		if (--uhd_resume_start == 0) {
800076e8:	58 08       	cp.w	r8,0
800076ea:	c1 b0       	breq	80007720 <otg_interrupt+0x10c>
800076ec:	20 18       	sub	r8,1
800076ee:	5c 58       	castu.b	r8
800076f0:	b2 88       	st.b	r9[0x0],r8
800076f2:	e0 81 02 de 	brne	80007cae <otg_interrupt+0x69a>
			// Restore pipes unfreezed
			for (uint8_t pipe = 1; pipe < AVR32_USBB_EPT_NUM; pipe++) {
				if ((uhd_pipes_unfreeze >> pipe) & 0x01) {
800076f6:	fe 69 06 24 	mov	r9,-129500
					uhd_unfreeze_pipe(pipe);
800076fa:	e0 6b 09 71 	mov	r11,2417
	// Manage a delay to exit of suspend
	if (uhd_resume_start) {
		if (--uhd_resume_start == 0) {
			// Restore pipes unfreezed
			for (uint8_t pipe = 1; pipe < AVR32_USBB_EPT_NUM; pipe++) {
				if ((uhd_pipes_unfreeze >> pipe) & 0x01) {
800076fe:	e2 6a 00 00 	mov	r10,131072
80007702:	2f f8       	sub	r8,-1
80007704:	17 8c       	ld.ub	r12,r11[0x0]
80007706:	f8 08 08 4c 	asr	r12,r12,r8
					uhd_unfreeze_pipe(pipe);
8000770a:	ed bc 00 00 	bld	r12,0x0
	}
	// Manage a delay to exit of suspend
	if (uhd_resume_start) {
		if (--uhd_resume_start == 0) {
			// Restore pipes unfreezed
			for (uint8_t pipe = 1; pipe < AVR32_USBB_EPT_NUM; pipe++) {
8000770e:	c0 21       	brne	80007712 <otg_interrupt+0xfe>
80007710:	93 0a       	st.w	r9[0x0],r10
				if ((uhd_pipes_unfreeze >> pipe) & 0x01) {
					uhd_unfreeze_pipe(pipe);
				}
			}
			uhc_notify_resume();
80007712:	2f c9       	sub	r9,-4
80007714:	58 68       	cp.w	r8,6
80007716:	cf 61       	brne	80007702 <otg_interrupt+0xee>
80007718:	e0 a0 03 9c 	rcall	80007e50 <uhc_notify_resume>
		}
		return; // Abort SOF events
	}
	// Manage the timeout on endpoint control transfer
	if (uhd_ctrl_request_timeout) {
8000771c:	e0 8f 02 c9 	bral	80007cae <otg_interrupt+0x69a>
80007720:	e0 68 1c b4 	mov	r8,7348
		// Setup request on-going
		if (--uhd_ctrl_request_timeout == 0) {
80007724:	90 09       	ld.sh	r9,r8[0x0]
80007726:	58 09       	cp.w	r9,0
80007728:	c0 f0       	breq	80007746 <otg_interrupt+0x132>
8000772a:	90 09       	ld.sh	r9,r8[0x0]
8000772c:	20 19       	sub	r9,1
			// Stop request
			uhd_freeze_pipe(0);
8000772e:	b0 09       	st.h	r8[0x0],r9
80007730:	90 08       	ld.sh	r8,r8[0x0]
80007732:	58 08       	cp.w	r8,0
80007734:	c0 91       	brne	80007746 <otg_interrupt+0x132>
			uhd_ctrl_request_end(UHD_TRANS_TIMEOUT);
80007736:	e2 69 00 00 	mov	r9,131072
8000773a:	fe 68 05 f0 	mov	r8,-129552
8000773e:	30 7c       	mov	r12,7
80007740:	91 09       	st.w	r8[0x0],r9
	}
	// Manage the timeouts on endpoint transfer
	uhd_pipe_job_t *ptr_job;
	for (uint8_t pipe = 1; pipe < AVR32_USBB_EPT_NUM; pipe++) {
		ptr_job = &uhd_pipe_job[pipe-1];
		if (ptr_job->busy == true) {
80007742:	fe b0 fc 4f 	rcall	80006fe0 <uhd_ctrl_request_end>
80007746:	e0 67 08 f8 	mov	r7,2296
			if (ptr_job->timeout) {
				// Timeout enabled on this job
				if (--ptr_job->timeout == 0) {
8000774a:	30 06       	mov	r6,0
8000774c:	6e 08       	ld.w	r8,r7[0x0]
8000774e:	58 08       	cp.w	r8,0
	// Manage the timeouts on endpoint transfer
	uhd_pipe_job_t *ptr_job;
	for (uint8_t pipe = 1; pipe < AVR32_USBB_EPT_NUM; pipe++) {
		ptr_job = &uhd_pipe_job[pipe-1];
		if (ptr_job->busy == true) {
			if (ptr_job->timeout) {
80007750:	c0 f4       	brge	8000776e <otg_interrupt+0x15a>
80007752:	8e 19       	ld.sh	r9,r7[0x2]
				// Timeout enabled on this job
				if (--ptr_job->timeout == 0) {
80007754:	f2 c8 00 01 	sub	r8,r9,1
80007758:	5c 88       	casts.h	r8
					// Abort job
					uhd_ep_abort_pipe(pipe,UHD_TRANS_TIMEOUT);
8000775a:	58 09       	cp.w	r9,0
8000775c:	c0 90       	breq	8000776e <otg_interrupt+0x15a>
8000775e:	ae 18       	st.h	r7[0x2],r8
80007760:	58 08       	cp.w	r8,0
80007762:	c0 61       	brne	8000776e <otg_interrupt+0x15a>
80007764:	ec cc ff ff 	sub	r12,r6,-1
			uhd_ctrl_request_end(UHD_TRANS_TIMEOUT);
		}
	}
	// Manage the timeouts on endpoint transfer
	uhd_pipe_job_t *ptr_job;
	for (uint8_t pipe = 1; pipe < AVR32_USBB_EPT_NUM; pipe++) {
80007768:	30 7b       	mov	r11,7
8000776a:	fe b0 fa fd 	rcall	80006d64 <uhd_ep_abort_pipe>
				}
			}
		}
	}
	// Notify the UHC
	uhc_notify_sof(false);
8000776e:	2f f6       	sub	r6,-1
80007770:	2e c7       	sub	r7,-20

	// Notify the user application
	UHC_SOF_EVENT();
80007772:	58 66       	cp.w	r6,6
80007774:	ce c1       	brne	8000774c <otg_interrupt+0x138>
80007776:	30 0c       	mov	r12,0
80007778:	e0 a0 03 1c 	rcall	80007db0 <uhc_notify_sof>
8000777c:	fe b0 f1 e1 	rcall	80005b3e <usb_sof>
80007780:	e0 8f 02 97 	bral	80007cae <otg_interrupt+0x69a>
80007784:	fe 69 00 00 	mov	r9,-131072
80007788:	f2 fc 04 04 	ld.w	r12,r9[1028]
8000778c:	f2 f8 04 10 	ld.w	r8,r9[1040]
80007790:	a9 8c       	lsr	r12,0x8
80007792:	f9 e8 02 8c 	and	r12,r12,r8>>0x8
80007796:	a7 bc       	sbr	r12,0x7
80007798:	5c 9c       	brev	r12
8000779a:	f8 0c 12 00 	clz	r12,r12
8000779e:	e0 81 01 1d 	brne	800079d8 <otg_interrupt+0x3c4>
800077a2:	30 78       	mov	r8,7
800077a4:	f3 48 06 20 	st.w	r9[1568],r8
800077a8:	fe 68 05 30 	mov	r8,-129744
800077ac:	70 09       	ld.w	r9,r8[0x0]
800077ae:	ed b9 00 02 	bld	r9,0x2
		uhd_sof_interrupt();
		return;
	}

	// Manage pipe interrupts
	pipe_int = uhd_get_interrupt_pipe_number();
800077b2:	c4 71       	brne	80007840 <otg_interrupt+0x22c>
800077b4:	fe 6b 05 f0 	mov	r11,-129552
800077b8:	e2 6a 00 00 	mov	r10,131072
800077bc:	97 0a       	st.w	r11[0x0],r10
800077be:	30 49       	mov	r9,4
800077c0:	fe 68 05 60 	mov	r8,-129696
800077c4:	91 09       	st.w	r8[0x0],r9
800077c6:	18 9e       	mov	lr,r12
800077c8:	e0 69 1c a8 	mov	r9,7336
	if (pipe_int == 0) {
800077cc:	72 09       	ld.w	r9,r9[0x0]
{
	// A setup request is on-going
	Assert(uhd_ctrl_request_timeout!=0);

	// Disable setup, IN and OUT interrupts of control endpoint
	AVR32_USBB.upcon0clr = AVR32_USBB_UPCON0CLR_TXSTPEC_MASK
800077ce:	13 97       	ld.ub	r7,r9[0x1]
800077d0:	f8 07 18 00 	cp.b	r7,r12
			| AVR32_USBB_UPCON0CLR_RXINEC_MASK
			| AVR32_USBB_UPCON0CLR_TXOUTEC_MASK;

	// Search event on control endpoint
	if (Is_uhd_setup_ready(0)) {
800077d4:	c1 64       	brge	80007800 <otg_interrupt+0x1ec>
800077d6:	fe 6c 05 00 	mov	r12,-129792
800077da:	78 09       	ld.w	r9,r12[0x0]
800077dc:	e0 19 fc ff 	andl	r9,0xfcff
		// SETUP packet sent
		uhd_freeze_pipe(0);
800077e0:	a9 a9       	sbr	r9,0x8
800077e2:	99 09       	st.w	r12[0x0],r9
800077e4:	30 19       	mov	r9,1
800077e6:	91 09       	st.w	r8[0x0],r9
800077e8:	e0 6c 00 80 	mov	r12,128
		uhd_ack_setup_ready(0);
800077ec:	91 0c       	st.w	r8[0x0],r12
800077ee:	97 09       	st.w	r11[0x0],r9
800077f0:	fe 68 06 20 	mov	r8,-129504
		Assert(uhd_ctrl_request_phase == UHD_CTRL_REQ_PHASE_SETUP);

		// Start DATA phase
		if ((uhd_ctrl_request_first->req.bmRequestType & USB_REQ_DIR_MASK)
800077f4:	e0 69 40 00 	mov	r9,16384
800077f8:	91 09       	st.w	r8[0x0],r9
800077fa:	91 0a       	st.w	r8[0x0],r10
800077fc:	30 29       	mov	r9,2
800077fe:	c1 e8       	rjmp	8000783a <otg_interrupt+0x226>
 * \brief Starts the DATA IN phase on control endpoint
 */
static void uhd_ctrl_phase_data_in_start(void)
{
	uhd_ctrl_request_phase = UHD_CTRL_REQ_PHASE_DATA_IN;
	uhd_configure_pipe_token(0, AVR32_USBB_PTOKEN_IN);
80007800:	f3 3e 00 08 	ld.ub	lr,r9[8]
80007804:	13 f9       	ld.ub	r9,r9[0x7]
80007806:	fd e9 10 89 	or	r9,lr,r9<<0x8
8000780a:	f8 09 19 00 	cp.h	r9,r12
	uhd_ack_in_received(0);
8000780e:	e0 81 00 bf 	brne	8000798c <otg_interrupt+0x378>
	uhd_ack_short_packet(0);
80007812:	fe 6c 05 00 	mov	r12,-129792
80007816:	78 09       	ld.w	r9,r12[0x0]
	uhd_enable_in_received_interrupt(0);
80007818:	e0 19 fc ff 	andl	r9,0xfcff
	uhd_ack_fifocon(0);
8000781c:	a9 a9       	sbr	r9,0x8
8000781e:	99 09       	st.w	r12[0x0],r9
80007820:	30 19       	mov	r9,1
80007822:	91 09       	st.w	r8[0x0],r9
	uhd_unfreeze_pipe(0);
80007824:	e0 6c 00 80 	mov	r12,128
 * \internal
 * \brief Starts the DATA IN phase on control endpoint
 */
static void uhd_ctrl_phase_data_in_start(void)
{
	uhd_ctrl_request_phase = UHD_CTRL_REQ_PHASE_DATA_IN;
80007828:	91 0c       	st.w	r8[0x0],r12
		// Start DATA phase
		if ((uhd_ctrl_request_first->req.bmRequestType & USB_REQ_DIR_MASK)
				== USB_REQ_DIR_IN ) {
			uhd_ctrl_phase_data_in_start();
		} else {
			if (uhd_ctrl_request_first->req.wLength) {
8000782a:	97 09       	st.w	r11[0x0],r9
8000782c:	fe 68 06 20 	mov	r8,-129504
80007830:	e0 69 40 00 	mov	r9,16384
80007834:	91 09       	st.w	r8[0x0],r9
80007836:	91 0a       	st.w	r8[0x0],r10
80007838:	30 39       	mov	r9,3
8000783a:	e0 68 1c a4 	mov	r8,7332
 * \brief Starts the ZLP IN phase on control endpoint
 */
static void uhd_ctrl_phase_zlp_in(void)
{
	uhd_ctrl_request_phase = UHD_CTRL_REQ_PHASE_ZLP_IN;
	uhd_configure_pipe_token(0, AVR32_USBB_PTOKEN_IN);
8000783e:	c6 c9       	rjmp	80007b16 <otg_interrupt+0x502>
80007840:	70 0c       	ld.w	r12,r8[0x0]
80007842:	f9 dc c0 01 	bfextu	r12,r12,0x0,0x1
80007846:	e0 80 00 8d 	breq	80007960 <otg_interrupt+0x34c>
	uhd_ack_in_received(0);
8000784a:	fe 69 05 c0 	mov	r9,-129600
	uhd_ack_short_packet(0);
8000784e:	72 08       	ld.w	r8,r9[0x0]
80007850:	ed b8 00 11 	bld	r8,0x11
	uhd_enable_in_received_interrupt(0);
80007854:	cf d1       	brne	8000784e <otg_interrupt+0x23a>
	uhd_ack_fifocon(0);
80007856:	fe 68 05 60 	mov	r8,-129696
8000785a:	30 19       	mov	r9,1
8000785c:	91 09       	st.w	r8[0x0],r9
8000785e:	e0 68 1c a4 	mov	r8,7332
 * \internal
 * \brief Starts the ZLP IN phase on control endpoint
 */
static void uhd_ctrl_phase_zlp_in(void)
{
	uhd_ctrl_request_phase = UHD_CTRL_REQ_PHASE_ZLP_IN;
80007862:	70 08       	ld.w	r8,r8[0x0]
80007864:	58 28       	cp.w	r8,2
80007866:	c0 50       	breq	80007870 <otg_interrupt+0x25c>
				uhd_ctrl_phase_zlp_in();
			}
		}
		return;
	}
	if (Is_uhd_in_received(0)) {
80007868:	58 38       	cp.w	r8,3
8000786a:	e0 81 02 22 	brne	80007cae <otg_interrupt+0x69a>
8000786e:	c7 78       	rjmp	8000795c <otg_interrupt+0x348>
80007870:	fe 68 05 30 	mov	r8,-129744
		// In case of low USB speed and with a high CPU frequency,
		// a ACK from host can be always running on USB line
		// then wait end of ACK on IN pipe.
		while(!Is_uhd_pipe_frozen(0));
80007874:	30 02       	mov	r2,0
80007876:	ea 12 d0 00 	orh	r2,0xd000
8000787a:	70 06       	ld.w	r6,r8[0x0]
8000787c:	e0 63 1c a8 	mov	r3,7336

		// IN packet received
		uhd_ack_in_received(0);
80007880:	70 00       	ld.w	r0,r8[0x0]
80007882:	ed d6 c2 88 	bfextu	r6,r6,0x14,0x8
		switch(uhd_ctrl_request_phase) {
80007886:	30 07       	mov	r7,0
80007888:	30 04       	mov	r4,0
8000788a:	e0 65 1c ac 	mov	r5,7340
8000788e:	fe 61 04 24 	mov	r1,-130012
80007892:	c1 08       	rjmp	800078b2 <otg_interrupt+0x29e>
80007894:	05 39       	ld.ub	r9,r2++
	bool b_short_packet;
	uint8_t *ptr_ep_data;
	uint8_t nb_byte_received;

	// Get information to read data
	nb_byte_received = uhd_byte_count(0);
80007896:	74 38       	ld.w	r8,r10[0xc]
80007898:	10 c9       	st.b	r8++,r9
	//! In HUB mode, the control pipe is always configured to 64B
	//! thus the short packet flag must be computed
	b_short_packet = (nb_byte_received != uhd_get_pipe_size(0));
	uhd_ack_short_packet(0);
#else
	b_short_packet = Is_uhd_short_packet(0);
8000789a:	95 38       	st.w	r10[0xc],r8
8000789c:	8a 08       	ld.sh	r8,r5[0x0]
8000789e:	2f f8       	sub	r8,-1
	bool b_short_packet;
	uint8_t *ptr_ep_data;
	uint8_t nb_byte_received;

	// Get information to read data
	nb_byte_received = uhd_byte_count(0);
800078a0:	aa 08       	st.h	r5[0x0],r8
#endif

	ptr_ep_data = (uint8_t *) & uhd_get_pipe_fifo_access(0, 8);
uhd_ctrl_receiv_in_read_data:
	// Copy data from pipe to payload buffer
	while (uhd_ctrl_request_first->payload_size && nb_byte_received) {
800078a2:	ed de c0 08 	bfextu	r6,lr,0x0,0x8
	bool b_short_packet;
	uint8_t *ptr_ep_data;
	uint8_t nb_byte_received;

	// Get information to read data
	nb_byte_received = uhd_byte_count(0);
800078a6:	66 08       	ld.w	r8,r3[0x0]
800078a8:	f1 09 00 10 	ld.sh	r9,r8[16]
#endif

	ptr_ep_data = (uint8_t *) & uhd_get_pipe_fifo_access(0, 8);
uhd_ctrl_receiv_in_read_data:
	// Copy data from pipe to payload buffer
	while (uhd_ctrl_request_first->payload_size && nb_byte_received) {
800078ac:	20 19       	sub	r9,1
		*uhd_ctrl_request_first->payload++ = *ptr_ep_data++;
		uhd_ctrl_nb_trans++;
800078ae:	f1 59 00 10 	st.h	r8[16],r9

	if (!uhd_ctrl_request_first->payload_size && nb_byte_received) {
		// payload buffer is full to store data remaining
		if (uhd_ctrl_request_first->callback_run == NULL
				|| !uhd_ctrl_request_first->callback_run(
				uhd_get_configured_address(0),
800078b2:	66 0a       	ld.w	r10,r3[0x0]
800078b4:	ee 06 18 00 	cp.b	r6,r7

	ptr_ep_data = (uint8_t *) & uhd_get_pipe_fifo_access(0, 8);
uhd_ctrl_receiv_in_read_data:
	// Copy data from pipe to payload buffer
	while (uhd_ctrl_request_first->payload_size && nb_byte_received) {
		*uhd_ctrl_request_first->payload++ = *ptr_ep_data++;
800078b8:	5f 18       	srne	r8
800078ba:	f5 09 00 10 	ld.sh	r9,r10[16]
		uhd_ctrl_nb_trans++;
800078be:	ec ce 00 01 	sub	lr,r6,1
800078c2:	e8 09 19 00 	cp.h	r9,r4
		uhd_ctrl_request_first->payload_size--;
		nb_byte_received--;
800078c6:	5f 1c       	srne	r12
uhd_ctrl_receiv_in_read_data:
	// Copy data from pipe to payload buffer
	while (uhd_ctrl_request_first->payload_size && nb_byte_received) {
		*uhd_ctrl_request_first->payload++ = *ptr_ep_data++;
		uhd_ctrl_nb_trans++;
		uhd_ctrl_request_first->payload_size--;
800078c8:	f4 cb ff f4 	sub	r11,r10,-12
800078cc:	f1 ec 00 0c 	and	r12,r8,r12
800078d0:	ee 0c 18 00 	cp.b	r12,r7
#endif

	ptr_ep_data = (uint8_t *) & uhd_get_pipe_fifo_access(0, 8);
uhd_ctrl_receiv_in_read_data:
	// Copy data from pipe to payload buffer
	while (uhd_ctrl_request_first->payload_size && nb_byte_received) {
800078d4:	ce 01       	brne	80007894 <otg_interrupt+0x280>
800078d6:	e8 09 19 00 	cp.h	r9,r4
800078da:	5f 09       	sreq	r9
800078dc:	12 68       	and	r8,r9
800078de:	ee 08 18 00 	cp.b	r8,r7
		*uhd_ctrl_request_first->payload++ = *ptr_ep_data++;
		uhd_ctrl_nb_trans++;
		uhd_ctrl_request_first->payload_size--;
		nb_byte_received--;
800078e2:	c0 b0       	breq	800078f8 <otg_interrupt+0x2e4>
#endif

	ptr_ep_data = (uint8_t *) & uhd_get_pipe_fifo_access(0, 8);
uhd_ctrl_receiv_in_read_data:
	// Copy data from pipe to payload buffer
	while (uhd_ctrl_request_first->payload_size && nb_byte_received) {
800078e4:	74 58       	ld.w	r8,r10[0x14]
800078e6:	58 08       	cp.w	r8,0
800078e8:	c1 60       	breq	80007914 <otg_interrupt+0x300>
		nb_byte_received--;
	}

	if (!uhd_ctrl_request_first->payload_size && nb_byte_received) {
		// payload buffer is full to store data remaining
		if (uhd_ctrl_request_first->callback_run == NULL
800078ea:	62 0c       	ld.w	r12,r1[0x0]
800078ec:	2f 0a       	sub	r10,-16
#endif

	ptr_ep_data = (uint8_t *) & uhd_get_pipe_fifo_access(0, 8);
uhd_ctrl_receiv_in_read_data:
	// Copy data from pipe to payload buffer
	while (uhd_ctrl_request_first->payload_size && nb_byte_received) {
800078ee:	f9 dc c0 07 	bfextu	r12,r12,0x0,0x7
800078f2:	5d 18       	icall	r8
800078f4:	cd f1       	brne	800078b2 <otg_interrupt+0x29e>
800078f6:	c0 f8       	rjmp	80007914 <otg_interrupt+0x300>
		uhd_ctrl_nb_trans++;
		uhd_ctrl_request_first->payload_size--;
		nb_byte_received--;
	}

	if (!uhd_ctrl_request_first->payload_size && nb_byte_received) {
800078f8:	f5 38 00 08 	ld.ub	r8,r10[8]
800078fc:	e0 69 1c ac 	mov	r9,7340
80007900:	15 fa       	ld.ub	r10,r10[0x7]
80007902:	92 09       	ld.sh	r9,r9[0x0]
80007904:	f1 ea 10 88 	or	r8,r8,r10<<0x8
		// payload buffer is full to store data remaining
		if (uhd_ctrl_request_first->callback_run == NULL
80007908:	f0 09 19 00 	cp.h	r9,r8
				|| !uhd_ctrl_request_first->callback_run(
				uhd_get_configured_address(0),
8000790c:	c0 40       	breq	80007914 <otg_interrupt+0x300>
		nb_byte_received--;
	}

	if (!uhd_ctrl_request_first->payload_size && nb_byte_received) {
		// payload buffer is full to store data remaining
		if (uhd_ctrl_request_first->callback_run == NULL
8000790e:	e2 10 00 80 	andl	r0,0x80,COH
80007912:	c1 90       	breq	80007944 <otg_interrupt+0x330>
80007914:	fe 69 05 00 	mov	r9,-129792
80007918:	72 08       	ld.w	r8,r9[0x0]
8000791a:	e0 18 fc ff 	andl	r8,0xfcff
8000791e:	a9 b8       	sbr	r8,0x9
80007920:	93 08       	st.w	r9[0x0],r8
80007922:	30 28       	mov	r8,2
80007924:	fe 69 05 60 	mov	r9,-129696
		// thus the data load can restart.
		goto uhd_ctrl_receiv_in_read_data;
	}

	// Test short packet
	if ((uhd_ctrl_nb_trans == uhd_ctrl_request_first->req.wLength)
80007928:	93 08       	st.w	r9[0x0],r8
8000792a:	fe 69 05 f0 	mov	r9,-129552
8000792e:	93 08       	st.w	r9[0x0],r8
80007930:	e0 69 40 00 	mov	r9,16384
80007934:	fe 68 06 20 	mov	r8,-129504
80007938:	91 09       	st.w	r8[0x0],r9
8000793a:	30 4a       	mov	r10,4
8000793c:	e0 69 1c a4 	mov	r9,7332
80007940:	93 0a       	st.w	r9[0x0],r10
 * \brief Starts the ZLP OUT phase on control endpoint
 */
static void uhd_ctrl_phase_zlp_out(void)
{
	uhd_ctrl_request_phase = UHD_CTRL_REQ_PHASE_ZLP_OUT;
	uhd_configure_pipe_token(0, AVR32_USBB_PTOKEN_OUT);
80007942:	c0 a8       	rjmp	80007956 <otg_interrupt+0x342>
80007944:	30 19       	mov	r9,1
80007946:	fe 68 05 f0 	mov	r8,-129552
8000794a:	91 09       	st.w	r8[0x0],r9
8000794c:	fe 68 06 20 	mov	r8,-129504
	uhd_ack_out_ready(0);
80007950:	e0 69 40 00 	mov	r9,16384
80007954:	91 09       	st.w	r8[0x0],r9
80007956:	e2 69 00 00 	mov	r9,131072
	uhd_enable_out_ready_interrupt(0);
8000795a:	cd e8       	rjmp	80007b16 <otg_interrupt+0x502>
8000795c:	30 0c       	mov	r12,0
	uhd_ack_fifocon(0);
8000795e:	c3 a8       	rjmp	800079d2 <otg_interrupt+0x3be>
80007960:	70 09       	ld.w	r9,r8[0x0]
80007962:	ed b9 00 01 	bld	r9,0x1
80007966:	c1 71       	brne	80007994 <otg_interrupt+0x380>
 * \internal
 * \brief Starts the ZLP OUT phase on control endpoint
 */
static void uhd_ctrl_phase_zlp_out(void)
{
	uhd_ctrl_request_phase = UHD_CTRL_REQ_PHASE_ZLP_OUT;
80007968:	e2 69 00 00 	mov	r9,131072
8000796c:	fe 68 05 f0 	mov	r8,-129552
		uhd_ctrl_phase_zlp_out();
		return;
	}

	// Send a new IN packet request
	uhd_enable_in_received_interrupt(0);
80007970:	91 09       	st.w	r8[0x0],r9
80007972:	fe 68 05 60 	mov	r8,-129696
80007976:	30 29       	mov	r9,2
	uhd_ack_fifocon(0);
80007978:	91 09       	st.w	r8[0x0],r9
8000797a:	e0 68 1c a4 	mov	r8,7332
8000797e:	70 08       	ld.w	r8,r8[0x0]
80007980:	58 18       	cp.w	r8,1
	uhd_unfreeze_pipe(0);
80007982:	c0 50       	breq	8000798c <otg_interrupt+0x378>
80007984:	58 48       	cp.w	r8,4
80007986:	e0 81 01 94 	brne	80007cae <otg_interrupt+0x69a>
		switch(uhd_ctrl_request_phase) {
		case UHD_CTRL_REQ_PHASE_DATA_IN:
			uhd_ctrl_phase_data_in();
			break;
		case UHD_CTRL_REQ_PHASE_ZLP_IN:
			uhd_ctrl_request_end(UHD_TRANS_NOERROR);
8000798a:	c2 48       	rjmp	800079d2 <otg_interrupt+0x3be>
			Assert(false);
			break;
		}
		return;
	}
	if (Is_uhd_out_ready(0)) {
8000798c:	fe b0 f8 c8 	rcall	80006b1c <uhd_ctrl_phase_data_out>
80007990:	e0 8f 01 8f 	bral	80007cae <otg_interrupt+0x69a>
		// OUT packet sent
		uhd_freeze_pipe(0);
80007994:	70 09       	ld.w	r9,r8[0x0]
80007996:	e2 19 00 40 	andl	r9,0x40,COH
8000799a:	c0 70       	breq	800079a8 <otg_interrupt+0x394>
8000799c:	34 09       	mov	r9,64
		uhd_ack_out_ready(0);
8000799e:	fe 68 05 60 	mov	r8,-129696
800079a2:	30 4c       	mov	r12,4
800079a4:	91 09       	st.w	r8[0x0],r9
		switch(uhd_ctrl_request_phase) {
800079a6:	c1 68       	rjmp	800079d2 <otg_interrupt+0x3be>
800079a8:	70 08       	ld.w	r8,r8[0x0]
800079aa:	ed b8 00 03 	bld	r8,0x3
800079ae:	e0 81 01 80 	brne	80007cae <otg_interrupt+0x69a>
800079b2:	fe 6a 06 80 	mov	r10,-129408
		case UHD_CTRL_REQ_PHASE_DATA_OUT:
			uhd_ctrl_phase_data_out();
800079b6:	74 08       	ld.w	r8,r10[0x0]
800079b8:	95 09       	st.w	r10[0x0],r9
800079ba:	f1 d8 c0 04 	bfextu	r8,r8,0x0,0x4
			Assert(false);
			break;
		}
		return;
	}
	if (Is_uhd_stall(0)) {
800079be:	20 18       	sub	r8,1
800079c0:	58 28       	cp.w	r8,2
800079c2:	e0 88 00 04 	brls	800079ca <otg_interrupt+0x3b6>
		// Stall Handshake received
		uhd_ack_stall(0);
800079c6:	30 6c       	mov	r12,6
800079c8:	c0 58       	rjmp	800079d2 <otg_interrupt+0x3be>
800079ca:	fe c9 e0 52 	sub	r9,pc,-8110
800079ce:	f2 08 03 2c 	ld.w	r12,r9[r8<<0x2]
		uhd_ctrl_request_end(UHD_TRANS_STALL);
		return;
	}
	if (Is_uhd_pipe_error(0)) {
800079d2:	fe b0 fb 07 	rcall	80006fe0 <uhd_ctrl_request_end>
800079d6:	c6 c9       	rjmp	80007cae <otg_interrupt+0x69a>
800079d8:	30 78       	mov	r8,7
800079da:	f0 0c 18 00 	cp.b	r12,r8
 *
 * \return UHD transfer error
 */
static uhd_trans_status_t uhd_pipe_get_error(uint8_t pipe)
{
	uint32_t error = uhd_error_status(pipe) &
800079de:	c6 60       	breq	80007aaa <otg_interrupt+0x496>
800079e0:	f8 08 15 02 	lsl	r8,r12,0x2
			(AVR32_USBB_UPERR0_DATATGL_MASK |
			AVR32_USBB_UPERR0_TIMEOUT_MASK |
			AVR32_USBB_UPERR0_PID_MASK |
			AVR32_USBB_UPERR0_DATAPID_MASK);
	uhd_ack_all_errors(pipe);
800079e4:	fe 6b 05 c0 	mov	r11,-129600
800079e8:	f0 0b 00 0a 	add	r10,r8,r11
800079ec:	74 09       	ld.w	r9,r10[0x0]
800079ee:	ed b9 00 0c 	bld	r9,0xc
800079f2:	c1 11       	brne	80007a14 <otg_interrupt+0x400>
800079f4:	fe 6b 05 30 	mov	r11,-129744
800079f8:	f0 0b 00 09 	add	r9,r8,r11
		uhd_ctrl_request_end(UHD_TRANS_STALL);
		return;
	}
	if (Is_uhd_pipe_error(0)) {
		// Get and ack error
		uhd_ctrl_request_end(uhd_pipe_get_error(0));
800079fc:	72 0b       	ld.w	r11,r9[0x0]
800079fe:	f7 db c1 82 	bfextu	r11,r11,0xc,0x2
	if (pipe_int == 0) {
		// Interrupt acked by control endpoint managed
		uhd_ctrl_interrupt();
		return;
	}
	if (pipe_int != AVR32_USBB_EPT_NUM) {
80007a02:	c0 91       	brne	80007a14 <otg_interrupt+0x400>
80007a04:	e0 38 f9 e0 	sub	r8,129504
 *
 * \param pipe  Pipe number
 */
static void uhd_pipe_interrupt(uint8_t pipe)
{
	if (Is_uhd_bank_interrupt_enabled(pipe) && (0==uhd_nb_busy_bank(pipe))) {
80007a08:	e0 69 10 00 	mov	r9,4096
80007a0c:	91 09       	st.w	r8[0x0],r9
80007a0e:	fe b0 f9 6f 	rcall	80006cec <uhd_pipe_finish_job>
80007a12:	c4 e9       	rjmp	80007cae <otg_interrupt+0x69a>
80007a14:	74 09       	ld.w	r9,r10[0x0]
80007a16:	ed b9 00 01 	bld	r9,0x1
80007a1a:	c1 b1       	brne	80007a50 <otg_interrupt+0x43c>
80007a1c:	fe 6a 05 30 	mov	r10,-129744
80007a20:	f0 0a 00 09 	add	r9,r8,r10
80007a24:	72 09       	ld.w	r9,r9[0x0]
80007a26:	ed b9 00 01 	bld	r9,0x1
80007a2a:	c1 31       	brne	80007a50 <otg_interrupt+0x43c>
		uhd_disable_bank_interrupt(pipe);
80007a2c:	30 2a       	mov	r10,2
80007a2e:	fe 6c 06 20 	mov	r12,-129504
80007a32:	f0 0c 00 09 	add	r9,r8,r12
		uhd_pipe_finish_job(pipe, UHD_TRANS_NOERROR);
80007a36:	93 0a       	st.w	r9[0x0],r10
80007a38:	fe 6c 05 60 	mov	r12,-129696
80007a3c:	f0 0c 00 0b 	add	r11,r8,r12
80007a40:	97 0a       	st.w	r11[0x0],r10
80007a42:	e0 6a 40 00 	mov	r10,16384
80007a46:	93 0a       	st.w	r9[0x0],r10
80007a48:	e2 6a 00 00 	mov	r10,131072
80007a4c:	93 0a       	st.w	r9[0x0],r10
80007a4e:	c6 08       	rjmp	80007b0e <otg_interrupt+0x4fa>
80007a50:	fe 6b 05 30 	mov	r11,-129744
		return;
	}
	if (Is_uhd_out_ready_interrupt_enabled(pipe) && Is_uhd_out_ready(pipe)) {
80007a54:	f0 0b 00 0a 	add	r10,r8,r11
80007a58:	74 09       	ld.w	r9,r10[0x0]
80007a5a:	e2 19 00 40 	andl	r9,0x40,COH
80007a5e:	c0 e0       	breq	80007a7a <otg_interrupt+0x466>
80007a60:	fe 6a 05 60 	mov	r10,-129696
80007a64:	f0 0a 00 09 	add	r9,r8,r10
80007a68:	34 0a       	mov	r10,64
80007a6a:	93 0a       	st.w	r9[0x0],r10
		uhd_disable_out_ready_interrupt(pipe);
80007a6c:	e0 38 fa 10 	sub	r8,129552
80007a70:	e4 69 00 00 	mov	r9,262144
80007a74:	30 4b       	mov	r11,4
80007a76:	91 09       	st.w	r8[0x0],r9
		// One bank is free then send a ZLP
		uhd_ack_out_ready(pipe);
80007a78:	c1 68       	rjmp	80007aa4 <otg_interrupt+0x490>
80007a7a:	74 0a       	ld.w	r10,r10[0x0]
80007a7c:	ed ba 00 03 	bld	r10,0x3
80007a80:	e0 81 01 17 	brne	80007cae <otg_interrupt+0x69a>
		uhd_ack_fifocon(pipe);
80007a84:	e0 38 f9 80 	sub	r8,129408
		uhd_unfreeze_pipe(pipe);
80007a88:	70 0a       	ld.w	r10,r8[0x0]
80007a8a:	91 09       	st.w	r8[0x0],r9
80007a8c:	f1 da c0 04 	bfextu	r8,r10,0x0,0x4
		uhd_enable_bank_interrupt(pipe);
		return;
	}
	if (Is_uhd_stall(pipe)) {
80007a90:	20 18       	sub	r8,1
80007a92:	58 28       	cp.w	r8,2
80007a94:	e0 88 00 04 	brls	80007a9c <otg_interrupt+0x488>
80007a98:	30 6b       	mov	r11,6
80007a9a:	c0 58       	rjmp	80007aa4 <otg_interrupt+0x490>
80007a9c:	fe c9 e1 24 	sub	r9,pc,-7900
		uhd_ack_stall(pipe);
80007aa0:	f2 08 03 2b 	ld.w	r11,r9[r8<<0x2]
80007aa4:	fe b0 f9 60 	rcall	80006d64 <uhd_ep_abort_pipe>
80007aa8:	c0 39       	rjmp	80007cae <otg_interrupt+0x69a>
80007aaa:	f2 fc 04 04 	ld.w	r12,r9[1028]
		uhd_reset_data_toggle(pipe);
80007aae:	f2 fb 04 10 	ld.w	r11,r9[1040]
80007ab2:	b9 9c       	lsr	r12,0x19
		uhd_ep_abort_pipe(pipe, UHD_TRANS_STALL);
80007ab4:	f9 eb 03 9c 	and	r12,r12,r11>>0x19
		uhd_enable_bank_interrupt(pipe);
		return;
	}
	if (Is_uhd_stall(pipe)) {
		uhd_ack_stall(pipe);
		uhd_reset_data_toggle(pipe);
80007ab8:	a7 ac       	sbr	r12,0x6
		uhd_ep_abort_pipe(pipe, UHD_TRANS_STALL);
		return;
	}
	if (Is_uhd_pipe_error(pipe)) {
80007aba:	5c 9c       	brev	r12
80007abc:	f8 0c 12 00 	clz	r12,r12
80007ac0:	2f fc       	sub	r12,-1
80007ac2:	f0 0c 18 00 	cp.b	r12,r8
 *
 * \return UHD transfer error
 */
static uhd_trans_status_t uhd_pipe_get_error(uint8_t pipe)
{
	uint32_t error = uhd_error_status(pipe) &
80007ac6:	c4 10       	breq	80007b48 <otg_interrupt+0x534>
80007ac8:	f8 08 15 04 	lsl	r8,r12,0x4
			(AVR32_USBB_UPERR0_DATATGL_MASK |
			AVR32_USBB_UPERR0_TIMEOUT_MASK |
			AVR32_USBB_UPERR0_PID_MASK |
			AVR32_USBB_UPERR0_DATAPID_MASK);
	uhd_ack_all_errors(pipe);
80007acc:	e0 38 f9 00 	sub	r8,129280
80007ad0:	70 39       	ld.w	r9,r8[0xc]
80007ad2:	ed b9 00 00 	bld	r9,0x0
80007ad6:	e0 80 00 ec 	breq	80007cae <otg_interrupt+0x69a>
80007ada:	70 39       	ld.w	r9,r8[0xc]
80007adc:	b1 89       	lsr	r9,0x10
80007ade:	c0 d0       	breq	80007af8 <otg_interrupt+0x4e4>
80007ae0:	e0 6a 08 f8 	mov	r10,2296
		uhd_ep_abort_pipe(pipe, UHD_TRANS_STALL);
		return;
	}
	if (Is_uhd_pipe_error(pipe)) {
		// Get and ack error
		uhd_ep_abort_pipe(pipe, uhd_pipe_get_error(pipe));
80007ae4:	f8 c8 00 01 	sub	r8,r12,1
	if (pipe_int != AVR32_USBB_EPT_NUM) {
		// Interrupt acked by bulk/interrupt/isochronous endpoint
		uhd_pipe_interrupt(pipe_int);
		return;
	}
	pipe_int = uhd_get_pipe_dma_interrupt_number();
80007ae8:	f0 08 00 28 	add	r8,r8,r8<<0x2
80007aec:	f4 08 00 28 	add	r8,r10,r8<<0x2
80007af0:	70 3a       	ld.w	r10,r8[0xc]
80007af2:	12 1a       	sub	r10,r9
80007af4:	91 2a       	st.w	r8[0x8],r10
80007af6:	91 3a       	st.w	r8[0xc],r10
80007af8:	f8 08 15 02 	lsl	r8,r12,0x2
80007afc:	fe 6b 05 00 	mov	r11,-129792
	if (pipe_int != AVR32_USBB_EPT_NUM) {
80007b00:	f0 0b 00 0a 	add	r10,r8,r11
80007b04:	74 0a       	ld.w	r10,r10[0x0]
static void uhd_pipe_interrupt_dma(uint8_t pipe)
{
	uhd_pipe_job_t *ptr_job;
	uint32_t nb_remaining;

	if (uhd_pipe_dma_get_status(pipe)
80007b06:	f5 da c1 02 	bfextu	r10,r10,0x8,0x2
80007b0a:	58 2a       	cp.w	r10,2
80007b0c:	c0 71       	brne	80007b1a <otg_interrupt+0x506>
80007b0e:	e0 38 fa 10 	sub	r8,129552
80007b12:	e0 69 10 00 	mov	r9,4096
80007b16:	91 09       	st.w	r8[0x0],r9
			& AVR32_USBB_UHDMA1_STATUS_CH_EN_MASK) {
		return; // Ignore EOT_STA interrupt
	}
	// Save number of data no transfered
	nb_remaining = (uhd_pipe_dma_get_status(pipe) &
80007b18:	cc b8       	rjmp	80007cae <otg_interrupt+0x69a>
80007b1a:	fe 6a 05 c0 	mov	r10,-129600
			AVR32_USBB_UHDMA1_STATUS_CH_BYTE_CNT_MASK)
			>> AVR32_USBB_UHDMA1_STATUS_CH_BYTE_CNT_OFFSET;
	if (nb_remaining) {
		// Get job corresponding at endpoint
		ptr_job = &uhd_pipe_job[pipe - 1];
80007b1e:	f0 0a 00 0b 	add	r11,r8,r10
80007b22:	76 0a       	ld.w	r10,r11[0x0]
80007b24:	ed ba 00 11 	bld	r10,0x11
80007b28:	c0 d0       	breq	80007b42 <otg_interrupt+0x52e>
80007b2a:	58 09       	cp.w	r9,0

		// Transfer no complete (short packet or ZLP) then:
		// Update number of transfered data
		ptr_job->nb_trans -= nb_remaining;
80007b2c:	c0 70       	breq	80007b3a <otg_interrupt+0x526>
80007b2e:	e0 38 fa 10 	sub	r8,129552
80007b32:	e2 69 00 00 	mov	r9,131072

		// Set transfer complete to stop the transfer
		ptr_job->buf_size = ptr_job->nb_trans;
	}

	if (uhd_is_pipe_out(pipe)) {
80007b36:	91 09       	st.w	r8[0x0],r9
80007b38:	c0 58       	rjmp	80007b42 <otg_interrupt+0x52e>
80007b3a:	76 08       	ld.w	r8,r11[0x0]
80007b3c:	ed b8 00 11 	bld	r8,0x11
80007b40:	cf d1       	brne	80007b3a <otg_interrupt+0x526>
80007b42:	fe b0 f9 41 	rcall	80006dc4 <uhd_pipe_trans_complet>
80007b46:	cb 48       	rjmp	80007cae <otg_interrupt+0x69a>
80007b48:	74 08       	ld.w	r8,r10[0x0]
		// Wait that all banks are free to freeze clock of OUT endpoint
		// and call callback
		uhd_enable_bank_interrupt(pipe);
80007b4a:	e2 18 00 04 	andl	r8,0x4,COH
80007b4e:	c0 d0       	breq	80007b68 <otg_interrupt+0x554>
80007b50:	fe 68 04 08 	mov	r8,-130040
80007b54:	30 49       	mov	r9,4
	} else {
		if (!Is_uhd_pipe_frozen(pipe)) {
80007b56:	91 09       	st.w	r8[0x0],r9
80007b58:	e0 68 08 f4 	mov	r8,2292
80007b5c:	70 08       	ld.w	r8,r8[0x0]
80007b5e:	58 08       	cp.w	r8,0
80007b60:	e0 80 00 a7 	breq	80007cae <otg_interrupt+0x69a>
80007b64:	5d 18       	icall	r8
			// Pipe is not freeze in case of :
			// - incomplete transfer when the request number INRQ is not complete.
			// - low USB speed and with a high CPU frequency,
			// a ACK from host can be always running on USB line.

			if (nb_remaining) {
80007b66:	ca 48       	rjmp	80007cae <otg_interrupt+0x69a>
80007b68:	74 0a       	ld.w	r10,r10[0x0]
				// Freeze pipe in case of incomplete transfer
				uhd_freeze_pipe(pipe);
80007b6a:	ed ba 00 01 	bld	r10,0x1
80007b6e:	c2 31       	brne	80007bb4 <otg_interrupt+0x5a0>
80007b70:	fe 6a 04 10 	mov	r10,-130032
80007b74:	74 0a       	ld.w	r10,r10[0x0]
			} else {
				// Wait freeze in case of ASK on going
				while (!Is_uhd_pipe_frozen(pipe)) {
80007b76:	ed ba 00 01 	bld	r10,0x1
80007b7a:	c1 d1       	brne	80007bb4 <otg_interrupt+0x5a0>
80007b7c:	30 2a       	mov	r10,2
				}
			}
		}
		uhd_pipe_trans_complet(pipe);
80007b7e:	fe 6b 04 08 	mov	r11,-130040
80007b82:	97 0a       	st.w	r11[0x0],r10
		// Interrupt DMA acked by bulk/interrupt/isochronous endpoint
		uhd_pipe_interrupt_dma(pipe_int);
		return;
	}
	// USB bus reset detection
	if (Is_uhd_reset_sent()) {
80007b84:	fe 6b 04 14 	mov	r11,-130028
80007b88:	97 0a       	st.w	r11[0x0],r10
80007b8a:	fe 6b 04 00 	mov	r11,-130048
		uhd_ack_reset_sent();
80007b8e:	76 0a       	ld.w	r10,r11[0x0]
80007b90:	a9 da       	cbr	r10,0x9
80007b92:	97 0a       	st.w	r11[0x0],r10
		if (uhd_reset_callback != NULL) {
80007b94:	35 8a       	mov	r10,88
80007b96:	f3 4a 04 14 	st.w	r9[1044],r10
80007b9a:	fe 69 04 18 	mov	r9,-130024
			uhd_reset_callback();
80007b9e:	30 1a       	mov	r10,1
80007ba0:	93 0a       	st.w	r9[0x0],r10
		}
		return;
	}

	// Manage dis/connection event
	if (Is_uhd_disconnection() && Is_uhd_disconnection_int_enabled()) {
80007ba2:	e0 69 09 70 	mov	r9,2416
80007ba6:	10 9c       	mov	r12,r8
80007ba8:	b2 88       	st.b	r9[0x0],r8
80007baa:	e0 69 09 72 	mov	r9,2418
80007bae:	b2 88       	st.b	r9[0x0],r8
80007bb0:	c2 58       	rjmp	80007bfa <otg_interrupt+0x5e6>
80007bb2:	d7 03       	nop
80007bb4:	fe 68 04 04 	mov	r8,-130044
		uhd_ack_disconnection();
80007bb8:	70 08       	ld.w	r8,r8[0x0]
80007bba:	ed b8 00 00 	bld	r8,0x0
		uhd_disable_disconnection_int();
80007bbe:	c2 11       	brne	80007c00 <otg_interrupt+0x5ec>
80007bc0:	fe 68 04 10 	mov	r8,-130032
		// Stop reset signal, in case of disconnection during reset
		uhd_stop_reset();
80007bc4:	70 08       	ld.w	r8,r8[0x0]
80007bc6:	ed b8 00 00 	bld	r8,0x0
80007bca:	c1 b1       	brne	80007c00 <otg_interrupt+0x5ec>
80007bcc:	fe 68 04 08 	mov	r8,-130040
		// Disable wakeup/resumes interrupts,
		// in case of disconnection during suspend mode
		AVR32_USBB.uhinteclr = AVR32_USBB_UHINTECLR_HWUPIEC_MASK
80007bd0:	30 1c       	mov	r12,1
80007bd2:	91 0c       	st.w	r8[0x0],r12
				| AVR32_USBB_UHINTECLR_RSMEDIEC_MASK
				| AVR32_USBB_UHINTECLR_RXRSMIEC_MASK;
		uhd_sleep_mode(UHD_STATE_DISCONNECT);
		uhd_enable_connection_int();
80007bd4:	fe 68 04 14 	mov	r8,-130028
80007bd8:	91 0c       	st.w	r8[0x0],r12
80007bda:	fe 68 04 18 	mov	r8,-130024
		uhd_suspend_start = 0;
		uhd_resume_start = 0;
		uhc_notify_connection(false);
80007bde:	30 29       	mov	r9,2
		AVR32_USBB.uhinteclr = AVR32_USBB_UHINTECLR_HWUPIEC_MASK
				| AVR32_USBB_UHINTECLR_RSMEDIEC_MASK
				| AVR32_USBB_UHINTECLR_RXRSMIEC_MASK;
		uhd_sleep_mode(UHD_STATE_DISCONNECT);
		uhd_enable_connection_int();
		uhd_suspend_start = 0;
80007be0:	fe 6a 04 00 	mov	r10,-130048
		uhd_resume_start = 0;
80007be4:	91 09       	st.w	r8[0x0],r9
80007be6:	74 08       	ld.w	r8,r10[0x0]
80007be8:	a9 a8       	sbr	r8,0x8
80007bea:	95 08       	st.w	r10[0x0],r8
80007bec:	e0 68 09 70 	mov	r8,2416
80007bf0:	30 09       	mov	r9,0
80007bf2:	b0 89       	st.b	r8[0x0],r9
80007bf4:	e0 68 09 72 	mov	r8,2418
80007bf8:	b0 89       	st.b	r8[0x0],r9
80007bfa:	e0 a0 03 43 	rcall	80008280 <uhc_notify_connection>
80007bfe:	c5 88       	rjmp	80007cae <otg_interrupt+0x69a>
80007c00:	fe 69 08 04 	mov	r9,-129020
		uhc_notify_connection(false);
		return;
	}
	if (Is_uhd_connection() && Is_uhd_connection_int_enabled()) {
80007c04:	72 08       	ld.w	r8,r9[0x0]
80007c06:	ed b8 00 03 	bld	r8,0x3
80007c0a:	c0 81       	brne	80007c1a <otg_interrupt+0x606>
80007c0c:	30 89       	mov	r9,8
80007c0e:	fe 68 08 08 	mov	r8,-129016
80007c12:	91 09       	st.w	r8[0x0],r9
80007c14:	fe b0 ef 92 	rcall	80005b38 <usb_vbus_error>
80007c18:	c4 b8       	rjmp	80007cae <otg_interrupt+0x69a>
80007c1a:	72 08       	ld.w	r8,r9[0x0]
		uhd_ack_connection();
80007c1c:	ed b8 00 0e 	bld	r8,0xe
80007c20:	cf d1       	brne	80007c1a <otg_interrupt+0x606>
80007c22:	fe 69 08 00 	mov	r9,-129024
		uhd_disable_connection_int();
80007c26:	72 08       	ld.w	r8,r9[0x0]
80007c28:	af c8       	cbr	r8,0xe
		uhd_enable_disconnection_int();
80007c2a:	93 08       	st.w	r9[0x0],r8
80007c2c:	fe 68 04 10 	mov	r8,-130032
		uhd_enable_sof();
80007c30:	70 08       	ld.w	r8,r8[0x0]
80007c32:	ed b8 00 06 	bld	r8,0x6
80007c36:	c2 51       	brne	80007c80 <otg_interrupt+0x66c>
80007c38:	fe 68 04 04 	mov	r8,-130044
		uhd_sleep_mode(UHD_STATE_IDLE);
		uhd_suspend_start = 0;
80007c3c:	70 09       	ld.w	r9,r8[0x0]
80007c3e:	ed b9 00 06 	bld	r9,0x6
		uhd_resume_start = 0;
80007c42:	c0 90       	breq	80007c54 <otg_interrupt+0x640>
80007c44:	70 09       	ld.w	r9,r8[0x0]
		uhc_notify_connection(true);
80007c46:	ed b9 00 03 	bld	r9,0x3
80007c4a:	c0 50       	breq	80007c54 <otg_interrupt+0x640>
		return;
	}

	// Manage Vbus error
	if (Is_uhd_vbus_error_interrupt()) {
80007c4c:	70 08       	ld.w	r8,r8[0x0]
80007c4e:	ed b8 00 04 	bld	r8,0x4
80007c52:	c1 71       	brne	80007c80 <otg_interrupt+0x66c>
80007c54:	35 89       	mov	r9,88
80007c56:	fe 68 00 00 	mov	r8,-131072
		uhd_ack_vbus_error_interrupt();
80007c5a:	f1 49 04 14 	st.w	r8[1044],r9
80007c5e:	fe 6a 04 00 	mov	r10,-130048
		UHC_VBUS_ERROR();
80007c62:	74 08       	ld.w	r8,r10[0x0]
80007c64:	a9 a8       	sbr	r8,0x8
		return;
	}

	// Check USB clock ready after asynchronous interrupt
	while (!Is_otg_clock_usable());
80007c66:	95 08       	st.w	r10[0x0],r8
80007c68:	fe 69 04 04 	mov	r9,-130044
80007c6c:	72 08       	ld.w	r8,r9[0x0]
	otg_unfreeze_clock();
80007c6e:	ed b8 00 03 	bld	r8,0x3
80007c72:	c0 20       	breq	80007c76 <otg_interrupt+0x662>
80007c74:	72 08       	ld.w	r8,r9[0x0]
80007c76:	33 29       	mov	r9,50

	if (Is_uhd_wakeup_interrupt_enabled() && (Is_uhd_wakeup() ||
80007c78:	e0 68 09 72 	mov	r8,2418
80007c7c:	b0 89       	st.b	r8[0x0],r9
80007c7e:	c1 88       	rjmp	80007cae <otg_interrupt+0x69a>
80007c80:	fe 69 08 04 	mov	r9,-129020
80007c84:	72 08       	ld.w	r8,r9[0x0]
80007c86:	ed b8 00 01 	bld	r8,0x1
80007c8a:	c1 21       	brne	80007cae <otg_interrupt+0x69a>
80007c8c:	30 2a       	mov	r10,2
80007c8e:	fe 68 08 08 	mov	r8,-129016
80007c92:	91 0a       	st.w	r8[0x0],r10
80007c94:	72 0c       	ld.w	r12,r9[0x0]
80007c96:	e2 1c 08 00 	andl	r12,0x800,COH
80007c9a:	c0 30       	breq	80007ca0 <otg_interrupt+0x68c>
80007c9c:	30 1c       	mov	r12,1
80007c9e:	c0 68       	rjmp	80007caa <otg_interrupt+0x696>
			Is_uhd_downstream_resume() || Is_uhd_upstream_resume())) {
		// Disable wakeup/resumes interrupts
		AVR32_USBB.uhinteclr = AVR32_USBB_UHINTECLR_HWUPIEC_MASK
80007ca0:	fe 69 08 00 	mov	r9,-129024
80007ca4:	72 08       	ld.w	r8,r9[0x0]
80007ca6:	af a8       	sbr	r8,0xe
80007ca8:	93 08       	st.w	r9[0x0],r8
				| AVR32_USBB_UHINTECLR_RSMEDIEC_MASK
				| AVR32_USBB_UHINTECLR_RXRSMIEC_MASK;
		uhd_enable_sof();
80007caa:	fe b0 ef 46 	rcall	80005b36 <usb_vbus_change>
80007cae:	fe 68 00 00 	mov	r8,-131072
80007cb2:	f0 f8 08 18 	ld.w	r8,r8[2072]
		if ((!Is_uhd_downstream_resume())
80007cb6:	d4 32       	popm	r0-r7,lr
80007cb8:	d6 03       	rete
80007cba:	d7 03       	nop

80007cbc <print_hex>:
80007cbc:	d4 01       	pushm	lr
80007cbe:	20 3d       	sub	sp,12
80007cc0:	30 08       	mov	r8,0
80007cc2:	fa ca 00 01 	sub	r10,sp,1
80007cc6:	fb 68 00 08 	st.b	sp[8],r8
80007cca:	fe c9 e3 36 	sub	r9,pc,-7370
80007cce:	fa c8 ff f9 	sub	r8,sp,-7
80007cd2:	fd db c0 04 	bfextu	lr,r11,0x0,0x4
80007cd6:	f2 0e 07 0e 	ld.ub	lr,r9[lr]
80007cda:	b0 8e       	st.b	r8[0x0],lr
80007cdc:	a5 8b       	lsr	r11,0x4
80007cde:	20 18       	sub	r8,1
80007ce0:	14 38       	cp.w	r8,r10
80007ce2:	cf 81       	brne	80007cd2 <print_hex+0x16>
80007ce4:	1a 9b       	mov	r11,sp
80007ce6:	fe b0 f6 53 	rcall	8000698c <usart_write_line>
80007cea:	2f dd       	sub	sp,-12
80007cec:	d8 02       	popm	pc
80007cee:	d7 03       	nop

80007cf0 <print_dbg_hex>:
80007cf0:	d4 01       	pushm	lr
80007cf2:	18 9b       	mov	r11,r12
80007cf4:	fe 7c 18 00 	mov	r12,-59392
80007cf8:	ce 2f       	rcall	80007cbc <print_hex>
80007cfa:	d8 02       	popm	pc

80007cfc <print_ulong>:
80007cfc:	d4 21       	pushm	r4-r7,lr
80007cfe:	20 3d       	sub	sp,12
80007d00:	30 08       	mov	r8,0
80007d02:	1a 99       	mov	r9,sp
80007d04:	fb 68 00 0a 	st.b	sp[10],r8
80007d08:	30 a8       	mov	r8,10
80007d0a:	10 9a       	mov	r10,r8
80007d0c:	f6 0a 0d 06 	divu	r6,r11,r10
80007d10:	20 18       	sub	r8,1
80007d12:	0e 9b       	mov	r11,r7
80007d14:	2d 0b       	sub	r11,-48
80007d16:	f2 08 0b 0b 	st.b	r9[r8],r11
80007d1a:	0c 9b       	mov	r11,r6
80007d1c:	58 06       	cp.w	r6,0
80007d1e:	cf 71       	brne	80007d0c <print_ulong+0x10>
80007d20:	f2 08 00 0b 	add	r11,r9,r8
80007d24:	fe b0 f6 34 	rcall	8000698c <usart_write_line>
80007d28:	2f dd       	sub	sp,-12
80007d2a:	d8 22       	popm	r4-r7,pc

80007d2c <print_dbg_ulong>:
80007d2c:	d4 01       	pushm	lr
80007d2e:	18 9b       	mov	r11,r12
80007d30:	fe 7c 18 00 	mov	r12,-59392
80007d34:	ce 4f       	rcall	80007cfc <print_ulong>
80007d36:	d8 02       	popm	pc

80007d38 <print_dbg>:
80007d38:	d4 01       	pushm	lr
80007d3a:	18 9b       	mov	r11,r12
80007d3c:	fe 7c 18 00 	mov	r12,-59392
80007d40:	fe b0 f6 26 	rcall	8000698c <usart_write_line>
80007d44:	d8 02       	popm	pc
80007d46:	d7 03       	nop

80007d48 <init_dbg_rs232_ex>:
80007d48:	d4 21       	pushm	r4-r7,lr
80007d4a:	20 3d       	sub	sp,12
80007d4c:	30 08       	mov	r8,0
80007d4e:	fb 68 00 08 	st.b	sp[8],r8
80007d52:	ba 38       	st.h	sp[0x6],r8
80007d54:	30 88       	mov	r8,8
80007d56:	ba c8       	st.b	sp[0x4],r8
80007d58:	30 48       	mov	r8,4
80007d5a:	16 97       	mov	r7,r11
80007d5c:	50 0c       	stdsp	sp[0x0],r12
80007d5e:	30 2b       	mov	r11,2
80007d60:	ba d8       	st.b	sp[0x5],r8
80007d62:	fe cc e3 de 	sub	r12,pc,-7202
80007d66:	fe b0 f3 29 	rcall	800063b8 <gpio_enable_module>
80007d6a:	0e 9a       	mov	r10,r7
80007d6c:	1a 9b       	mov	r11,sp
80007d6e:	fe 7c 18 00 	mov	r12,-59392
80007d72:	fe b0 f6 35 	rcall	800069dc <usart_init_rs232>
80007d76:	2f dd       	sub	sp,-12
80007d78:	d8 22       	popm	r4-r7,pc
80007d7a:	d7 03       	nop

80007d7c <init_dbg_rs232>:
80007d7c:	d4 01       	pushm	lr
80007d7e:	18 9b       	mov	r11,r12
80007d80:	e0 6c e1 00 	mov	r12,57600
80007d84:	ce 2f       	rcall	80007d48 <init_dbg_rs232_ex>
80007d86:	d8 02       	popm	pc

80007d88 <uhc_enumeration_step2>:
 * \param callback Callback to call at the end of timeout
 */
static void uhc_enable_timeout_callback(uint8_t timeout,
		uhc_sof_timeout_callback_t callback)
{
	uhc_sof_timeout_callback = callback;
80007d88:	fe c9 ff 2c 	sub	r9,pc,-212
80007d8c:	e0 68 09 94 	mov	r8,2452
	uhc_sof_timeout = timeout;
80007d90:	91 09       	st.w	r8[0x0],r9
80007d92:	31 49       	mov	r9,20
 * Lets USB line in IDLE state during 20ms.
 */
static void uhc_enumeration_step2(void)
{
	uhc_enable_timeout_callback(20, uhc_enumeration_step3);
}
80007d94:	e0 68 1c b6 	mov	r8,7350
80007d98:	b0 89       	st.b	r8[0x0],r9
80007d9a:	5e fc       	retal	r12

80007d9c <uhc_enumeration_step8>:
80007d9c:	fe c9 fd fc 	sub	r9,pc,-516
80007da0:	e0 68 09 94 	mov	r8,2452
 */
static void uhc_enable_timeout_callback(uint8_t timeout,
		uhc_sof_timeout_callback_t callback)
{
	uhc_sof_timeout_callback = callback;
	uhc_sof_timeout = timeout;
80007da4:	91 09       	st.w	r8[0x0],r9
80007da6:	36 49       	mov	r9,100
 */
static void uhc_enumeration_step8(void)
{
	// Wait 100ms
	uhc_enable_timeout_callback(100, uhc_enumeration_step9);
}
80007da8:	e0 68 1c b6 	mov	r8,7350
80007dac:	b0 89       	st.b	r8[0x0],r9
80007dae:	5e fc       	retal	r12

80007db0 <uhc_notify_sof>:
80007db0:	d4 21       	pushm	r4-r7,lr
80007db2:	fe c8 e4 0e 	sub	r8,pc,-7154
80007db6:	18 97       	mov	r7,r12

void uhc_notify_sof(bool b_micro)
{
	// Call all UHIs
	for (uint8_t i = 0; i < UHC_NB_UHI; i++) {
		if (uhc_uhis[i].sof_notify != NULL) {
80007db8:	70 38       	ld.w	r8,r8[0xc]
80007dba:	58 08       	cp.w	r8,0
			uhc_uhis[i].sof_notify(b_micro);
80007dbc:	c0 20       	breq	80007dc0 <uhc_notify_sof+0x10>
		}
	}

	if (!b_micro) {
80007dbe:	5d 18       	icall	r8
80007dc0:	58 07       	cp.w	r7,0
		// Manage SOF timeout
		if (uhc_sof_timeout) {
80007dc2:	c0 e1       	brne	80007dde <uhc_notify_sof+0x2e>
80007dc4:	e0 69 1c b6 	mov	r9,7350
80007dc8:	13 88       	ld.ub	r8,r9[0x0]
			if (--uhc_sof_timeout == 0) {
80007dca:	58 08       	cp.w	r8,0
80007dcc:	c0 90       	breq	80007dde <uhc_notify_sof+0x2e>
80007dce:	20 18       	sub	r8,1
80007dd0:	5c 58       	castu.b	r8
				uhc_sof_timeout_callback();
80007dd2:	b2 88       	st.b	r9[0x0],r8
80007dd4:	c0 51       	brne	80007dde <uhc_notify_sof+0x2e>
80007dd6:	e0 68 09 94 	mov	r8,2452
80007dda:	70 08       	ld.w	r8,r8[0x0]
80007ddc:	5d 18       	icall	r8
80007dde:	d8 22       	popm	r4-r7,pc

80007de0 <uhc_remotewakeup>:
80007de0:	d4 01       	pushm	lr
80007de2:	20 2d       	sub	sp,8
80007de4:	e0 68 09 74 	mov	r8,2420
	usb_setup_req_t req;
	uhc_device_t *dev;

	dev = &g_uhc_device_root;
	while(1) {
		if (dev->conf_desc->bmAttributes & USB_CONFIG_ATTR_REMOTE_WAKEUP) {
80007de8:	70 68       	ld.w	r8,r8[0x18]
80007dea:	11 f8       	ld.ub	r8,r8[0x7]
80007dec:	ed b8 00 05 	bld	r8,0x5
			if (b_enable) {
80007df0:	c1 b1       	brne	80007e26 <uhc_remotewakeup+0x46>
80007df2:	58 0c       	cp.w	r12,0
				req.bRequest = USB_REQ_SET_FEATURE;
80007df4:	c0 30       	breq	80007dfa <uhc_remotewakeup+0x1a>
80007df6:	30 38       	mov	r8,3
			} else {
				req.bRequest = USB_REQ_CLEAR_FEATURE;
80007df8:	c0 28       	rjmp	80007dfc <uhc_remotewakeup+0x1c>
80007dfa:	30 18       	mov	r8,1
			req.bmRequestType = USB_REQ_RECIP_DEVICE
					|USB_REQ_TYPE_STANDARD|USB_REQ_DIR_OUT;
			req.wValue = USB_DEV_FEATURE_REMOTE_WAKEUP;
			req.wIndex = 0;
			req.wLength = 0;
			uhd_setup_request(dev->address,&req,NULL,0,NULL,NULL);
80007dfc:	ba 98       	st.b	sp[0x1],r8
				req.bRequest = USB_REQ_CLEAR_FEATURE;
			}
			req.bmRequestType = USB_REQ_RECIP_DEVICE
					|USB_REQ_TYPE_STANDARD|USB_REQ_DIR_OUT;
			req.wValue = USB_DEV_FEATURE_REMOTE_WAKEUP;
			req.wIndex = 0;
80007dfe:	30 09       	mov	r9,0
			req.wLength = 0;
80007e00:	30 08       	mov	r8,0
				req.bRequest = USB_REQ_CLEAR_FEATURE;
			}
			req.bmRequestType = USB_REQ_RECIP_DEVICE
					|USB_REQ_TYPE_STANDARD|USB_REQ_DIR_OUT;
			req.wValue = USB_DEV_FEATURE_REMOTE_WAKEUP;
			req.wIndex = 0;
80007e02:	ba 38       	st.h	sp[0x6],r8
			req.wLength = 0;
			uhd_setup_request(dev->address,&req,NULL,0,NULL,NULL);
80007e04:	ba 28       	st.h	sp[0x4],r8
80007e06:	1a d9       	st.w	--sp,r9
			if (b_enable) {
				req.bRequest = USB_REQ_SET_FEATURE;
			} else {
				req.bRequest = USB_REQ_CLEAR_FEATURE;
			}
			req.bmRequestType = USB_REQ_RECIP_DEVICE
80007e08:	12 98       	mov	r8,r9
					|USB_REQ_TYPE_STANDARD|USB_REQ_DIR_OUT;
			req.wValue = USB_DEV_FEATURE_REMOTE_WAKEUP;
80007e0a:	ba c9       	st.b	sp[0x4],r9
80007e0c:	30 19       	mov	r9,1
			req.wIndex = 0;
			req.wLength = 0;
			uhd_setup_request(dev->address,&req,NULL,0,NULL,NULL);
80007e0e:	ba 39       	st.h	sp[0x6],r9
80007e10:	e0 69 09 74 	mov	r9,2420
80007e14:	fa cb ff fc 	sub	r11,sp,-4
80007e18:	f3 3c 00 12 	ld.ub	r12,r9[18]
80007e1c:	10 9a       	mov	r10,r8
80007e1e:	10 99       	mov	r9,r8
80007e20:	fe b0 f9 74 	rcall	80007108 <uhd_setup_request>
		dev = dev->next;
#else
		break;
#endif
	}
}
80007e24:	2f fd       	sub	sp,-4
80007e26:	2f ed       	sub	sp,-8
80007e28:	d8 02       	popm	pc
80007e2a:	d7 03       	nop

80007e2c <uhc_stop>:
80007e2c:	d4 01       	pushm	lr
80007e2e:	fe b0 fb 13 	rcall	80007454 <uhd_disable>

void uhc_stop(bool b_id_stop)
{
	// Stop UHD
	uhd_disable(b_id_stop);
}
80007e32:	d8 02       	popm	pc

80007e34 <uhc_start>:
80007e34:	d4 01       	pushm	lr
80007e36:	3f f9       	mov	r9,-1
 *
 * @{
 */
void uhc_start(void)
{
	g_uhc_device_root.address = UHC_USB_ADD_NOT_VALID;
80007e38:	e0 68 09 74 	mov	r8,2420
80007e3c:	f1 69 00 12 	st.b	r8[18],r9
	uhc_sof_timeout = 0; // No callback registered on a SOF timeout
80007e40:	30 09       	mov	r9,0
80007e42:	e0 68 1c b6 	mov	r8,7350
	uhd_enable();
80007e46:	b0 89       	st.b	r8[0x0],r9
}
80007e48:	fe b0 fb 84 	rcall	80007550 <uhd_enable>
80007e4c:	d8 02       	popm	pc
80007e4e:	d7 03       	nop

80007e50 <uhc_notify_resume>:
80007e50:	d4 01       	pushm	lr
80007e52:	30 0c       	mov	r12,0
80007e54:	cc 6f       	rcall	80007de0 <uhc_remotewakeup>
80007e56:	fe b0 ee 73 	rcall	80005b3c <usb_wakeup>
}

void uhc_notify_resume(void)
{
	uhc_remotewakeup(false);
	UHC_WAKEUP_EVENT();
80007e5a:	d8 02       	popm	pc

80007e5c <uhc_enumeration_step3>:
}
80007e5c:	d4 01       	pushm	lr
80007e5e:	fe cc ff ea 	sub	r12,pc,-22
80007e62:	fe b0 f6 2b 	rcall	80006ab8 <uhd_send_reset>
80007e66:	d8 02       	popm	pc

80007e68 <uhc_enumeration_step7>:
 * Reset USB line.
 */
static void uhc_enumeration_step3(void)
{
	uhc_enumeration_reset(uhc_enumeration_step4);
}
80007e68:	d4 01       	pushm	lr
80007e6a:	fe cc 00 ce 	sub	r12,pc,206
80007e6e:	fe b0 f6 25 	rcall	80006ab8 <uhd_send_reset>
 * Reset USB line.
 */
static void uhc_enumeration_step7(void)
{
	uhc_enumeration_reset(uhc_enumeration_step8);
}
80007e72:	d8 02       	popm	pc

80007e74 <uhc_enumeration_step4>:
80007e74:	d4 01       	pushm	lr
80007e76:	fe b0 f6 13 	rcall	80006a9c <uhd_get_speed>
80007e7a:	e0 68 09 74 	mov	r8,2420
 * \brief Device enumeration step 4
 * Lets USB line in IDLE state during 100ms.
 */
static void uhc_enumeration_step4(void)
{
	uhc_dev_enum->speed = uhd_get_speed();
80007e7e:	fe c9 ff 7e 	sub	r9,pc,-130
 * \param callback Callback to call at the end of timeout
 */
static void uhc_enable_timeout_callback(uint8_t timeout,
		uhc_sof_timeout_callback_t callback)
{
	uhc_sof_timeout_callback = callback;
80007e82:	91 5c       	st.w	r8[0x14],r12
	uhc_sof_timeout = timeout;
80007e84:	e0 68 09 94 	mov	r8,2452
80007e88:	91 09       	st.w	r8[0x0],r9
 */
static void uhc_enumeration_step4(void)
{
	uhc_dev_enum->speed = uhd_get_speed();
	uhc_enable_timeout_callback(100, uhc_enumeration_step5);
}
80007e8a:	36 49       	mov	r9,100
80007e8c:	e0 68 1c b6 	mov	r8,7350
80007e90:	b0 89       	st.b	r8[0x0],r9
80007e92:	d8 02       	popm	pc

80007e94 <uhc_enumeration_error>:
80007e94:	d4 21       	pushm	r4-r7,lr
80007e96:	18 95       	mov	r5,r12
80007e98:	58 7c       	cp.w	r12,7
80007e9a:	c0 61       	brne	80007ea6 <uhc_enumeration_error+0x12>
80007e9c:	30 09       	mov	r9,0
80007e9e:	e0 68 09 90 	mov	r8,2448
 */
static void uhc_enumeration_error(uhc_enum_status_t status)
{
	if (status == UHC_ENUM_DISCONNECT) {
		uhc_enum_try = 0;
		return; // Abort enumeration process
80007ea2:	b0 89       	st.b	r8[0x0],r9
	}
	uhd_ep_free(uhc_dev_enum->address, 0xFF);
80007ea4:	d8 22       	popm	r4-r7,pc
80007ea6:	e0 67 09 74 	mov	r7,2420
80007eaa:	e0 6b 00 ff 	mov	r11,255
80007eae:	ef 3c 00 12 	ld.ub	r12,r7[18]

	// Free USB configuration descriptor buffer
	if (uhc_dev_enum->conf_desc != NULL) {
80007eb2:	fe b0 f9 61 	rcall	80007174 <uhd_ep_free>
80007eb6:	6e 6c       	ld.w	r12,r7[0x18]
		free(uhc_dev_enum->conf_desc);
80007eb8:	58 0c       	cp.w	r12,0
80007eba:	c0 50       	breq	80007ec4 <uhc_enumeration_error+0x30>
		uhc_dev_enum->conf_desc = NULL;
80007ebc:	e0 a0 04 48 	rcall	8000874c <free>
	}
	uhc_dev_enum->address = 0;
	if (uhc_enum_try++ < UHC_ENUM_NB_TRY) {
80007ec0:	30 08       	mov	r8,0
	// Free USB configuration descriptor buffer
	if (uhc_dev_enum->conf_desc != NULL) {
		free(uhc_dev_enum->conf_desc);
		uhc_dev_enum->conf_desc = NULL;
	}
	uhc_dev_enum->address = 0;
80007ec2:	8f 68       	st.w	r7[0x18],r8
	if (uhc_enum_try++ < UHC_ENUM_NB_TRY) {
80007ec4:	e0 67 09 90 	mov	r7,2448
80007ec8:	e0 64 09 74 	mov	r4,2420
	// Free USB configuration descriptor buffer
	if (uhc_dev_enum->conf_desc != NULL) {
		free(uhc_dev_enum->conf_desc);
		uhc_dev_enum->conf_desc = NULL;
	}
	uhc_dev_enum->address = 0;
80007ecc:	0f 88       	ld.ub	r8,r7[0x0]
80007ece:	30 06       	mov	r6,0
	if (uhc_enum_try++ < UHC_ENUM_NB_TRY) {
80007ed0:	f0 c9 ff ff 	sub	r9,r8,-1
80007ed4:	e9 66 00 12 	st.b	r4[18],r6
80007ed8:	ae 89       	st.b	r7[0x0],r9
80007eda:	30 39       	mov	r9,3
		// Device connected on USB hub
		uhi_hub_send_reset(uhc_dev_enum, callback);
	} else
#endif
	{
		uhd_send_reset(callback);
80007edc:	f2 08 18 00 	cp.b	r8,r9
80007ee0:	e0 8b 00 07 	brhi	80007eee <uhc_enumeration_error+0x5a>
		uhi_hub_suspend(uhc_dev_enum);
	} else
#endif
	{
		// Suspend USB line
		uhd_suspend();
80007ee4:	fe cc 01 5c 	sub	r12,pc,348
		uhc_enumeration_step1();
		return;
	}
	// Abort enumeration, set line in suspend mode
	uhc_enumeration_suspend();
	UHC_ENUM_EVENT(uhc_dev_enum, status);
80007ee8:	fe b0 f5 e8 	rcall	80006ab8 <uhd_send_reset>
80007eec:	d8 22       	popm	r4-r7,pc
80007eee:	fe b0 f5 ef 	rcall	80006acc <uhd_suspend>
	uhc_enum_try = 0;
80007ef2:	0a 9b       	mov	r11,r5
80007ef4:	08 9c       	mov	r12,r4
80007ef6:	fe b0 ee 25 	rcall	80005b40 <usb_enum>
80007efa:	ae 86       	st.b	r7[0x0],r6
80007efc:	d8 22       	popm	r4-r7,pc
80007efe:	d7 03       	nop

80007f00 <uhc_enumeration_step5>:
80007f00:	d4 01       	pushm	lr
80007f02:	20 2d       	sub	sp,8
80007f04:	38 08       	mov	r8,-128
80007f06:	ba 88       	st.b	sp[0x0],r8
80007f08:	30 68       	mov	r8,6
80007f0a:	ba 98       	st.b	sp[0x1],r8
80007f0c:	e0 68 01 00 	mov	r8,256
80007f10:	ba 18       	st.h	sp[0x2],r8
80007f12:	30 08       	mov	r8,0
	usb_setup_req_t req;

	req.bmRequestType = USB_REQ_RECIP_DEVICE|USB_REQ_TYPE_STANDARD|USB_REQ_DIR_IN;
	req.bRequest = USB_REQ_GET_DESCRIPTOR;
	req.wValue = (USB_DT_DEVICE << 8);
	req.wIndex = 0;
80007f14:	ba 28       	st.h	sp[0x4],r8
	req.wLength = offsetof(uhc_device_t, dev_desc.bMaxPacketSize0)
80007f16:	30 88       	mov	r8,8
			+ sizeof(uhc_dev_enum->dev_desc.bMaxPacketSize0);

	// After a USB reset, the reallocation is required
	uhd_ep_free(0, 0);
80007f18:	30 0b       	mov	r11,0

	req.bmRequestType = USB_REQ_RECIP_DEVICE|USB_REQ_TYPE_STANDARD|USB_REQ_DIR_IN;
	req.bRequest = USB_REQ_GET_DESCRIPTOR;
	req.wValue = (USB_DT_DEVICE << 8);
	req.wIndex = 0;
	req.wLength = offsetof(uhc_device_t, dev_desc.bMaxPacketSize0)
80007f1a:	ba 38       	st.h	sp[0x6],r8
			+ sizeof(uhc_dev_enum->dev_desc.bMaxPacketSize0);

	// After a USB reset, the reallocation is required
	uhd_ep_free(0, 0);
80007f1c:	16 9c       	mov	r12,r11
80007f1e:	fe b0 f9 2b 	rcall	80007174 <uhd_ep_free>
	if (!uhd_ep0_alloc(0, 64)) {
80007f22:	34 0b       	mov	r11,64
80007f24:	30 0c       	mov	r12,0
80007f26:	fe b0 fa 2e 	rcall	80007382 <uhd_ep0_alloc>
80007f2a:	c0 31       	brne	80007f30 <uhc_enumeration_step5+0x30>
		uhc_enumeration_error(UHC_ENUM_HARDWARE_LIMIT);
80007f2c:	30 4c       	mov	r12,4
80007f2e:	c1 18       	rjmp	80007f50 <uhc_enumeration_step5+0x50>
		return;
	}
	if (!uhd_setup_request(0,
80007f30:	fe c9 ff d8 	sub	r9,pc,-40
80007f34:	30 08       	mov	r8,0
80007f36:	1a d9       	st.w	--sp,r9
80007f38:	e0 6a 09 74 	mov	r10,2420
80007f3c:	fa cb ff fc 	sub	r11,sp,-4
80007f40:	31 29       	mov	r9,18
80007f42:	10 9c       	mov	r12,r8
80007f44:	fe b0 f8 e2 	rcall	80007108 <uhd_setup_request>
80007f48:	2f fd       	sub	sp,-4
			&req,
			(uint8_t*)&uhc_dev_enum->dev_desc,
			sizeof(usb_dev_desc_t),
			NULL,
			uhc_enumeration_step6)) {
		uhc_enumeration_error(UHC_ENUM_MEMORY_LIMIT);
80007f4a:	58 0c       	cp.w	r12,0
80007f4c:	c0 31       	brne	80007f52 <uhc_enumeration_step5+0x52>
80007f4e:	30 6c       	mov	r12,6
		return;
	}
}
80007f50:	ca 2f       	rcall	80007e94 <uhc_enumeration_error>
80007f52:	2f ed       	sub	sp,-8
80007f54:	d8 02       	popm	pc
80007f56:	d7 03       	nop

80007f58 <uhc_enumeration_step6>:
80007f58:	d4 01       	pushm	lr
80007f5a:	30 79       	mov	r9,7
80007f5c:	58 0b       	cp.w	r11,0
80007f5e:	5f 18       	srne	r8
80007f60:	f2 0a 19 00 	cp.h	r10,r9
80007f64:	5f 89       	srls	r9
80007f66:	f3 e8 10 08 	or	r8,r9,r8
80007f6a:	c0 91       	brne	80007f7c <uhc_enumeration_step6+0x24>
		usb_add_t add,
		uhd_trans_status_t status,
		uint16_t payload_trans)
{
	UNUSED(add);
	if ((status != UHD_TRANS_NOERROR) || (payload_trans < 8)
80007f6c:	e0 68 09 74 	mov	r8,2420
80007f70:	11 99       	ld.ub	r9,r8[0x1]
80007f72:	30 18       	mov	r8,1
80007f74:	f0 09 18 00 	cp.b	r9,r8
80007f78:	c0 61       	brne	80007f84 <uhc_enumeration_step6+0x2c>
			|| (uhc_dev_enum->dev_desc.bDescriptorType != USB_DT_DEVICE)) {
		uhc_enumeration_error((status == UHD_TRANS_DISCONNECT)?
80007f7a:	c0 88       	rjmp	80007f8a <uhc_enumeration_step6+0x32>
80007f7c:	58 1b       	cp.w	r11,1
80007f7e:	c0 31       	brne	80007f84 <uhc_enumeration_step6+0x2c>
80007f80:	30 7c       	mov	r12,7
80007f82:	c0 28       	rjmp	80007f86 <uhc_enumeration_step6+0x2e>
80007f84:	30 3c       	mov	r12,3
80007f86:	c8 7f       	rcall	80007e94 <uhc_enumeration_error>
				UHC_ENUM_DISCONNECT:UHC_ENUM_FAIL);
		return;
80007f88:	d8 02       	popm	pc
 * \param callback Callback to call at the end of timeout
 */
static void uhc_enable_timeout_callback(uint8_t timeout,
		uhc_sof_timeout_callback_t callback)
{
	uhc_sof_timeout_callback = callback;
80007f8a:	fe c9 01 22 	sub	r9,pc,290
80007f8e:	e0 68 09 94 	mov	r8,2452
	uhc_sof_timeout = timeout;
80007f92:	91 09       	st.w	r8[0x0],r9
80007f94:	31 49       	mov	r9,20
80007f96:	e0 68 1c b6 	mov	r8,7350
80007f9a:	b0 89       	st.b	r8[0x0],r9
80007f9c:	d8 02       	popm	pc
80007f9e:	d7 03       	nop

80007fa0 <uhc_enumeration_step9>:
80007fa0:	d4 21       	pushm	r4-r7,lr
80007fa2:	20 2d       	sub	sp,8
80007fa4:	30 18       	mov	r8,1
80007fa6:	e0 67 09 74 	mov	r7,2420
80007faa:	ba 18       	st.h	sp[0x2],r8
	}
	req.wValue = usb_addr_free;
	uhc_dev_enum->address = usb_addr_free;
#else
	req.wValue = UHC_DEVICE_ENUM_ADD;
	uhc_dev_enum->address = UHC_DEVICE_ENUM_ADD;
80007fac:	ef 68 00 12 	st.b	r7[18],r8
#endif
	req.wIndex = 0;
	req.wLength = 0;
80007fb0:	30 08       	mov	r8,0
	uhc_dev_enum->address = usb_addr_free;
#else
	req.wValue = UHC_DEVICE_ENUM_ADD;
	uhc_dev_enum->address = UHC_DEVICE_ENUM_ADD;
#endif
	req.wIndex = 0;
80007fb2:	ba 38       	st.h	sp[0x6],r8
 */
static void uhc_enumeration_step9(void)
{
	usb_setup_req_t req;

	req.bmRequestType = USB_REQ_RECIP_DEVICE
80007fb4:	ba 28       	st.h	sp[0x4],r8
			| USB_REQ_TYPE_STANDARD | USB_REQ_DIR_OUT;
	req.bRequest = USB_REQ_SET_ADDRESS;
80007fb6:	ba 88       	st.b	sp[0x0],r8
#endif
	req.wIndex = 0;
	req.wLength = 0;

	// After a USB reset, the reallocation is required
	uhd_ep_free(0, 0);
80007fb8:	30 58       	mov	r8,5
{
	usb_setup_req_t req;

	req.bmRequestType = USB_REQ_RECIP_DEVICE
			| USB_REQ_TYPE_STANDARD | USB_REQ_DIR_OUT;
	req.bRequest = USB_REQ_SET_ADDRESS;
80007fba:	30 0b       	mov	r11,0
#endif
	req.wIndex = 0;
	req.wLength = 0;

	// After a USB reset, the reallocation is required
	uhd_ep_free(0, 0);
80007fbc:	ba 98       	st.b	sp[0x1],r8
80007fbe:	16 9c       	mov	r12,r11
80007fc0:	fe b0 f8 da 	rcall	80007174 <uhd_ep_free>
	if (!uhd_ep0_alloc(0, uhc_dev_enum->dev_desc.bMaxPacketSize0)) {
80007fc4:	0f fb       	ld.ub	r11,r7[0x7]
80007fc6:	30 0c       	mov	r12,0
80007fc8:	fe b0 f9 dd 	rcall	80007382 <uhd_ep0_alloc>
		uhc_enumeration_error(UHC_ENUM_HARDWARE_LIMIT);
80007fcc:	c0 31       	brne	80007fd2 <uhc_enumeration_step9+0x32>
80007fce:	30 4c       	mov	r12,4
		return;
	}

	if (!uhd_setup_request(0,
80007fd0:	c1 08       	rjmp	80007ff0 <uhc_enumeration_step9+0x50>
80007fd2:	fe c9 ff da 	sub	r9,pc,-38
80007fd6:	30 08       	mov	r8,0
80007fd8:	1a d9       	st.w	--sp,r9
80007fda:	0e 9a       	mov	r10,r7
80007fdc:	fa cb ff fc 	sub	r11,sp,-4
80007fe0:	31 29       	mov	r9,18
80007fe2:	10 9c       	mov	r12,r8
80007fe4:	fe b0 f8 92 	rcall	80007108 <uhd_setup_request>
80007fe8:	2f fd       	sub	sp,-4
			&req,
			(uint8_t*)&uhc_dev_enum->dev_desc,
			sizeof(usb_dev_desc_t),
			NULL,
			uhc_enumeration_step10)) {
		uhc_enumeration_error(UHC_ENUM_MEMORY_LIMIT);
80007fea:	58 0c       	cp.w	r12,0
80007fec:	c0 31       	brne	80007ff2 <uhc_enumeration_step9+0x52>
80007fee:	30 6c       	mov	r12,6
		return;
	}
}
80007ff0:	c5 2f       	rcall	80007e94 <uhc_enumeration_error>
80007ff2:	2f ed       	sub	sp,-8
80007ff4:	d8 22       	popm	r4-r7,pc
80007ff6:	d7 03       	nop

80007ff8 <uhc_enumeration_step10>:
80007ff8:	d4 01       	pushm	lr
80007ffa:	58 0b       	cp.w	r11,0
80007ffc:	c0 80       	breq	8000800c <uhc_enumeration_step10+0x14>
80007ffe:	58 1b       	cp.w	r11,1
80008000:	f9 bc 00 07 	moveq	r12,7
80008004:	f9 bc 01 03 	movne	r12,3
80008008:	c4 6f       	rcall	80007e94 <uhc_enumeration_error>
8000800a:	d8 02       	popm	pc
	UNUSED(add);
	UNUSED(payload_trans);
	if (status != UHD_TRANS_NOERROR) {
		uhc_enumeration_error((status == UHD_TRANS_DISCONNECT) ?
				UHC_ENUM_DISCONNECT : UHC_ENUM_FAIL);
		return;
8000800c:	fe c9 ff ec 	sub	r9,pc,-20
 * \param callback Callback to call at the end of timeout
 */
static void uhc_enable_timeout_callback(uint8_t timeout,
		uhc_sof_timeout_callback_t callback)
{
	uhc_sof_timeout_callback = callback;
80008010:	e0 68 09 94 	mov	r8,2452
	uhc_sof_timeout = timeout;
80008014:	91 09       	st.w	r8[0x0],r9
80008016:	31 49       	mov	r9,20
80008018:	e0 68 1c b6 	mov	r8,7350
8000801c:	b0 89       	st.b	r8[0x0],r9
8000801e:	d8 02       	popm	pc

80008020 <uhc_enumeration_step11>:
80008020:	d4 21       	pushm	r4-r7,lr
80008022:	20 2d       	sub	sp,8
80008024:	30 0b       	mov	r11,0
80008026:	16 9c       	mov	r12,r11
80008028:	fe b0 f8 a6 	rcall	80007174 <uhd_ep_free>

	// Free address 0 used to start enumeration
	uhd_ep_free(0, 0);

	// Alloc control endpoint with the new USB address
	if (!uhd_ep0_alloc(UHC_DEVICE_ENUM_ADD,
8000802c:	30 1c       	mov	r12,1
8000802e:	e0 67 09 74 	mov	r7,2420
80008032:	0f fb       	ld.ub	r11,r7[0x7]
80008034:	fe b0 f9 a7 	rcall	80007382 <uhd_ep0_alloc>
			uhc_dev_enum->dev_desc.bMaxPacketSize0)) {
		uhc_enumeration_error(UHC_ENUM_HARDWARE_LIMIT);
80008038:	c0 31       	brne	8000803e <uhc_enumeration_step11+0x1e>
8000803a:	30 4c       	mov	r12,4
		return;
	}
	// Send USB device descriptor request
	req.bmRequestType = USB_REQ_RECIP_DEVICE|USB_REQ_TYPE_STANDARD|USB_REQ_DIR_IN;
8000803c:	c1 b8       	rjmp	80008072 <uhc_enumeration_step11+0x52>
8000803e:	38 08       	mov	r8,-128
	req.bRequest = USB_REQ_GET_DESCRIPTOR;
80008040:	ba 88       	st.b	sp[0x0],r8
80008042:	30 68       	mov	r8,6
	req.wValue = (USB_DT_DEVICE << 8);
80008044:	ba 98       	st.b	sp[0x1],r8
80008046:	e0 68 01 00 	mov	r8,256
	req.wIndex = 0;
8000804a:	ba 18       	st.h	sp[0x2],r8
8000804c:	30 08       	mov	r8,0
	req.wLength = sizeof(usb_dev_desc_t);
8000804e:	ba 28       	st.h	sp[0x4],r8
80008050:	31 28       	mov	r8,18
	if (!uhd_setup_request(UHC_DEVICE_ENUM_ADD,
80008052:	ba 38       	st.h	sp[0x6],r8
80008054:	fe c8 ff dc 	sub	r8,pc,-36
80008058:	0e 9a       	mov	r10,r7
8000805a:	1a d8       	st.w	--sp,r8
8000805c:	31 29       	mov	r9,18
8000805e:	fa cb ff fc 	sub	r11,sp,-4
80008062:	30 08       	mov	r8,0
80008064:	30 1c       	mov	r12,1
80008066:	fe b0 f8 51 	rcall	80007108 <uhd_setup_request>
8000806a:	2f fd       	sub	sp,-4
			&req,
			(uint8_t *) & uhc_dev_enum->dev_desc,
			sizeof(usb_dev_desc_t),
			NULL, uhc_enumeration_step12)) {
		uhc_enumeration_error(UHC_ENUM_MEMORY_LIMIT);
8000806c:	58 0c       	cp.w	r12,0
8000806e:	c0 31       	brne	80008074 <uhc_enumeration_step11+0x54>
80008070:	30 6c       	mov	r12,6
		return;
	}
}
80008072:	c1 1f       	rcall	80007e94 <uhc_enumeration_error>
80008074:	2f ed       	sub	sp,-8
80008076:	d8 22       	popm	r4-r7,pc

80008078 <uhc_enumeration_step12>:
80008078:	d4 21       	pushm	r4-r7,lr
8000807a:	20 2d       	sub	sp,8
8000807c:	31 29       	mov	r9,18
8000807e:	58 0b       	cp.w	r11,0
80008080:	5f 18       	srne	r8
80008082:	f2 0a 19 00 	cp.h	r10,r9
80008086:	5f 19       	srne	r9
80008088:	f3 e8 10 08 	or	r8,r9,r8
8000808c:	c0 91       	brne	8000809e <uhc_enumeration_step12+0x26>
8000808e:	e0 67 09 74 	mov	r7,2420
{
	usb_setup_req_t req;
	uint8_t conf_num;
	UNUSED(add);

	if ((status != UHD_TRANS_NOERROR) || (payload_trans != sizeof(usb_dev_desc_t))
80008092:	30 18       	mov	r8,1
80008094:	0f 99       	ld.ub	r9,r7[0x1]
80008096:	f0 09 18 00 	cp.b	r9,r8
8000809a:	c0 61       	brne	800080a6 <uhc_enumeration_step12+0x2e>
			|| (uhc_dev_enum->dev_desc.bDescriptorType != USB_DT_DEVICE)) {
		uhc_enumeration_error((status==UHD_TRANS_DISCONNECT)?
8000809c:	c0 78       	rjmp	800080aa <uhc_enumeration_step12+0x32>
8000809e:	58 1b       	cp.w	r11,1
800080a0:	c0 31       	brne	800080a6 <uhc_enumeration_step12+0x2e>
800080a2:	30 7c       	mov	r12,7
800080a4:	c2 28       	rjmp	800080e8 <uhc_enumeration_step12+0x70>
800080a6:	30 3c       	mov	r12,3
		conf_num = UHC_DEVICE_CONF(uhc_dev_enum);
	} else {
		conf_num = 1;
	}

	uhc_dev_enum->conf_desc = malloc(sizeof(usb_conf_desc_t));
800080a8:	c2 08       	rjmp	800080e8 <uhc_enumeration_step12+0x70>
800080aa:	30 9c       	mov	r12,9
800080ac:	e0 a0 03 58 	rcall	8000875c <malloc>
800080b0:	8f 6c       	st.w	r7[0x18],r12
	if (uhc_dev_enum->conf_desc == NULL) {
800080b2:	18 9a       	mov	r10,r12
		Assert(false);
		uhc_enumeration_error(UHC_ENUM_MEMORY_LIMIT);
		return;
	}
	// Send USB device descriptor request
	req.bmRequestType = USB_REQ_RECIP_DEVICE|USB_REQ_TYPE_STANDARD|USB_REQ_DIR_IN;
800080b4:	c1 90       	breq	800080e6 <uhc_enumeration_step12+0x6e>
800080b6:	38 08       	mov	r8,-128
	req.bRequest = USB_REQ_GET_DESCRIPTOR;
800080b8:	ba 88       	st.b	sp[0x0],r8
800080ba:	30 68       	mov	r8,6
	req.wValue = (USB_DT_CONFIGURATION << 8) | (conf_num - 1);
800080bc:	ba 98       	st.b	sp[0x1],r8
800080be:	e0 68 02 00 	mov	r8,512
	req.wIndex = 0;
800080c2:	ba 18       	st.h	sp[0x2],r8
800080c4:	30 08       	mov	r8,0
	req.wLength = sizeof(usb_conf_desc_t);
800080c6:	ba 28       	st.h	sp[0x4],r8
800080c8:	30 98       	mov	r8,9
	if (!uhd_setup_request(UHC_DEVICE_ENUM_ADD,
800080ca:	ba 38       	st.h	sp[0x6],r8
800080cc:	fe c8 ff dc 	sub	r8,pc,-36
800080d0:	30 99       	mov	r9,9
800080d2:	1a d8       	st.w	--sp,r8
800080d4:	30 1c       	mov	r12,1
800080d6:	fa cb ff fc 	sub	r11,sp,-4
800080da:	30 08       	mov	r8,0
800080dc:	fe b0 f8 16 	rcall	80007108 <uhd_setup_request>
800080e0:	2f fd       	sub	sp,-4
			&req,
			(uint8_t *) uhc_dev_enum->conf_desc,
			sizeof(usb_conf_desc_t),
			NULL, uhc_enumeration_step13)) {
		uhc_enumeration_error(UHC_ENUM_MEMORY_LIMIT);
800080e2:	58 0c       	cp.w	r12,0
800080e4:	c0 31       	brne	800080ea <uhc_enumeration_step12+0x72>
800080e6:	30 6c       	mov	r12,6
		return;
	}
}
800080e8:	cd 6e       	rcall	80007e94 <uhc_enumeration_error>
800080ea:	2f ed       	sub	sp,-8
800080ec:	d8 22       	popm	r4-r7,pc
800080ee:	d7 03       	nop

800080f0 <uhc_enumeration_step13>:
800080f0:	d4 21       	pushm	r4-r7,lr
800080f2:	20 2d       	sub	sp,8
800080f4:	30 99       	mov	r9,9
800080f6:	58 0b       	cp.w	r11,0
800080f8:	5f 18       	srne	r8
800080fa:	f2 0a 19 00 	cp.h	r10,r9
800080fe:	5f 19       	srne	r9
	uint16_t conf_size;
	uint16_t bus_power = 0;
	usb_setup_req_t req;
	UNUSED(add);

	if ((status != UHD_TRANS_NOERROR) || (payload_trans != sizeof(usb_conf_desc_t))
80008100:	f3 e8 10 08 	or	r8,r9,r8
80008104:	c0 a1       	brne	80008118 <uhc_enumeration_step13+0x28>
			|| (uhc_dev_enum->conf_desc->bDescriptorType != USB_DT_CONFIGURATION)) {
80008106:	e0 65 09 74 	mov	r5,2420
8000810a:	30 29       	mov	r9,2
	uint16_t conf_size;
	uint16_t bus_power = 0;
	usb_setup_req_t req;
	UNUSED(add);

	if ((status != UHD_TRANS_NOERROR) || (payload_trans != sizeof(usb_conf_desc_t))
8000810c:	6a 68       	ld.w	r8,r5[0x18]
8000810e:	11 9a       	ld.ub	r10,r8[0x1]
80008110:	f2 0a 18 00 	cp.b	r10,r9
80008114:	c0 61       	brne	80008120 <uhc_enumeration_step13+0x30>
			|| (uhc_dev_enum->conf_desc->bDescriptorType != USB_DT_CONFIGURATION)) {
		uhc_enumeration_error((status == UHD_TRANS_DISCONNECT)?
80008116:	c0 78       	rjmp	80008124 <uhc_enumeration_step13+0x34>
80008118:	58 1b       	cp.w	r11,1
8000811a:	c0 31       	brne	80008120 <uhc_enumeration_step13+0x30>
8000811c:	30 7c       	mov	r12,7
8000811e:	c3 08       	rjmp	8000817e <uhc_enumeration_step13+0x8e>
80008120:	30 3c       	mov	r12,3
	uhc_dev_enum->power = bus_power;
	uhc_power_running += bus_power;
#endif

	// Save information about USB configuration descriptor size
	conf_size = le16_to_cpu(uhc_dev_enum->conf_desc->wTotalLength);
80008122:	c2 e8       	rjmp	8000817e <uhc_enumeration_step13+0x8e>
	conf_num = uhc_dev_enum->conf_desc->bConfigurationValue;
	Assert(conf_num);
	// Re alloc USB configuration descriptor
	free(uhc_dev_enum->conf_desc);
80008124:	11 b9       	ld.ub	r9,r8[0x3]
	uhc_dev_enum->power = bus_power;
	uhc_power_running += bus_power;
#endif

	// Save information about USB configuration descriptor size
	conf_size = le16_to_cpu(uhc_dev_enum->conf_desc->wTotalLength);
80008126:	10 9c       	mov	r12,r8
	conf_num = uhc_dev_enum->conf_desc->bConfigurationValue;
80008128:	11 a6       	ld.ub	r6,r8[0x2]
	uhc_dev_enum->power = bus_power;
	uhc_power_running += bus_power;
#endif

	// Save information about USB configuration descriptor size
	conf_size = le16_to_cpu(uhc_dev_enum->conf_desc->wTotalLength);
8000812a:	11 d4       	ld.ub	r4,r8[0x5]
8000812c:	f3 e6 10 86 	or	r6,r9,r6<<0x8
80008130:	ec 08 16 08 	lsr	r8,r6,0x8
80008134:	f1 e6 10 86 	or	r6,r8,r6<<0x8
	conf_num = uhc_dev_enum->conf_desc->bConfigurationValue;
	Assert(conf_num);
	// Re alloc USB configuration descriptor
	free(uhc_dev_enum->conf_desc);
80008138:	e0 a0 03 0a 	rcall	8000874c <free>
	uhc_dev_enum->conf_desc = malloc(conf_size);
8000813c:	5c 86       	casts.h	r6
8000813e:	ef d6 c0 10 	bfextu	r7,r6,0x0,0x10
80008142:	0e 9c       	mov	r12,r7
80008144:	e0 a0 03 0c 	rcall	8000875c <malloc>
80008148:	8b 6c       	st.w	r5[0x18],r12
	if (uhc_dev_enum->conf_desc == NULL) {
8000814a:	18 9a       	mov	r10,r12
		Assert(false);
		uhc_enumeration_error(UHC_ENUM_MEMORY_LIMIT);
		return;
	}
	// Send USB device descriptor request
	req.bmRequestType =
8000814c:	c1 80       	breq	8000817c <uhc_enumeration_step13+0x8c>
8000814e:	38 08       	mov	r8,-128
			USB_REQ_RECIP_DEVICE | USB_REQ_TYPE_STANDARD |
			USB_REQ_DIR_IN;
	req.bRequest = USB_REQ_GET_DESCRIPTOR;
80008150:	ba 88       	st.b	sp[0x0],r8
80008152:	30 68       	mov	r8,6
	req.wValue = (USB_DT_CONFIGURATION << 8) | (conf_num - 1);
	req.wIndex = 0;
80008154:	ba 98       	st.b	sp[0x1],r8
80008156:	30 08       	mov	r8,0
	req.wLength = conf_size;
	if (!uhd_setup_request(UHC_DEVICE_ENUM_ADD,
80008158:	ba 28       	st.h	sp[0x4],r8
			USB_REQ_RECIP_DEVICE | USB_REQ_TYPE_STANDARD |
			USB_REQ_DIR_IN;
	req.bRequest = USB_REQ_GET_DESCRIPTOR;
	req.wValue = (USB_DT_CONFIGURATION << 8) | (conf_num - 1);
	req.wIndex = 0;
	req.wLength = conf_size;
8000815a:	fe c8 ff d6 	sub	r8,pc,-42
	if (!uhd_setup_request(UHC_DEVICE_ENUM_ADD,
8000815e:	ba 36       	st.h	sp[0x6],r6
	// Send USB device descriptor request
	req.bmRequestType =
			USB_REQ_RECIP_DEVICE | USB_REQ_TYPE_STANDARD |
			USB_REQ_DIR_IN;
	req.bRequest = USB_REQ_GET_DESCRIPTOR;
	req.wValue = (USB_DT_CONFIGURATION << 8) | (conf_num - 1);
80008160:	20 14       	sub	r4,1
	req.wIndex = 0;
	req.wLength = conf_size;
	if (!uhd_setup_request(UHC_DEVICE_ENUM_ADD,
80008162:	0e 99       	mov	r9,r7
	// Send USB device descriptor request
	req.bmRequestType =
			USB_REQ_RECIP_DEVICE | USB_REQ_TYPE_STANDARD |
			USB_REQ_DIR_IN;
	req.bRequest = USB_REQ_GET_DESCRIPTOR;
	req.wValue = (USB_DT_CONFIGURATION << 8) | (conf_num - 1);
80008164:	a9 b4       	sbr	r4,0x9
	req.wIndex = 0;
	req.wLength = conf_size;
	if (!uhd_setup_request(UHC_DEVICE_ENUM_ADD,
80008166:	30 1c       	mov	r12,1
80008168:	ba 14       	st.h	sp[0x2],r4
8000816a:	1a d8       	st.w	--sp,r8
8000816c:	30 08       	mov	r8,0
8000816e:	fa cb ff fc 	sub	r11,sp,-4
80008172:	fe b0 f7 cb 	rcall	80007108 <uhd_setup_request>
80008176:	2f fd       	sub	sp,-4
			&req,
			(uint8_t *) uhc_dev_enum->conf_desc,
			conf_size,
			NULL, uhc_enumeration_step14)) {
		uhc_enumeration_error(UHC_ENUM_MEMORY_LIMIT);
80008178:	58 0c       	cp.w	r12,0
8000817a:	c0 31       	brne	80008180 <uhc_enumeration_step13+0x90>
8000817c:	30 6c       	mov	r12,6
		return;
	}
}
8000817e:	c8 be       	rcall	80007e94 <uhc_enumeration_error>
80008180:	2f ed       	sub	sp,-8
80008182:	d8 22       	popm	r4-r7,pc

80008184 <uhc_enumeration_step14>:
80008184:	d4 21       	pushm	r4-r7,lr
80008186:	20 2d       	sub	sp,8
80008188:	30 89       	mov	r9,8
8000818a:	58 0b       	cp.w	r11,0
8000818c:	5f 18       	srne	r8
8000818e:	f2 0a 19 00 	cp.h	r10,r9
80008192:	5f 89       	srls	r9
80008194:	f3 e8 10 08 	or	r8,r9,r8
80008198:	c1 e1       	brne	800081d4 <uhc_enumeration_step14+0x50>
8000819a:	e0 67 09 74 	mov	r7,2420
	bool b_conf_supported = false;
	UNUSED(add);

	if ((status != UHD_TRANS_NOERROR)
			|| (payload_trans < sizeof(usb_conf_desc_t))
			|| (uhc_dev_enum->conf_desc->bDescriptorType != USB_DT_CONFIGURATION)
8000819e:	30 29       	mov	r9,2
{
	usb_setup_req_t req;
	bool b_conf_supported = false;
	UNUSED(add);

	if ((status != UHD_TRANS_NOERROR)
800081a0:	6e 68       	ld.w	r8,r7[0x18]
800081a2:	11 9b       	ld.ub	r11,r8[0x1]
800081a4:	f2 0b 18 00 	cp.b	r11,r9
			|| (payload_trans < sizeof(usb_conf_desc_t))
			|| (uhc_dev_enum->conf_desc->bDescriptorType != USB_DT_CONFIGURATION)
			|| (payload_trans != le16_to_cpu(uhc_dev_enum->conf_desc->wTotalLength))) {
800081a8:	c1 a1       	brne	800081dc <uhc_enumeration_step14+0x58>
800081aa:	11 b9       	ld.ub	r9,r8[0x3]
{
	usb_setup_req_t req;
	bool b_conf_supported = false;
	UNUSED(add);

	if ((status != UHD_TRANS_NOERROR)
800081ac:	11 a8       	ld.ub	r8,r8[0x2]
800081ae:	f3 e8 10 88 	or	r8,r9,r8<<0x8
800081b2:	f0 09 16 08 	lsr	r9,r8,0x8
800081b6:	f3 e8 10 88 	or	r8,r9,r8<<0x8
800081ba:	f0 0a 19 00 	cp.h	r10,r8
				UHC_ENUM_DISCONNECT:UHC_ENUM_FAIL);
		return;
	}
	// Check if unless one USB interface is supported by UHIs
	for (uint8_t i = 0; i < UHC_NB_UHI; i++) {
		switch (uhc_uhis[i].install(uhc_dev_enum)) {
800081be:	c0 f1       	brne	800081dc <uhc_enumeration_step14+0x58>
800081c0:	0e 9c       	mov	r12,r7
800081c2:	fe c8 e8 1e 	sub	r8,pc,-6114
800081c6:	70 08       	ld.w	r8,r8[0x0]
800081c8:	5d 18       	icall	r8
800081ca:	18 9b       	mov	r11,r12
800081cc:	c1 80       	breq	800081fc <uhc_enumeration_step14+0x78>
800081ce:	58 1c       	cp.w	r12,1

	if ((status != UHD_TRANS_NOERROR)
			|| (payload_trans < sizeof(usb_conf_desc_t))
			|| (uhc_dev_enum->conf_desc->bDescriptorType != USB_DT_CONFIGURATION)
			|| (payload_trans != le16_to_cpu(uhc_dev_enum->conf_desc->wTotalLength))) {
		uhc_enumeration_error((status==UHD_TRANS_DISCONNECT)?
800081d0:	c0 81       	brne	800081e0 <uhc_enumeration_step14+0x5c>
800081d2:	c0 f8       	rjmp	800081f0 <uhc_enumeration_step14+0x6c>
800081d4:	58 1b       	cp.w	r11,1
800081d6:	c0 31       	brne	800081dc <uhc_enumeration_step14+0x58>
800081d8:	30 7c       	mov	r12,7
800081da:	c2 88       	rjmp	8000822a <uhc_enumeration_step14+0xa6>
			break;

		default:
			// USB host hardware limitation
			// Free all endpoints
			uhd_ep_free(UHC_DEVICE_ENUM_ADD,0xFF);
800081dc:	30 3c       	mov	r12,3
800081de:	c2 68       	rjmp	8000822a <uhc_enumeration_step14+0xa6>
800081e0:	e0 6b 00 ff 	mov	r11,255
800081e4:	30 1c       	mov	r12,1
			UHC_ENUM_EVENT(uhc_dev_enum,UHC_ENUM_HARDWARE_LIMIT);
800081e6:	fe b0 f7 c7 	rcall	80007174 <uhd_ep_free>
800081ea:	0e 9c       	mov	r12,r7
			return;
		}
	}
	if (!b_conf_supported) {
		// No USB interface supported
		UHC_ENUM_EVENT(uhc_dev_enum, UHC_ENUM_UNSUPPORTED);
800081ec:	30 4b       	mov	r11,4
800081ee:	c0 28       	rjmp	800081f2 <uhc_enumeration_step14+0x6e>
800081f0:	0e 9c       	mov	r12,r7
		uhi_hub_suspend(uhc_dev_enum);
	} else
#endif
	{
		// Suspend USB line
		uhd_suspend();
800081f2:	fe b0 ec a7 	rcall	80005b40 <usb_enum>
800081f6:	fe b0 f4 6b 	rcall	80006acc <uhd_suspend>
	}
	// Enable device configuration
	req.bmRequestType = USB_REQ_RECIP_DEVICE
			| USB_REQ_TYPE_STANDARD | USB_REQ_DIR_OUT;
	req.bRequest = USB_REQ_SET_CONFIGURATION;
	req.wValue = uhc_dev_enum->conf_desc->bConfigurationValue;
800081fa:	c1 98       	rjmp	8000822c <uhc_enumeration_step14+0xa8>
		return;
	}
	// Enable device configuration
	req.bmRequestType = USB_REQ_RECIP_DEVICE
			| USB_REQ_TYPE_STANDARD | USB_REQ_DIR_OUT;
	req.bRequest = USB_REQ_SET_CONFIGURATION;
800081fc:	ba 8c       	st.b	sp[0x0],r12
800081fe:	6e 69       	ld.w	r9,r7[0x18]
	req.wValue = uhc_dev_enum->conf_desc->bConfigurationValue;
80008200:	30 9a       	mov	r10,9
80008202:	ba 9a       	st.b	sp[0x1],r10
	req.wIndex = 0;
	req.wLength = 0;
	if (!uhd_setup_request(UHC_DEVICE_ENUM_ADD,
80008204:	13 d9       	ld.ub	r9,r9[0x5]
	// Enable device configuration
	req.bmRequestType = USB_REQ_RECIP_DEVICE
			| USB_REQ_TYPE_STANDARD | USB_REQ_DIR_OUT;
	req.bRequest = USB_REQ_SET_CONFIGURATION;
	req.wValue = uhc_dev_enum->conf_desc->bConfigurationValue;
	req.wIndex = 0;
80008206:	ba 19       	st.h	sp[0x2],r9
	req.wLength = 0;
80008208:	fe c9 ff d8 	sub	r9,pc,-40
	if (!uhd_setup_request(UHC_DEVICE_ENUM_ADD,
8000820c:	ba 2c       	st.h	sp[0x4],r12
8000820e:	ba 3c       	st.h	sp[0x6],r12
80008210:	18 98       	mov	r8,r12
80008212:	1a d9       	st.w	--sp,r9
80008214:	18 9a       	mov	r10,r12
80008216:	18 99       	mov	r9,r12
80008218:	fa cb ff fc 	sub	r11,sp,-4
8000821c:	30 1c       	mov	r12,1
8000821e:	fe b0 f7 75 	rcall	80007108 <uhd_setup_request>
			&req,
			NULL,
			0,
			NULL, uhc_enumeration_step15)) {
		uhc_enumeration_error(UHC_ENUM_MEMORY_LIMIT);
80008222:	2f fd       	sub	sp,-4
80008224:	58 0c       	cp.w	r12,0
80008226:	c0 31       	brne	8000822c <uhc_enumeration_step14+0xa8>
		return;
	}
}
80008228:	30 6c       	mov	r12,6
8000822a:	c3 5e       	rcall	80007e94 <uhc_enumeration_error>
8000822c:	2f ed       	sub	sp,-8
8000822e:	d8 22       	popm	r4-r7,pc

80008230 <uhc_enumeration_step15>:
80008230:	d4 21       	pushm	r4-r7,lr
80008232:	30 08       	mov	r8,0
80008234:	58 0b       	cp.w	r11,0
80008236:	5f 19       	srne	r9
80008238:	f0 0a 19 00 	cp.h	r10,r8
8000823c:	5f 16       	srne	r6
8000823e:	16 97       	mov	r7,r11
80008240:	12 46       	or	r6,r9
80008242:	10 99       	mov	r9,r8
80008244:	fe c8 e8 a0 	sub	r8,pc,-5984
80008248:	f2 06 18 00 	cp.b	r6,r9
		return;
	}

	// Enable all UHIs supported
	for (uint8_t i = 0; i < UHC_NB_UHI; i++) {
		uhc_uhis[i].enable(uhc_dev_enum);
8000824c:	c0 e1       	brne	80008268 <uhc_enumeration_step15+0x38>
8000824e:	70 18       	ld.w	r8,r8[0x4]
80008250:	e0 6c 09 74 	mov	r12,2420
	uhc_dev_enum->lpm_desc = NULL;
#endif

	uhc_enum_try = 0;

	UHC_ENUM_EVENT(uhc_dev_enum, UHC_ENUM_SUCCESS);
80008254:	5d 18       	icall	r8
		return;
	}
	uhc_dev_enum->lpm_desc = NULL;
#endif

	uhc_enum_try = 0;
80008256:	e0 68 09 90 	mov	r8,2448

	UHC_ENUM_EVENT(uhc_dev_enum, UHC_ENUM_SUCCESS);
8000825a:	30 0b       	mov	r11,0
8000825c:	b0 86       	st.b	r8[0x0],r6
8000825e:	e0 6c 09 74 	mov	r12,2420
		uint16_t payload_trans)
{
	UNUSED(add);
	if ((status!=UHD_TRANS_NOERROR) || (payload_trans!=0)) {
		for(uint8_t i = 0; i < UHC_NB_UHI; i++) {
			uhc_uhis[i].uninstall(uhc_dev_enum);
80008262:	fe b0 ec 6f 	rcall	80005b40 <usb_enum>
		}
		uhc_enumeration_error((status == UHD_TRANS_DISCONNECT)?
80008266:	d8 22       	popm	r4-r7,pc
80008268:	70 28       	ld.w	r8,r8[0x8]
8000826a:	e0 6c 09 74 	mov	r12,2420
8000826e:	5d 18       	icall	r8
80008270:	58 17       	cp.w	r7,1
80008272:	f9 bc 00 07 	moveq	r12,7
80008276:	f9 bc 01 03 	movne	r12,3
8000827a:	c0 de       	rcall	80007e94 <uhc_enumeration_error>
8000827c:	d8 22       	popm	r4-r7,pc
8000827e:	d7 03       	nop

80008280 <uhc_notify_connection>:
80008280:	d4 21       	pushm	r4-r7,lr
80008282:	e0 67 09 74 	mov	r7,2420
80008286:	18 96       	mov	r6,r12
80008288:	58 0c       	cp.w	r12,0
8000828a:	c0 81       	brne	8000829a <uhc_notify_connection+0x1a>

#ifdef USB_HOST_HUB_SUPPORT
		uhc_power_running = 0;
#endif
	} else {
		if (g_uhc_device_root.address == UHC_USB_ADD_NOT_VALID) {
8000828c:	ef 3c 00 12 	ld.ub	r12,r7[18]
80008290:	3f f5       	mov	r5,-1
80008292:	ea 0c 18 00 	cp.b	r12,r5
80008296:	c1 31       	brne	800082bc <uhc_notify_connection+0x3c>
	if (b_plug) {
		uhc_enum_try = 1;
#ifdef USB_HOST_HUB_SUPPORT
		uhc_dev_enum = dev;
#endif
		uhc_dev_enum->conf_desc = NULL;
80008298:	d8 22       	popm	r4-r7,pc
 * \param dev      Information about device connected or disconnected
 */
static void uhc_connection_tree(bool b_plug, uhc_device_t* dev)
{
	if (b_plug) {
		uhc_enum_try = 1;
8000829a:	30 08       	mov	r8,0
#ifdef USB_HOST_HUB_SUPPORT
		uhc_dev_enum = dev;
#endif
		uhc_dev_enum->conf_desc = NULL;
		uhc_dev_enum->address = 0;
8000829c:	30 19       	mov	r9,1
8000829e:	ef 68 00 12 	st.b	r7[18],r8
 * \param dev      Information about device connected or disconnected
 */
static void uhc_connection_tree(bool b_plug, uhc_device_t* dev)
{
	if (b_plug) {
		uhc_enum_try = 1;
800082a2:	8f 68       	st.w	r7[0x18],r8
#ifdef USB_HOST_HUB_SUPPORT
		uhc_dev_enum = dev;
#endif
		uhc_dev_enum->conf_desc = NULL;
		uhc_dev_enum->address = 0;
		UHC_CONNECTION_EVENT(uhc_dev_enum, true);
800082a4:	e0 68 09 90 	mov	r8,2448
800082a8:	0e 9c       	mov	r12,r7
800082aa:	b0 89       	st.b	r8[0x0],r9
800082ac:	30 1b       	mov	r11,1
		// Device connected on USB hub
		uhi_hub_send_reset(uhc_dev_enum, callback);
	} else
#endif
	{
		uhd_send_reset(callback);
800082ae:	fe b0 ec 46 	rcall	80005b3a <usb_connection>
800082b2:	fe cc 05 2a 	sub	r12,pc,1322
		UHC_CONNECTION_EVENT(uhc_dev_enum, true);
		uhc_enumeration_step1();
	} else {
		if (uhc_dev_enum == dev) {
			// Eventually stop enumeration timeout on-going on this device
			uhc_sof_timeout = 0;
800082b6:	fe b0 f4 01 	rcall	80006ab8 <uhd_send_reset>
		}
		// Abort all transfers (endpoint control and other) and free pipe(s)
		uhd_ep_free(dev->address, 0xFF);
800082ba:	d8 22       	popm	r4-r7,pc
		UHC_CONNECTION_EVENT(uhc_dev_enum, true);
		uhc_enumeration_step1();
	} else {
		if (uhc_dev_enum == dev) {
			// Eventually stop enumeration timeout on-going on this device
			uhc_sof_timeout = 0;
800082bc:	e0 68 1c b6 	mov	r8,7350
		}
		// Abort all transfers (endpoint control and other) and free pipe(s)
		uhd_ep_free(dev->address, 0xFF);
800082c0:	e0 6b 00 ff 	mov	r11,255

		// Disable all USB interfaces (this includes HUB interface)
		for (uint8_t i = 0; i < UHC_NB_UHI; i++) {
			uhc_uhis[i].uninstall(dev);
800082c4:	b0 86       	st.b	r8[0x0],r6
800082c6:	fe b0 f7 57 	rcall	80007174 <uhd_ep_free>
		}

		UHC_CONNECTION_EVENT(dev, false);
800082ca:	0e 9c       	mov	r12,r7
800082cc:	fe c8 e9 28 	sub	r8,pc,-5848
800082d0:	70 28       	ld.w	r8,r8[0x8]
		dev->address = UHC_USB_ADD_NOT_VALID;
800082d2:	5d 18       	icall	r8
800082d4:	0e 9c       	mov	r12,r7
		// Free USB configuration descriptor buffer
		if (dev->conf_desc != NULL) {
800082d6:	0c 9b       	mov	r11,r6
800082d8:	fe b0 ec 31 	rcall	80005b3a <usb_connection>
			free(dev->conf_desc);
800082dc:	ef 65 00 12 	st.b	r7[18],r5
800082e0:	6e 6c       	ld.w	r12,r7[0x18]
800082e2:	58 0c       	cp.w	r12,0
800082e4:	c0 30       	breq	800082ea <uhc_notify_connection+0x6a>
800082e6:	e0 a0 02 33 	rcall	8000874c <free>
800082ea:	d8 22       	popm	r4-r7,pc

800082ec <sysclk_priv_disable_module>:
800082ec:	e1 b9 00 00 	mfsr	r9,0x0
800082f0:	d3 03       	ssrf	0x10
800082f2:	fe 7a 0c 00 	mov	r10,-62464
800082f6:	75 58       	ld.w	r8,r10[0x54]
800082f8:	ed b8 00 06 	bld	r8,0x6
800082fc:	cf d1       	brne	800082f6 <sysclk_priv_disable_module+0xa>
800082fe:	30 18       	mov	r8,1
80008300:	a3 6c       	lsl	r12,0x2
80008302:	f0 0b 09 4b 	lsl	r11,r8,r11
80008306:	e0 2c f3 f8 	sub	r12,62456
8000830a:	5c db       	com	r11
8000830c:	78 08       	ld.w	r8,r12[0x0]
8000830e:	10 6b       	and	r11,r8
80008310:	99 0b       	st.w	r12[0x0],r11
80008312:	ed b9 00 10 	bld	r9,0x10
80008316:	c0 20       	breq	8000831a <sysclk_priv_disable_module+0x2e>
80008318:	d5 03       	csrf	0x10
8000831a:	5e fc       	retal	r12

8000831c <sysclk_disable_pbb_module>:
8000831c:	d4 21       	pushm	r4-r7,lr
8000831e:	18 9b       	mov	r11,r12
80008320:	30 3c       	mov	r12,3
80008322:	ce 5f       	rcall	800082ec <sysclk_priv_disable_module>
80008324:	e1 b7 00 00 	mfsr	r7,0x0
80008328:	d3 03       	ssrf	0x10
8000832a:	e0 69 09 98 	mov	r9,2456
8000832e:	13 88       	ld.ub	r8,r9[0x0]
80008330:	20 18       	sub	r8,1
80008332:	5c 58       	castu.b	r8
80008334:	b2 88       	st.b	r9[0x0],r8
80008336:	c0 41       	brne	8000833e <sysclk_disable_pbb_module+0x22>
80008338:	30 2b       	mov	r11,2
8000833a:	30 1c       	mov	r12,1
8000833c:	cd 8f       	rcall	800082ec <sysclk_priv_disable_module>
8000833e:	e6 17 00 01 	andh	r7,0x1,COH
80008342:	c0 21       	brne	80008346 <sysclk_disable_pbb_module+0x2a>
80008344:	d5 03       	csrf	0x10
80008346:	d8 22       	popm	r4-r7,pc

80008348 <sysclk_disable_usb>:
80008348:	d4 01       	pushm	lr
8000834a:	30 09       	mov	r9,0
8000834c:	fe 78 0c 00 	mov	r8,-62464
80008350:	30 1c       	mov	r12,1
80008352:	f1 49 00 6c 	st.w	r8[108],r9
80008356:	30 3b       	mov	r11,3
80008358:	cc af       	rcall	800082ec <sysclk_priv_disable_module>
8000835a:	30 1c       	mov	r12,1
8000835c:	ce 0f       	rcall	8000831c <sysclk_disable_pbb_module>
8000835e:	d8 02       	popm	pc

80008360 <sysclk_priv_enable_module>:
80008360:	e1 b9 00 00 	mfsr	r9,0x0
80008364:	d3 03       	ssrf	0x10
80008366:	fe 7a 0c 00 	mov	r10,-62464
8000836a:	75 58       	ld.w	r8,r10[0x54]
8000836c:	ed b8 00 06 	bld	r8,0x6
80008370:	cf d1       	brne	8000836a <sysclk_priv_enable_module+0xa>
80008372:	30 18       	mov	r8,1
80008374:	a3 6c       	lsl	r12,0x2
80008376:	f0 0b 09 4b 	lsl	r11,r8,r11
8000837a:	e0 2c f3 f8 	sub	r12,62456
8000837e:	78 08       	ld.w	r8,r12[0x0]
80008380:	10 4b       	or	r11,r8
80008382:	99 0b       	st.w	r12[0x0],r11
80008384:	ed b9 00 10 	bld	r9,0x10
80008388:	c0 20       	breq	8000838c <sysclk_priv_enable_module+0x2c>
8000838a:	d5 03       	csrf	0x10
8000838c:	5e fc       	retal	r12
8000838e:	d7 03       	nop

80008390 <sysclk_enable_pbb_module>:
80008390:	d4 21       	pushm	r4-r7,lr
80008392:	18 97       	mov	r7,r12
80008394:	e1 b6 00 00 	mfsr	r6,0x0
80008398:	d3 03       	ssrf	0x10
8000839a:	e0 68 09 98 	mov	r8,2456
8000839e:	11 89       	ld.ub	r9,r8[0x0]
800083a0:	30 08       	mov	r8,0
800083a2:	f0 09 18 00 	cp.b	r9,r8
800083a6:	c0 41       	brne	800083ae <sysclk_enable_pbb_module+0x1e>
800083a8:	30 2b       	mov	r11,2
800083aa:	30 1c       	mov	r12,1
800083ac:	cd af       	rcall	80008360 <sysclk_priv_enable_module>
800083ae:	e0 68 09 98 	mov	r8,2456
800083b2:	11 89       	ld.ub	r9,r8[0x0]
800083b4:	2f f9       	sub	r9,-1
800083b6:	b0 89       	st.b	r8[0x0],r9
800083b8:	e6 16 00 01 	andh	r6,0x1,COH
800083bc:	c0 21       	brne	800083c0 <sysclk_enable_pbb_module+0x30>
800083be:	d5 03       	csrf	0x10
800083c0:	30 3c       	mov	r12,3
800083c2:	0e 9b       	mov	r11,r7
800083c4:	cc ef       	rcall	80008360 <sysclk_priv_enable_module>
800083c6:	d8 22       	popm	r4-r7,pc

800083c8 <T.62>:
800083c8:	fe 78 0c 00 	mov	r8,-62464
800083cc:	71 59       	ld.w	r9,r8[0x54]
800083ce:	ed b9 00 07 	bld	r9,0x7
800083d2:	5e 0c       	reteq	r12
800083d4:	e1 b9 00 00 	mfsr	r9,0x0
800083d8:	d3 03       	ssrf	0x10
800083da:	e0 6a 03 07 	mov	r10,775
800083de:	91 aa       	st.w	r8[0x28],r10
800083e0:	70 0a       	ld.w	r10,r8[0x0]
800083e2:	a3 aa       	sbr	r10,0x2
800083e4:	91 0a       	st.w	r8[0x0],r10
800083e6:	ed b9 00 10 	bld	r9,0x10
800083ea:	c0 20       	breq	800083ee <T.62+0x26>
800083ec:	d5 03       	csrf	0x10
800083ee:	fe 79 0c 00 	mov	r9,-62464
800083f2:	73 58       	ld.w	r8,r9[0x54]
800083f4:	ed b8 00 07 	bld	r8,0x7
800083f8:	cf d1       	brne	800083f2 <T.62+0x2a>
800083fa:	5e fc       	retal	r12

800083fc <pll_enable_config_defaults>:
800083fc:	d4 21       	pushm	r4-r7,lr
800083fe:	fe 78 0c 00 	mov	r8,-62464
80008402:	71 58       	ld.w	r8,r8[0x54]
80008404:	30 16       	mov	r6,1
80008406:	18 97       	mov	r7,r12
80008408:	ec 0c 09 46 	lsl	r6,r6,r12
8000840c:	ed e8 00 08 	and	r8,r6,r8
80008410:	c1 b1       	brne	80008446 <pll_enable_config_defaults+0x4a>
80008412:	58 0c       	cp.w	r12,0
80008414:	c0 40       	breq	8000841c <pll_enable_config_defaults+0x20>
80008416:	58 1c       	cp.w	r12,1
80008418:	c0 d1       	brne	80008432 <pll_enable_config_defaults+0x36>
8000841a:	c0 78       	rjmp	80008428 <pll_enable_config_defaults+0x2c>
8000841c:	cd 6f       	rcall	800083c8 <T.62>
8000841e:	e0 68 01 0c 	mov	r8,268
80008422:	ea 18 3f 09 	orh	r8,0x3f09
80008426:	c0 68       	rjmp	80008432 <pll_enable_config_defaults+0x36>
80008428:	cd 0f       	rcall	800083c8 <T.62>
8000842a:	e0 68 01 0c 	mov	r8,268
8000842e:	ea 18 3f 07 	orh	r8,0x3f07
80008432:	a1 a8       	sbr	r8,0x0
80008434:	2f 87       	sub	r7,-8
80008436:	fe 79 0c 00 	mov	r9,-62464
8000843a:	f2 07 09 28 	st.w	r9[r7<<0x2],r8
8000843e:	73 58       	ld.w	r8,r9[0x54]
80008440:	ed e8 00 08 	and	r8,r6,r8
80008444:	cf d0       	breq	8000843e <pll_enable_config_defaults+0x42>
80008446:	d8 22       	popm	r4-r7,pc

80008448 <sysclk_init>:
80008448:	d4 01       	pushm	lr
8000844a:	30 0c       	mov	r12,0
8000844c:	cd 8f       	rcall	800083fc <pll_enable_config_defaults>
8000844e:	e0 6c 87 00 	mov	r12,34560
80008452:	ea 1c 03 93 	orh	r12,0x393
80008456:	fe b0 ed 6d 	rcall	80005f30 <flashc_set_bus_freq>
8000845a:	e1 b9 00 00 	mfsr	r9,0x0
8000845e:	d3 03       	ssrf	0x10
80008460:	fe 7a 0c 00 	mov	r10,-62464
80008464:	74 08       	ld.w	r8,r10[0x0]
80008466:	e0 18 ff fc 	andl	r8,0xfffc
8000846a:	a1 b8       	sbr	r8,0x1
8000846c:	95 08       	st.w	r10[0x0],r8
8000846e:	ed b9 00 10 	bld	r9,0x10
80008472:	c0 20       	breq	80008476 <sysclk_init+0x2e>
80008474:	d5 03       	csrf	0x10
80008476:	d8 02       	popm	pc

80008478 <sysclk_enable_usb>:
80008478:	d4 01       	pushm	lr
8000847a:	30 1c       	mov	r12,1
8000847c:	c8 af       	rcall	80008390 <sysclk_enable_pbb_module>
8000847e:	30 3b       	mov	r11,3
80008480:	30 1c       	mov	r12,1
80008482:	c6 ff       	rcall	80008360 <sysclk_priv_enable_module>
80008484:	30 1c       	mov	r12,1
80008486:	cb bf       	rcall	800083fc <pll_enable_config_defaults>
80008488:	30 79       	mov	r9,7
8000848a:	fe 78 0c 00 	mov	r8,-62464
8000848e:	f1 49 00 6c 	st.w	r8[108],r9
80008492:	d8 02       	popm	pc

80008494 <__avr32_udiv64>:
#endif

#ifdef L_udivdi3
UDWtype
__udivdi3 (UDWtype n, UDWtype d)
{
80008494:	d4 31       	pushm	r0-r7,lr
80008496:	1a 97       	mov	r7,sp
80008498:	20 2d       	sub	sp,8
  DWunion rr;
  UWtype d0, d1, n0, n1, n2;
  UWtype q0, q1;
  UWtype b, bm;

  d0 = dd.s.low;
8000849a:	10 9c       	mov	r12,r8
  d1 = dd.s.high;
8000849c:	12 9e       	mov	lr,r9
  n0 = nn.s.low;
8000849e:	14 93       	mov	r3,r10
	}
    }

#else /* UDIV_NEEDS_NORMALIZATION */

  if (d1 == 0)
800084a0:	58 09       	cp.w	r9,0
800084a2:	e0 81 00 cd 	brne	8000863c <__avr32_udiv64+0x1a8>
    {
      if (d0 > n1)
800084a6:	16 38       	cp.w	r8,r11
800084a8:	e0 88 00 45 	brls	80008532 <__avr32_udiv64+0x9e>
	{
	  /* 0q = nn / 0D */

	  count_leading_zeros (bm, d0);
800084ac:	f0 08 12 00 	clz	r8,r8

	  if (bm != 0)
800084b0:	c0 d0       	breq	800084ca <__avr32_udiv64+0x36>
	    {
	      /* Normalize, i.e. make the most significant bit of the
		 denominator set.  */

	      d0 = d0 << bm;
	      n1 = (n1 << bm) | (n0 >> (W_TYPE_SIZE - bm));
800084b2:	f6 08 09 4b 	lsl	r11,r11,r8
800084b6:	f0 09 11 20 	rsub	r9,r8,32
	  if (bm != 0)
	    {
	      /* Normalize, i.e. make the most significant bit of the
		 denominator set.  */

	      d0 = d0 << bm;
800084ba:	f8 08 09 4c 	lsl	r12,r12,r8
	      n1 = (n1 << bm) | (n0 >> (W_TYPE_SIZE - bm));
800084be:	f4 09 0a 49 	lsr	r9,r10,r9
	      n0 = n0 << bm;
800084c2:	f4 08 09 43 	lsl	r3,r10,r8
	    {
	      /* Normalize, i.e. make the most significant bit of the
		 denominator set.  */

	      d0 = d0 << bm;
	      n1 = (n1 << bm) | (n0 >> (W_TYPE_SIZE - bm));
800084c6:	f3 eb 10 0b 	or	r11,r9,r11
	      n0 = n0 << bm;
	    }

	  udiv_qrnnd (q0, n0, n1, n0, d0);
800084ca:	f8 0e 16 10 	lsr	lr,r12,0x10
800084ce:	f5 dc c0 10 	bfextu	r10,r12,0x0,0x10
800084d2:	f6 0e 0d 00 	divu	r0,r11,lr
800084d6:	e6 0b 16 10 	lsr	r11,r3,0x10
800084da:	00 99       	mov	r9,r0
800084dc:	f7 e1 11 0b 	or	r11,r11,r1<<0x10
800084e0:	e0 0a 02 48 	mul	r8,r0,r10
800084e4:	10 3b       	cp.w	r11,r8
800084e6:	c0 d2       	brcc	80008500 <__avr32_udiv64+0x6c>
800084e8:	20 19       	sub	r9,1
800084ea:	18 0b       	add	r11,r12
800084ec:	18 3b       	cp.w	r11,r12
800084ee:	c0 93       	brcs	80008500 <__avr32_udiv64+0x6c>
800084f0:	f2 c5 00 01 	sub	r5,r9,1
800084f4:	f6 0c 00 06 	add	r6,r11,r12
800084f8:	10 3b       	cp.w	r11,r8
800084fa:	c0 32       	brcc	80008500 <__avr32_udiv64+0x6c>
800084fc:	0a 99       	mov	r9,r5
800084fe:	0c 9b       	mov	r11,r6
80008500:	f6 08 01 01 	sub	r1,r11,r8
80008504:	e7 d3 c0 10 	bfextu	r3,r3,0x0,0x10
80008508:	e2 0e 0d 00 	divu	r0,r1,lr
8000850c:	e7 e1 11 03 	or	r3,r3,r1<<0x10
80008510:	00 98       	mov	r8,r0
80008512:	e0 0a 02 4a 	mul	r10,r0,r10
80008516:	14 33       	cp.w	r3,r10
80008518:	c0 a2       	brcc	8000852c <__avr32_udiv64+0x98>
8000851a:	20 18       	sub	r8,1
8000851c:	18 03       	add	r3,r12
8000851e:	18 33       	cp.w	r3,r12
80008520:	c0 63       	brcs	8000852c <__avr32_udiv64+0x98>
80008522:	f0 cb 00 01 	sub	r11,r8,1
80008526:	14 33       	cp.w	r3,r10
80008528:	f6 08 17 30 	movlo	r8,r11
8000852c:	f1 e9 11 08 	or	r8,r8,r9<<0x10
80008530:	ce c8       	rjmp	80008708 <__avr32_udiv64+0x274>
	}
      else
	{
	  /* qq = NN / 0d */

	  if (d0 == 0)
80008532:	58 08       	cp.w	r8,0
80008534:	c0 51       	brne	8000853e <__avr32_udiv64+0xaa>
	    d0 = 1 / d0;	/* Divide intentionally by zero.  */
80008536:	30 19       	mov	r9,1
80008538:	f2 08 0d 08 	divu	r8,r9,r8
8000853c:	10 9c       	mov	r12,r8

	  count_leading_zeros (bm, d0);
8000853e:	f8 06 12 00 	clz	r6,r12

	  if (bm == 0)
80008542:	c0 41       	brne	8000854a <__avr32_udiv64+0xb6>
		 leading quotient digit q1 = 1).

		 This special case is necessary, not an optimization.
		 (Shifts counts of W_TYPE_SIZE are undefined.)  */

	      n1 -= d0;
80008544:	18 1b       	sub	r11,r12
80008546:	30 19       	mov	r9,1
80008548:	c4 68       	rjmp	800085d4 <__avr32_udiv64+0x140>
	      /* Normalize.  */

	      b = W_TYPE_SIZE - bm;

	      d0 = d0 << bm;
	      n2 = n1 >> b;
8000854a:	ec 01 11 20 	rsub	r1,r6,32
	      n1 = (n1 << bm) | (n0 >> b);
8000854e:	f4 01 0a 49 	lsr	r9,r10,r1
	    {
	      /* Normalize.  */

	      b = W_TYPE_SIZE - bm;

	      d0 = d0 << bm;
80008552:	f8 06 09 4c 	lsl	r12,r12,r6
	      n2 = n1 >> b;
	      n1 = (n1 << bm) | (n0 >> b);
80008556:	f6 06 09 48 	lsl	r8,r11,r6
	      /* Normalize.  */

	      b = W_TYPE_SIZE - bm;

	      d0 = d0 << bm;
	      n2 = n1 >> b;
8000855a:	f6 01 0a 41 	lsr	r1,r11,r1
	      n1 = (n1 << bm) | (n0 >> b);
8000855e:	f3 e8 10 08 	or	r8,r9,r8
	      n0 = n0 << bm;

	      udiv_qrnnd (q1, n1, n2, n1, d0);
80008562:	f8 03 16 10 	lsr	r3,r12,0x10
80008566:	eb dc c0 10 	bfextu	r5,r12,0x0,0x10
8000856a:	e2 03 0d 00 	divu	r0,r1,r3
8000856e:	f0 0b 16 10 	lsr	r11,r8,0x10
80008572:	00 9e       	mov	lr,r0
80008574:	f7 e1 11 0b 	or	r11,r11,r1<<0x10
80008578:	e0 05 02 49 	mul	r9,r0,r5
8000857c:	12 3b       	cp.w	r11,r9
8000857e:	c0 d2       	brcc	80008598 <__avr32_udiv64+0x104>
80008580:	20 1e       	sub	lr,1
80008582:	18 0b       	add	r11,r12
80008584:	18 3b       	cp.w	r11,r12
80008586:	c0 93       	brcs	80008598 <__avr32_udiv64+0x104>
80008588:	fc c1 00 01 	sub	r1,lr,1
8000858c:	f6 0c 00 02 	add	r2,r11,r12
80008590:	12 3b       	cp.w	r11,r9
80008592:	c0 32       	brcc	80008598 <__avr32_udiv64+0x104>
80008594:	02 9e       	mov	lr,r1
80008596:	04 9b       	mov	r11,r2
80008598:	12 1b       	sub	r11,r9
8000859a:	f1 d8 c0 10 	bfextu	r8,r8,0x0,0x10
8000859e:	f6 03 0d 02 	divu	r2,r11,r3
800085a2:	f1 e3 11 08 	or	r8,r8,r3<<0x10
800085a6:	04 99       	mov	r9,r2
800085a8:	e4 05 02 4b 	mul	r11,r2,r5
800085ac:	16 38       	cp.w	r8,r11
800085ae:	c0 d2       	brcc	800085c8 <__avr32_udiv64+0x134>
800085b0:	20 19       	sub	r9,1
800085b2:	18 08       	add	r8,r12
800085b4:	18 38       	cp.w	r8,r12
800085b6:	c0 93       	brcs	800085c8 <__avr32_udiv64+0x134>
800085b8:	f2 c3 00 01 	sub	r3,r9,1
800085bc:	f0 0c 00 05 	add	r5,r8,r12
800085c0:	16 38       	cp.w	r8,r11
800085c2:	c0 32       	brcc	800085c8 <__avr32_udiv64+0x134>
800085c4:	06 99       	mov	r9,r3
800085c6:	0a 98       	mov	r8,r5
	      b = W_TYPE_SIZE - bm;

	      d0 = d0 << bm;
	      n2 = n1 >> b;
	      n1 = (n1 << bm) | (n0 >> b);
	      n0 = n0 << bm;
800085c8:	f4 06 09 43 	lsl	r3,r10,r6

	      udiv_qrnnd (q1, n1, n2, n1, d0);
800085cc:	f0 0b 01 0b 	sub	r11,r8,r11
800085d0:	f3 ee 11 09 	or	r9,r9,lr<<0x10
	    }

	  /* n1 != d0...  */

	  udiv_qrnnd (q0, n0, n1, n0, d0);
800085d4:	f8 06 16 10 	lsr	r6,r12,0x10
800085d8:	fd dc c0 10 	bfextu	lr,r12,0x0,0x10
800085dc:	f6 06 0d 00 	divu	r0,r11,r6
800085e0:	e6 0b 16 10 	lsr	r11,r3,0x10
800085e4:	00 9a       	mov	r10,r0
800085e6:	f7 e1 11 0b 	or	r11,r11,r1<<0x10
800085ea:	e0 0e 02 48 	mul	r8,r0,lr
800085ee:	10 3b       	cp.w	r11,r8
800085f0:	c0 d2       	brcc	8000860a <__avr32_udiv64+0x176>
800085f2:	20 1a       	sub	r10,1
800085f4:	18 0b       	add	r11,r12
800085f6:	18 3b       	cp.w	r11,r12
800085f8:	c0 93       	brcs	8000860a <__avr32_udiv64+0x176>
800085fa:	f4 c2 00 01 	sub	r2,r10,1
800085fe:	f6 0c 00 05 	add	r5,r11,r12
80008602:	10 3b       	cp.w	r11,r8
80008604:	c0 32       	brcc	8000860a <__avr32_udiv64+0x176>
80008606:	04 9a       	mov	r10,r2
80008608:	0a 9b       	mov	r11,r5
8000860a:	f6 08 01 01 	sub	r1,r11,r8
8000860e:	e7 d3 c0 10 	bfextu	r3,r3,0x0,0x10
80008612:	e2 06 0d 00 	divu	r0,r1,r6
80008616:	e7 e1 11 03 	or	r3,r3,r1<<0x10
8000861a:	00 98       	mov	r8,r0
8000861c:	e0 0e 02 4b 	mul	r11,r0,lr
80008620:	16 33       	cp.w	r3,r11
80008622:	c0 a2       	brcc	80008636 <__avr32_udiv64+0x1a2>
80008624:	20 18       	sub	r8,1
80008626:	18 03       	add	r3,r12
80008628:	18 33       	cp.w	r3,r12
8000862a:	c0 63       	brcs	80008636 <__avr32_udiv64+0x1a2>
8000862c:	f0 cc 00 01 	sub	r12,r8,1
80008630:	16 33       	cp.w	r3,r11
80008632:	f8 08 17 30 	movlo	r8,r12
80008636:	f1 ea 11 08 	or	r8,r8,r10<<0x10
8000863a:	c6 b8       	rjmp	80008710 <__avr32_udiv64+0x27c>
    }
#endif /* UDIV_NEEDS_NORMALIZATION */

  else
    {
      if (d1 > n1)
8000863c:	16 39       	cp.w	r9,r11
8000863e:	e0 8b 00 67 	brhi	8000870c <__avr32_udiv64+0x278>
	}
      else
	{
	  /* 0q = NN / dd */

	  count_leading_zeros (bm, d1);
80008642:	f2 09 12 00 	clz	r9,r9
	  if (bm == 0)
80008646:	c0 b1       	brne	8000865c <__avr32_udiv64+0x1c8>

		 This special case is necessary, not an optimization.  */

	      /* The condition on the next line takes advantage of that
		 n1 >= d1 (true due to program flow).  */
	      if (n1 > d1 || n0 >= d0)
80008648:	10 3a       	cp.w	r10,r8
8000864a:	5f 2a       	srhs	r10
8000864c:	1c 3b       	cp.w	r11,lr
8000864e:	5f b8       	srhi	r8
80008650:	10 4a       	or	r10,r8
80008652:	f2 0a 18 00 	cp.b	r10,r9
80008656:	c5 b0       	breq	8000870c <__avr32_udiv64+0x278>
		{
		  q0 = 1;
		  sub_ddmmss (n1, n0, n1, n0, d1, d0);
80008658:	30 18       	mov	r8,1
8000865a:	c5 b8       	rjmp	80008710 <__avr32_udiv64+0x27c>
	      UWtype m1, m0;
	      /* Normalize.  */

	      b = W_TYPE_SIZE - bm;

	      d1 = (d1 << bm) | (d0 >> b);
8000865c:	f2 03 11 20 	rsub	r3,r9,32
80008660:	fc 09 09 4e 	lsl	lr,lr,r9
	      d0 = d0 << bm;
	      n2 = n1 >> b;
	      n1 = (n1 << bm) | (n0 >> b);
80008664:	f6 09 09 4c 	lsl	r12,r11,r9
80008668:	f4 03 0a 42 	lsr	r2,r10,r3
	      /* Normalize.  */

	      b = W_TYPE_SIZE - bm;

	      d1 = (d1 << bm) | (d0 >> b);
	      d0 = d0 << bm;
8000866c:	f0 09 09 46 	lsl	r6,r8,r9
	      UWtype m1, m0;
	      /* Normalize.  */

	      b = W_TYPE_SIZE - bm;

	      d1 = (d1 << bm) | (d0 >> b);
80008670:	f0 03 0a 48 	lsr	r8,r8,r3
	      d0 = d0 << bm;
	      n2 = n1 >> b;
80008674:	f6 03 0a 43 	lsr	r3,r11,r3
	      n1 = (n1 << bm) | (n0 >> b);
80008678:	18 42       	or	r2,r12
	      UWtype m1, m0;
	      /* Normalize.  */

	      b = W_TYPE_SIZE - bm;

	      d1 = (d1 << bm) | (d0 >> b);
8000867a:	f1 ee 10 0c 	or	r12,r8,lr
	      d0 = d0 << bm;
	      n2 = n1 >> b;
	      n1 = (n1 << bm) | (n0 >> b);
	      n0 = n0 << bm;

	      udiv_qrnnd (q0, n1, n2, n1, d1);
8000867e:	f8 01 16 10 	lsr	r1,r12,0x10
80008682:	fd dc c0 10 	bfextu	lr,r12,0x0,0x10
80008686:	e6 01 0d 04 	divu	r4,r3,r1
8000868a:	e4 03 16 10 	lsr	r3,r2,0x10
8000868e:	08 98       	mov	r8,r4
80008690:	e7 e5 11 03 	or	r3,r3,r5<<0x10
80008694:	e8 0e 02 45 	mul	r5,r4,lr
80008698:	0a 33       	cp.w	r3,r5
8000869a:	c0 d2       	brcc	800086b4 <__avr32_udiv64+0x220>
8000869c:	20 18       	sub	r8,1
8000869e:	18 03       	add	r3,r12
800086a0:	18 33       	cp.w	r3,r12
800086a2:	c0 93       	brcs	800086b4 <__avr32_udiv64+0x220>
800086a4:	f0 c0 00 01 	sub	r0,r8,1
800086a8:	e6 0c 00 0b 	add	r11,r3,r12
800086ac:	0a 33       	cp.w	r3,r5
800086ae:	c0 32       	brcc	800086b4 <__avr32_udiv64+0x220>
800086b0:	00 98       	mov	r8,r0
800086b2:	16 93       	mov	r3,r11
800086b4:	0a 13       	sub	r3,r5
800086b6:	f7 d2 c0 10 	bfextu	r11,r2,0x0,0x10
800086ba:	e6 01 0d 00 	divu	r0,r3,r1
800086be:	f7 e1 11 0b 	or	r11,r11,r1<<0x10
800086c2:	00 93       	mov	r3,r0
800086c4:	e0 0e 02 4e 	mul	lr,r0,lr
800086c8:	1c 3b       	cp.w	r11,lr
800086ca:	c0 d2       	brcc	800086e4 <__avr32_udiv64+0x250>
800086cc:	20 13       	sub	r3,1
800086ce:	18 0b       	add	r11,r12
800086d0:	18 3b       	cp.w	r11,r12
800086d2:	c0 93       	brcs	800086e4 <__avr32_udiv64+0x250>
800086d4:	f6 0c 00 0c 	add	r12,r11,r12
800086d8:	e6 c5 00 01 	sub	r5,r3,1
800086dc:	1c 3b       	cp.w	r11,lr
800086de:	c0 32       	brcc	800086e4 <__avr32_udiv64+0x250>
800086e0:	0a 93       	mov	r3,r5
800086e2:	18 9b       	mov	r11,r12
800086e4:	e7 e8 11 08 	or	r8,r3,r8<<0x10
800086e8:	1c 1b       	sub	r11,lr
	      umul_ppmm (m1, m0, q0, d0);
800086ea:	f0 06 06 42 	mulu.d	r2,r8,r6
800086ee:	06 96       	mov	r6,r3

	      if (m1 > n1 || (m1 == n1 && m0 > n0))
800086f0:	16 36       	cp.w	r6,r11
800086f2:	e0 8b 00 0a 	brhi	80008706 <__avr32_udiv64+0x272>
800086f6:	5f 0b       	sreq	r11
800086f8:	f4 09 09 49 	lsl	r9,r10,r9
800086fc:	12 32       	cp.w	r2,r9
800086fe:	5f b9       	srhi	r9
80008700:	f7 e9 00 09 	and	r9,r11,r9
80008704:	c0 60       	breq	80008710 <__avr32_udiv64+0x27c>
		{
		  q0--;
80008706:	20 18       	sub	r8,1
		  sub_ddmmss (m1, m0, m1, m0, d1, d0);
80008708:	30 09       	mov	r9,0
8000870a:	c0 38       	rjmp	80008710 <__avr32_udiv64+0x27c>
8000870c:	30 09       	mov	r9,0
8000870e:	12 98       	mov	r8,r9
#ifdef L_udivdi3
UDWtype
__udivdi3 (UDWtype n, UDWtype d)
{
  return __udivmoddi4 (n, d, (UDWtype *) 0);
}
80008710:	10 9a       	mov	r10,r8
		}
	    }
	}
    }

  const DWunion ww = {{.low = q0, .high = q1}};
80008712:	12 93       	mov	r3,r9
80008714:	10 92       	mov	r2,r8
#ifdef L_udivdi3
UDWtype
__udivdi3 (UDWtype n, UDWtype d)
{
  return __udivmoddi4 (n, d, (UDWtype *) 0);
}
80008716:	12 9b       	mov	r11,r9
80008718:	2f ed       	sub	sp,-8
8000871a:	d8 32       	popm	r0-r7,pc

8000871c <atexit>:

int
_DEFUN (atexit,
	(fn),
	_VOID _EXFUN ((*fn), (_VOID)))
{
8000871c:	d4 01       	pushm	lr
  return __register_exitproc (__et_atexit, fn, NULL, NULL);
8000871e:	30 09       	mov	r9,0
80008720:	18 9b       	mov	r11,r12
80008722:	12 9a       	mov	r10,r9
80008724:	12 9c       	mov	r12,r9
80008726:	e0 a0 03 67 	rcall	80008df4 <__register_exitproc>
}
8000872a:	d8 02       	popm	pc

8000872c <exit>:
 */

void 
_DEFUN (exit, (code),
	int code)
{
8000872c:	d4 21       	pushm	r4-r7,lr
  __call_exitprocs (code, NULL);
8000872e:	30 0b       	mov	r11,0
 */

void 
_DEFUN (exit, (code),
	int code)
{
80008730:	18 97       	mov	r7,r12
  __call_exitprocs (code, NULL);
80008732:	e0 a0 03 b3 	rcall	80008e98 <__call_exitprocs>

  if (_GLOBAL_REENT->__cleanup)
80008736:	fe c8 ed 7e 	sub	r8,pc,-4738
8000873a:	70 0c       	ld.w	r12,r8[0x0]
8000873c:	78 a8       	ld.w	r8,r12[0x28]
8000873e:	58 08       	cp.w	r8,0
    (*_GLOBAL_REENT->__cleanup) (_GLOBAL_REENT);
80008740:	c0 20       	breq	80008744 <exit+0x18>
  _exit (code);
80008742:	5d 18       	icall	r8
80008744:	0e 9c       	mov	r12,r7
80008746:	e0 a0 03 36 	rcall	80008db2 <_exit>
8000874a:	d7 03       	nop

8000874c <free>:
}

void
_DEFUN (free, (aptr),
	_PTR aptr)
{
8000874c:	d4 01       	pushm	lr
  _free_r (_REENT, aptr);
8000874e:	e0 68 01 30 	mov	r8,304
80008752:	18 9b       	mov	r11,r12
80008754:	70 0c       	ld.w	r12,r8[0x0]
80008756:	e0 a0 04 53 	rcall	80008ffc <_free_r>
}
8000875a:	d8 02       	popm	pc

8000875c <malloc>:
8000875c:	d4 01       	pushm	lr
8000875e:	e0 68 01 30 	mov	r8,304
80008762:	18 9b       	mov	r11,r12

_PTR
_DEFUN (malloc, (nbytes),
	size_t nbytes)		/* get a block */
{
  return _malloc_r (_REENT, nbytes);
80008764:	70 0c       	ld.w	r12,r8[0x0]
80008766:	c0 3c       	rcall	8000876c <_malloc_r>
}
80008768:	d8 02       	popm	pc
8000876a:	d7 03       	nop

8000876c <_malloc_r>:
#if __STD_C
Void_t* mALLOc(RARG size_t bytes)
#else
Void_t* mALLOc(RARG bytes) RDECL size_t bytes;
#endif
{
8000876c:	d4 31       	pushm	r0-r7,lr
  int       startidx;                /* first bin of a traversed block */
  mchunkptr fwd;                     /* misc temp for linking */
  mchunkptr bck;                     /* misc temp for linking */
  mbinptr q;                         /* misc temp */

  INTERNAL_SIZE_T nb  = request2size(bytes);  /* padded request size; */
8000876e:	f6 c8 ff f5 	sub	r8,r11,-11
#if __STD_C
Void_t* mALLOc(RARG size_t bytes)
#else
Void_t* mALLOc(RARG bytes) RDECL size_t bytes;
#endif
{
80008772:	18 95       	mov	r5,r12
  int       startidx;                /* first bin of a traversed block */
  mchunkptr fwd;                     /* misc temp for linking */
  mchunkptr bck;                     /* misc temp for linking */
  mbinptr q;                         /* misc temp */

  INTERNAL_SIZE_T nb  = request2size(bytes);  /* padded request size; */
80008774:	10 97       	mov	r7,r8
80008776:	e0 17 ff f8 	andl	r7,0xfff8
8000877a:	59 68       	cp.w	r8,22
8000877c:	f9 b7 08 10 	movls	r7,16

  /* Check for overflow and just fail, if so. */
  if (nb > INT_MAX || nb < bytes)
80008780:	16 37       	cp.w	r7,r11
80008782:	5f 38       	srlo	r8
80008784:	f1 e7 13 f8 	or	r8,r8,r7>>0x1f
80008788:	c0 50       	breq	80008792 <_malloc_r+0x26>
  {
    RERRNO = ENOMEM;
8000878a:	30 c8       	mov	r8,12
8000878c:	99 38       	st.w	r12[0xc],r8
8000878e:	e0 8f 01 f4 	bral	80008b76 <_malloc_r+0x40a>
    return 0;
  }

  MALLOC_LOCK;
80008792:	e0 a0 02 a5 	rcall	80008cdc <__malloc_lock>

  /* Check for exact match in a bin */

  if (is_small_request(nb))  /* Faster version for small requests */
80008796:	e0 47 01 f7 	cp.w	r7,503
8000879a:	e0 8b 00 1d 	brhi	800087d4 <_malloc_r+0x68>
  {
    idx = smallbin_index(nb); 
8000879e:	ee 03 16 03 	lsr	r3,r7,0x3

    /* No traversal or size check necessary for small bins.  */

    q = bin_at(idx);
800087a2:	e0 68 01 34 	mov	r8,308
800087a6:	f0 03 00 38 	add	r8,r8,r3<<0x3
    victim = last(q);

#if MALLOC_ALIGN != 16
    /* Also scan the next one, since it would have a remainder < MINSIZE */
    if (victim == q)
800087aa:	70 36       	ld.w	r6,r8[0xc]
800087ac:	10 36       	cp.w	r6,r8
    {
      q = next_bin(q);
800087ae:	c0 61       	brne	800087ba <_malloc_r+0x4e>
800087b0:	ec c8 ff f8 	sub	r8,r6,-8
      victim = last(q);
    }
#endif
    if (victim != q)
800087b4:	70 36       	ld.w	r6,r8[0xc]
800087b6:	10 36       	cp.w	r6,r8
    {
      victim_size = chunksize(victim);
800087b8:	c0 c0       	breq	800087d0 <_malloc_r+0x64>
800087ba:	6c 18       	ld.w	r8,r6[0x4]
800087bc:	e0 18 ff fc 	andl	r8,0xfffc
      unlink(victim, bck, fwd);
      set_inuse_bit_at_offset(victim, victim_size);
800087c0:	6c 3a       	ld.w	r10,r6[0xc]
800087c2:	ec 08 00 09 	add	r9,r6,r8
    }
#endif
    if (victim != q)
    {
      victim_size = chunksize(victim);
      unlink(victim, bck, fwd);
800087c6:	0a 9c       	mov	r12,r5
800087c8:	6c 28       	ld.w	r8,r6[0x8]
800087ca:	95 28       	st.w	r10[0x8],r8
800087cc:	91 3a       	st.w	r8[0xc],r10
      check_malloced_chunk(victim, nb);
      MALLOC_UNLOCK;
      return chunk2mem(victim);
    }

    idx += 2; /* Set for bin scan below. We've already scanned 2 bins. */
800087ce:	c4 78       	rjmp	8000885c <_malloc_r+0xf0>
800087d0:	2f e3       	sub	r3,-2

  }
  else
  {
    idx = bin_index(nb);
800087d2:	c4 d8       	rjmp	8000886c <_malloc_r+0x100>
800087d4:	ee 03 16 09 	lsr	r3,r7,0x9
800087d8:	c0 41       	brne	800087e0 <_malloc_r+0x74>
800087da:	ee 03 16 03 	lsr	r3,r7,0x3
800087de:	c2 68       	rjmp	8000882a <_malloc_r+0xbe>
800087e0:	58 43       	cp.w	r3,4
800087e2:	e0 8b 00 06 	brhi	800087ee <_malloc_r+0x82>
800087e6:	ee 03 16 06 	lsr	r3,r7,0x6
800087ea:	2c 83       	sub	r3,-56
800087ec:	c1 f8       	rjmp	8000882a <_malloc_r+0xbe>
800087ee:	59 43       	cp.w	r3,20
800087f0:	e0 8b 00 04 	brhi	800087f8 <_malloc_r+0x8c>
800087f4:	2a 53       	sub	r3,-91
800087f6:	c1 a8       	rjmp	8000882a <_malloc_r+0xbe>
800087f8:	e0 43 00 54 	cp.w	r3,84
800087fc:	e0 8b 00 06 	brhi	80008808 <_malloc_r+0x9c>
80008800:	ee 03 16 0c 	lsr	r3,r7,0xc
80008804:	29 23       	sub	r3,-110
80008806:	c1 28       	rjmp	8000882a <_malloc_r+0xbe>
80008808:	e0 43 01 54 	cp.w	r3,340
8000880c:	e0 8b 00 06 	brhi	80008818 <_malloc_r+0xac>
80008810:	ee 03 16 0f 	lsr	r3,r7,0xf
80008814:	28 93       	sub	r3,-119
80008816:	c0 a8       	rjmp	8000882a <_malloc_r+0xbe>
80008818:	e0 43 05 54 	cp.w	r3,1364
8000881c:	e0 88 00 04 	brls	80008824 <_malloc_r+0xb8>
80008820:	37 e3       	mov	r3,126
80008822:	c0 48       	rjmp	8000882a <_malloc_r+0xbe>
80008824:	ee 03 16 12 	lsr	r3,r7,0x12
    bin = bin_at(idx);
80008828:	28 43       	sub	r3,-124
8000882a:	e0 6a 01 34 	mov	r10,308

    for (victim = last(bin); victim != bin; victim = victim->bk)
8000882e:	f4 03 00 3a 	add	r10,r10,r3<<0x3
    {
      victim_size = chunksize(victim);
80008832:	74 36       	ld.w	r6,r10[0xc]
80008834:	c1 98       	rjmp	80008866 <_malloc_r+0xfa>
80008836:	6c 19       	ld.w	r9,r6[0x4]
      remainder_size = long_sub_size_t(victim_size, nb);
80008838:	e0 19 ff fc 	andl	r9,0xfffc
      
      if (remainder_size >= (long)MINSIZE) /* too big */
8000883c:	f2 07 01 0b 	sub	r11,r9,r7
80008840:	58 fb       	cp.w	r11,15
      {
        --idx; /* adjust to rescan below after checking last remainder */
80008842:	e0 8a 00 04 	brle	8000884a <_malloc_r+0xde>
        break;   
80008846:	20 13       	sub	r3,1
      }

      else if (remainder_size >= 0) /* exact fit */
80008848:	c1 18       	rjmp	8000886a <_malloc_r+0xfe>
8000884a:	6c 38       	ld.w	r8,r6[0xc]
      {
        unlink(victim, bck, fwd);
8000884c:	58 0b       	cp.w	r11,0
        set_inuse_bit_at_offset(victim, victim_size);
8000884e:	c0 b5       	brlt	80008864 <_malloc_r+0xf8>
80008850:	6c 2a       	ld.w	r10,r6[0x8]
        check_malloced_chunk(victim, nb);
	MALLOC_UNLOCK;
80008852:	ec 09 00 09 	add	r9,r6,r9
        break;   
      }

      else if (remainder_size >= 0) /* exact fit */
      {
        unlink(victim, bck, fwd);
80008856:	0a 9c       	mov	r12,r5
        set_inuse_bit_at_offset(victim, victim_size);
80008858:	91 2a       	st.w	r8[0x8],r10
8000885a:	95 38       	st.w	r10[0xc],r8
8000885c:	72 18       	ld.w	r8,r9[0x4]
8000885e:	a1 a8       	sbr	r8,0x0
  else
  {
    idx = bin_index(nb);
    bin = bin_at(idx);

    for (victim = last(bin); victim != bin; victim = victim->bk)
80008860:	93 18       	st.w	r9[0x4],r8
80008862:	cb c8       	rjmp	800089da <_malloc_r+0x26e>
80008864:	10 96       	mov	r6,r8
	MALLOC_UNLOCK;
        return chunk2mem(victim);
      }
    }

    ++idx; 
80008866:	14 36       	cp.w	r6,r10

  }

  /* Try to use the last split-off remainder */

  if ( (victim = last_remainder->fd) != last_remainder)
80008868:	ce 71       	brne	80008836 <_malloc_r+0xca>
8000886a:	2f f3       	sub	r3,-1
8000886c:	e0 6a 01 34 	mov	r10,308
80008870:	f4 cc ff f8 	sub	r12,r10,-8
  {
    victim_size = chunksize(victim);
80008874:	78 26       	ld.w	r6,r12[0x8]
80008876:	18 36       	cp.w	r6,r12
80008878:	c6 c0       	breq	80008950 <_malloc_r+0x1e4>
    remainder_size = long_sub_size_t(victim_size, nb);
8000887a:	6c 19       	ld.w	r9,r6[0x4]
8000887c:	e0 19 ff fc 	andl	r9,0xfffc

    if (remainder_size >= (long)MINSIZE) /* re-split */
80008880:	f2 07 01 08 	sub	r8,r9,r7
      check_malloced_chunk(victim, nb);
      MALLOC_UNLOCK;
      return chunk2mem(victim);
    }

    clear_last_remainder;
80008884:	58 f8       	cp.w	r8,15
80008886:	e0 89 00 8f 	brgt	800089a4 <_malloc_r+0x238>

    if (remainder_size >= 0)  /* exhaust */
8000888a:	99 3c       	st.w	r12[0xc],r12
    {
      set_inuse_bit_at_offset(victim, victim_size);
8000888c:	99 2c       	st.w	r12[0x8],r12
8000888e:	58 08       	cp.w	r8,0
      check_malloced_chunk(victim, nb);
      MALLOC_UNLOCK;
80008890:	c0 55       	brlt	8000889a <_malloc_r+0x12e>
80008892:	ec 09 00 09 	add	r9,r6,r9
      return chunk2mem(victim);
    }

    /* Else place in bin */

    frontlink(victim, victim_size, remainder_index, bck, fwd);
80008896:	0a 9c       	mov	r12,r5
80008898:	ce 2b       	rjmp	8000885c <_malloc_r+0xf0>
8000889a:	e0 49 01 ff 	cp.w	r9,511
8000889e:	e0 8b 00 13 	brhi	800088c4 <_malloc_r+0x158>
800088a2:	a3 99       	lsr	r9,0x3
800088a4:	f4 09 00 38 	add	r8,r10,r9<<0x3
800088a8:	70 2b       	ld.w	r11,r8[0x8]
800088aa:	8d 38       	st.w	r6[0xc],r8
800088ac:	8d 2b       	st.w	r6[0x8],r11
800088ae:	97 36       	st.w	r11[0xc],r6
800088b0:	91 26       	st.w	r8[0x8],r6
800088b2:	a3 49       	asr	r9,0x2
800088b4:	74 18       	ld.w	r8,r10[0x4]
800088b6:	30 1b       	mov	r11,1
800088b8:	f6 09 09 49 	lsl	r9,r11,r9
800088bc:	f1 e9 10 09 	or	r9,r8,r9
800088c0:	95 19       	st.w	r10[0x4],r9
800088c2:	c4 78       	rjmp	80008950 <_malloc_r+0x1e4>
800088c4:	f2 0a 16 09 	lsr	r10,r9,0x9
800088c8:	58 4a       	cp.w	r10,4
800088ca:	e0 8b 00 07 	brhi	800088d8 <_malloc_r+0x16c>
800088ce:	f2 0a 16 06 	lsr	r10,r9,0x6
800088d2:	2c 8a       	sub	r10,-56
800088d4:	c2 08       	rjmp	80008914 <_malloc_r+0x1a8>
800088d6:	d7 03       	nop
800088d8:	59 4a       	cp.w	r10,20
800088da:	e0 8b 00 04 	brhi	800088e2 <_malloc_r+0x176>
800088de:	2a 5a       	sub	r10,-91
800088e0:	c1 a8       	rjmp	80008914 <_malloc_r+0x1a8>
800088e2:	e0 4a 00 54 	cp.w	r10,84
800088e6:	e0 8b 00 06 	brhi	800088f2 <_malloc_r+0x186>
800088ea:	f2 0a 16 0c 	lsr	r10,r9,0xc
800088ee:	29 2a       	sub	r10,-110
800088f0:	c1 28       	rjmp	80008914 <_malloc_r+0x1a8>
800088f2:	e0 4a 01 54 	cp.w	r10,340
800088f6:	e0 8b 00 06 	brhi	80008902 <_malloc_r+0x196>
800088fa:	f2 0a 16 0f 	lsr	r10,r9,0xf
800088fe:	28 9a       	sub	r10,-119
80008900:	c0 a8       	rjmp	80008914 <_malloc_r+0x1a8>
80008902:	e0 4a 05 54 	cp.w	r10,1364
80008906:	e0 88 00 04 	brls	8000890e <_malloc_r+0x1a2>
8000890a:	37 ea       	mov	r10,126
8000890c:	c0 48       	rjmp	80008914 <_malloc_r+0x1a8>
8000890e:	f2 0a 16 12 	lsr	r10,r9,0x12
80008912:	28 4a       	sub	r10,-124
80008914:	e0 6b 01 34 	mov	r11,308
80008918:	f6 0a 00 34 	add	r4,r11,r10<<0x3
8000891c:	68 28       	ld.w	r8,r4[0x8]
8000891e:	08 38       	cp.w	r8,r4
80008920:	c0 e1       	brne	8000893c <_malloc_r+0x1d0>
80008922:	76 19       	ld.w	r9,r11[0x4]
80008924:	a3 4a       	asr	r10,0x2
80008926:	30 1e       	mov	lr,1
80008928:	fc 0a 09 4a 	lsl	r10,lr,r10
8000892c:	f3 ea 10 0a 	or	r10,r9,r10
80008930:	10 99       	mov	r9,r8
80008932:	97 1a       	st.w	r11[0x4],r10
80008934:	c0 a8       	rjmp	80008948 <_malloc_r+0x1dc>
80008936:	70 28       	ld.w	r8,r8[0x8]
80008938:	08 38       	cp.w	r8,r4
8000893a:	c0 60       	breq	80008946 <_malloc_r+0x1da>
8000893c:	70 1a       	ld.w	r10,r8[0x4]
8000893e:	e0 1a ff fc 	andl	r10,0xfffc
80008942:	14 39       	cp.w	r9,r10
80008944:	cf 93       	brcs	80008936 <_malloc_r+0x1ca>
80008946:	70 39       	ld.w	r9,r8[0xc]
80008948:	8d 39       	st.w	r6[0xc],r9
8000894a:	8d 28       	st.w	r6[0x8],r8
8000894c:	91 36       	st.w	r8[0xc],r6
  /* 
     If there are any possibly nonempty big-enough blocks, 
     search for best fitting chunk by scanning bins in blockwidth units.
  */

  if ( (block = idx2binblock(idx)) <= binblocks)  
8000894e:	93 26       	st.w	r9[0x8],r6
80008950:	e6 08 14 02 	asr	r8,r3,0x2
80008954:	30 1b       	mov	r11,1
80008956:	e0 64 01 34 	mov	r4,308
8000895a:	f6 08 09 4b 	lsl	r11,r11,r8
8000895e:	68 18       	ld.w	r8,r4[0x4]
80008960:	10 3b       	cp.w	r11,r8
  {

    /* Get to the first marked block */

    if ( (block & binblocks) == 0) 
80008962:	e0 8b 00 69 	brhi	80008a34 <_malloc_r+0x2c8>
80008966:	f7 e8 00 09 	and	r9,r11,r8
    {
      /* force to an even block boundary */
      idx = (idx & ~(BINBLOCKWIDTH - 1)) + BINBLOCKWIDTH;
8000896a:	c0 b1       	brne	80008980 <_malloc_r+0x214>
      block <<= 1;
8000896c:	e0 13 ff fc 	andl	r3,0xfffc
      while ((block & binblocks) == 0)
80008970:	a1 7b       	lsl	r11,0x1
      {
        idx += BINBLOCKWIDTH;
80008972:	2f c3       	sub	r3,-4
        block <<= 1;
80008974:	c0 38       	rjmp	8000897a <_malloc_r+0x20e>
    if ( (block & binblocks) == 0) 
    {
      /* force to an even block boundary */
      idx = (idx & ~(BINBLOCKWIDTH - 1)) + BINBLOCKWIDTH;
      block <<= 1;
      while ((block & binblocks) == 0)
80008976:	2f c3       	sub	r3,-4
80008978:	a1 7b       	lsl	r11,0x1
8000897a:	f7 e8 00 09 	and	r9,r11,r8
      
    /* For each possibly nonempty block ... */
    for (;;)  
    {
      startidx = idx;          /* (track incomplete blocks) */
      q = bin = bin_at(idx);
8000897e:	cf c0       	breq	80008976 <_malloc_r+0x20a>
80008980:	e8 03 00 3e 	add	lr,r4,r3<<0x3
      /* For each bin in this block ... */
      do
      {
        /* Find and use first big enough chunk ... */

        for (victim = last(bin); victim != bin; victim = victim->bk)
80008984:	06 92       	mov	r2,r3
80008986:	1c 91       	mov	r1,lr
        {
          victim_size = chunksize(victim);
80008988:	62 36       	ld.w	r6,r1[0xc]
8000898a:	c2 d8       	rjmp	800089e4 <_malloc_r+0x278>
8000898c:	6c 1a       	ld.w	r10,r6[0x4]
          remainder_size = long_sub_size_t(victim_size, nb);
8000898e:	e0 1a ff fc 	andl	r10,0xfffc

          if (remainder_size >= (long)MINSIZE) /* split */
80008992:	f4 07 01 08 	sub	r8,r10,r7
80008996:	58 f8       	cp.w	r8,15
          {
            remainder = chunk_at_offset(victim, nb);
            set_head(victim, nb | PREV_INUSE);
            unlink(victim, bck, fwd);
80008998:	e0 8a 00 15 	brle	800089c2 <_malloc_r+0x256>
8000899c:	6c 3a       	ld.w	r10,r6[0xc]
8000899e:	6c 29       	ld.w	r9,r6[0x8]
          remainder_size = long_sub_size_t(victim_size, nb);

          if (remainder_size >= (long)MINSIZE) /* split */
          {
            remainder = chunk_at_offset(victim, nb);
            set_head(victim, nb | PREV_INUSE);
800089a0:	95 29       	st.w	r10[0x8],r9
          victim_size = chunksize(victim);
          remainder_size = long_sub_size_t(victim_size, nb);

          if (remainder_size >= (long)MINSIZE) /* split */
          {
            remainder = chunk_at_offset(victim, nb);
800089a2:	93 3a       	st.w	r9[0xc],r10
800089a4:	0e 99       	mov	r9,r7
            set_head(victim, nb | PREV_INUSE);
800089a6:	ec 07 00 07 	add	r7,r6,r7
            unlink(victim, bck, fwd);
            link_last_remainder(remainder);
800089aa:	a1 a9       	sbr	r9,0x0
          remainder_size = long_sub_size_t(victim_size, nb);

          if (remainder_size >= (long)MINSIZE) /* split */
          {
            remainder = chunk_at_offset(victim, nb);
            set_head(victim, nb | PREV_INUSE);
800089ac:	99 37       	st.w	r12[0xc],r7
            unlink(victim, bck, fwd);
            link_last_remainder(remainder);
            set_head(remainder, remainder_size | PREV_INUSE);
            set_foot(remainder, remainder_size);
800089ae:	99 27       	st.w	r12[0x8],r7
800089b0:	8d 19       	st.w	r6[0x4],r9
          if (remainder_size >= (long)MINSIZE) /* split */
          {
            remainder = chunk_at_offset(victim, nb);
            set_head(victim, nb | PREV_INUSE);
            unlink(victim, bck, fwd);
            link_last_remainder(remainder);
800089b2:	ee 08 09 08 	st.w	r7[r8],r8
            set_head(remainder, remainder_size | PREV_INUSE);
800089b6:	8f 2c       	st.w	r7[0x8],r12
            set_foot(remainder, remainder_size);
            check_malloced_chunk(victim, nb);
	    MALLOC_UNLOCK;
800089b8:	8f 3c       	st.w	r7[0xc],r12
          {
            remainder = chunk_at_offset(victim, nb);
            set_head(victim, nb | PREV_INUSE);
            unlink(victim, bck, fwd);
            link_last_remainder(remainder);
            set_head(remainder, remainder_size | PREV_INUSE);
800089ba:	a1 a8       	sbr	r8,0x0
800089bc:	0a 9c       	mov	r12,r5
800089be:	8f 18       	st.w	r7[0x4],r8
            check_malloced_chunk(victim, nb);
	    MALLOC_UNLOCK;
            return chunk2mem(victim);
          }

          else if (remainder_size >= 0)  /* take */
800089c0:	c0 d8       	rjmp	800089da <_malloc_r+0x26e>
800089c2:	6c 39       	ld.w	r9,r6[0xc]
          {
            set_inuse_bit_at_offset(victim, victim_size);
800089c4:	58 08       	cp.w	r8,0
800089c6:	c0 e5       	brlt	800089e2 <_malloc_r+0x276>
800089c8:	ec 0a 00 0a 	add	r10,r6,r10
            unlink(victim, bck, fwd);
            check_malloced_chunk(victim, nb);
	    MALLOC_UNLOCK;
800089cc:	74 18       	ld.w	r8,r10[0x4]
            return chunk2mem(victim);
          }

          else if (remainder_size >= 0)  /* take */
          {
            set_inuse_bit_at_offset(victim, victim_size);
800089ce:	a1 a8       	sbr	r8,0x0
            unlink(victim, bck, fwd);
800089d0:	0a 9c       	mov	r12,r5
800089d2:	95 18       	st.w	r10[0x4],r8
800089d4:	6c 28       	ld.w	r8,r6[0x8]
            check_malloced_chunk(victim, nb);
	    MALLOC_UNLOCK;
800089d6:	93 28       	st.w	r9[0x8],r8
800089d8:	91 39       	st.w	r8[0xc],r9
            return chunk2mem(victim);
800089da:	c8 2d       	rcall	80008cde <__malloc_unlock>
800089dc:	ec cc ff f8 	sub	r12,r6,-8
      /* For each bin in this block ... */
      do
      {
        /* Find and use first big enough chunk ... */

        for (victim = last(bin); victim != bin; victim = victim->bk)
800089e0:	d8 32       	popm	r0-r7,pc
800089e2:	12 96       	mov	r6,r9
800089e4:	02 36       	cp.w	r6,r1
         {
           bin = next_bin(bin);
           ++idx;
         }
#endif
      } while ((++idx & (BINBLOCKWIDTH - 1)) != 0);
800089e6:	cd 31       	brne	8000898c <_malloc_r+0x220>
800089e8:	2f f2       	sub	r2,-1
800089ea:	f1 d2 c0 02 	bfextu	r8,r2,0x0,0x2
            return chunk2mem(victim);
          }

        }

       bin = next_bin(bin);
800089ee:	c0 30       	breq	800089f4 <_malloc_r+0x288>
800089f0:	2f 81       	sub	r1,-8
800089f2:	cc bb       	rjmp	80008988 <_malloc_r+0x21c>

      /* Clear out the block bit. */

      do   /* Possibly backtrack to try to clear a partial block */
      {
        if ((startidx & (BINBLOCKWIDTH - 1)) == 0)
800089f4:	1c 98       	mov	r8,lr
800089f6:	f3 d3 c0 02 	bfextu	r9,r3,0x0,0x2
        {
          binblocks &= ~block;
800089fa:	c0 81       	brne	80008a0a <_malloc_r+0x29e>
800089fc:	68 19       	ld.w	r9,r4[0x4]
800089fe:	f6 08 11 ff 	rsub	r8,r11,-1
80008a02:	f3 e8 00 08 	and	r8,r9,r8
          break;
80008a06:	89 18       	st.w	r4[0x4],r8
        }
        --startidx;
       q = prev_bin(q);
80008a08:	c0 78       	rjmp	80008a16 <_malloc_r+0x2aa>
80008a0a:	f0 c9 00 08 	sub	r9,r8,8
      } while (first(q) == q);
80008a0e:	20 13       	sub	r3,1
80008a10:	70 08       	ld.w	r8,r8[0x0]
80008a12:	12 38       	cp.w	r8,r9

      /* Get to the next possibly nonempty block */

      if ( (block <<= 1) <= binblocks && (block != 0) ) 
80008a14:	cf 10       	breq	800089f6 <_malloc_r+0x28a>
80008a16:	a1 7b       	lsl	r11,0x1
80008a18:	68 18       	ld.w	r8,r4[0x4]
80008a1a:	10 3b       	cp.w	r11,r8
80008a1c:	e0 8b 00 0c 	brhi	80008a34 <_malloc_r+0x2c8>
80008a20:	58 0b       	cp.w	r11,0
80008a22:	c0 90       	breq	80008a34 <_malloc_r+0x2c8>
80008a24:	04 93       	mov	r3,r2
      {
        while ((block & binblocks) == 0)
        {
          idx += BINBLOCKWIDTH;
80008a26:	c0 38       	rjmp	80008a2c <_malloc_r+0x2c0>
          block <<= 1;
80008a28:	2f c3       	sub	r3,-4

      /* Get to the next possibly nonempty block */

      if ( (block <<= 1) <= binblocks && (block != 0) ) 
      {
        while ((block & binblocks) == 0)
80008a2a:	a1 7b       	lsl	r11,0x1
80008a2c:	f7 e8 00 09 	and	r9,r11,r8
80008a30:	ca 81       	brne	80008980 <_malloc_r+0x214>
80008a32:	cf bb       	rjmp	80008a28 <_malloc_r+0x2bc>
80008a34:	68 23       	ld.w	r3,r4[0x8]
80008a36:	66 12       	ld.w	r2,r3[0x4]
80008a38:	e0 12 ff fc 	andl	r2,0xfffc


  /* Try to use top chunk */

  /* Require that there be a remainder, ensuring top always exists  */
  remainder_size = long_sub_size_t(chunksize(top), nb);
80008a3c:	0e 32       	cp.w	r2,r7
80008a3e:	5f 39       	srlo	r9
80008a40:	e4 07 01 08 	sub	r8,r2,r7
  if (chunksize(top) < nb || remainder_size < (long)MINSIZE)
80008a44:	58 f8       	cp.w	r8,15
80008a46:	5f aa       	srle	r10


  /* Try to use top chunk */

  /* Require that there be a remainder, ensuring top always exists  */
  remainder_size = long_sub_size_t(chunksize(top), nb);
80008a48:	f5 e9 10 09 	or	r9,r10,r9
  if (chunksize(top) < nb || remainder_size < (long)MINSIZE)
80008a4c:	e0 80 00 96 	breq	80008b78 <_malloc_r+0x40c>
80008a50:	e0 68 09 a4 	mov	r8,2468
80008a54:	70 01       	ld.w	r1,r8[0x0]
80008a56:	e0 68 05 40 	mov	r8,1344
  INTERNAL_SIZE_T old_top_size = chunksize(old_top);
  char*     old_end      = (char*)(chunk_at_offset(old_top, old_top_size));

  /* Pad request with top_pad plus minimal overhead */
  
  INTERNAL_SIZE_T    sbrk_size     = nb + top_pad + MINSIZE;
80008a5a:	2f 01       	sub	r1,-16

  /* If not the first time through, round to preserve page boundary */
  /* Otherwise, we need to correct to a page size below anyway. */
  /* (We also correct below if an intervening foreign sbrk call.) */

  if (sbrk_base != (char*)(-1))
80008a5c:	70 08       	ld.w	r8,r8[0x0]
  INTERNAL_SIZE_T old_top_size = chunksize(old_top);
  char*     old_end      = (char*)(chunk_at_offset(old_top, old_top_size));

  /* Pad request with top_pad plus minimal overhead */
  
  INTERNAL_SIZE_T    sbrk_size     = nb + top_pad + MINSIZE;
80008a5e:	0e 01       	add	r1,r7

  /* If not the first time through, round to preserve page boundary */
  /* Otherwise, we need to correct to a page size below anyway. */
  /* (We also correct below if an intervening foreign sbrk call.) */

  if (sbrk_base != (char*)(-1))
80008a60:	5b f8       	cp.w	r8,-1
  INTERNAL_SIZE_T old_top_size = chunksize(old_top);
  char*     old_end      = (char*)(chunk_at_offset(old_top, old_top_size));

  /* Pad request with top_pad plus minimal overhead */
  
  INTERNAL_SIZE_T    sbrk_size     = nb + top_pad + MINSIZE;
80008a62:	c0 40       	breq	80008a6a <_malloc_r+0x2fe>

  /* If not the first time through, round to preserve page boundary */
  /* Otherwise, we need to correct to a page size below anyway. */
  /* (We also correct below if an intervening foreign sbrk call.) */

  if (sbrk_base != (char*)(-1))
80008a64:	28 11       	sub	r1,-127
80008a66:	e0 11 ff 80 	andl	r1,0xff80
    sbrk_size = (sbrk_size + (pagesz - 1)) & ~(pagesz - 1);
80008a6a:	02 9b       	mov	r11,r1
80008a6c:	0a 9c       	mov	r12,r5

  brk = (char*)(MORECORE (sbrk_size));
80008a6e:	c7 9d       	rcall	80008d60 <_sbrk_r>
80008a70:	18 96       	mov	r6,r12
80008a72:	5b fc       	cp.w	r12,-1
80008a74:	c7 30       	breq	80008b5a <_malloc_r+0x3ee>
80008a76:	e6 02 00 08 	add	r8,r3,r2

  /* Fail if sbrk failed or if a foreign sbrk call killed our space */
  if (brk == (char*)(MORECORE_FAILURE) || 
80008a7a:	10 3c       	cp.w	r12,r8
  char*     new_brk;              /* return of 2nd sbrk call */
  INTERNAL_SIZE_T top_size;       /* new size of top chunk */

  mchunkptr old_top     = top;  /* Record state of old top */
  INTERNAL_SIZE_T old_top_size = chunksize(old_top);
  char*     old_end      = (char*)(chunk_at_offset(old_top, old_top_size));
80008a7c:	c0 32       	brcc	80008a82 <_malloc_r+0x316>
80008a7e:	08 33       	cp.w	r3,r4
    sbrk_size = (sbrk_size + (pagesz - 1)) & ~(pagesz - 1);

  brk = (char*)(MORECORE (sbrk_size));

  /* Fail if sbrk failed or if a foreign sbrk call killed our space */
  if (brk == (char*)(MORECORE_FAILURE) || 
80008a80:	c6 d1       	brne	80008b5a <_malloc_r+0x3ee>
80008a82:	e0 6a 09 a8 	mov	r10,2472
80008a86:	74 09       	ld.w	r9,r10[0x0]
      (brk < old_end && old_top != initial_top))
    return;

  sbrked_mem += sbrk_size;
80008a88:	e2 09 00 09 	add	r9,r1,r9
80008a8c:	95 09       	st.w	r10[0x0],r9
80008a8e:	10 36       	cp.w	r6,r8
80008a90:	c0 a1       	brne	80008aa4 <_malloc_r+0x338>

  if (brk == old_end /* can just add bytes to current top, unless
80008a92:	f5 d6 c0 07 	bfextu	r10,r6,0x0,0x7
80008a96:	c0 71       	brne	80008aa4 <_malloc_r+0x338>
80008a98:	e2 02 00 02 	add	r2,r1,r2
			previous correction failed */
      && ((POINTER_UINT)old_end & (pagesz - 1)) == 0)
  {
    top_size = sbrk_size + old_top_size;
    set_head(top, top_size | PREV_INUSE);
80008a9c:	68 28       	ld.w	r8,r4[0x8]
80008a9e:	a1 a2       	sbr	r2,0x0
80008aa0:	91 12       	st.w	r8[0x4],r2
80008aa2:	c4 b8       	rjmp	80008b38 <_malloc_r+0x3cc>
80008aa4:	e0 6a 05 40 	mov	r10,1344
  }
  else
  {
    if (sbrk_base == (char*)(-1))  /* First time through. Record base */
80008aa8:	74 0b       	ld.w	r11,r10[0x0]
80008aaa:	5b fb       	cp.w	r11,-1
80008aac:	c0 31       	brne	80008ab2 <_malloc_r+0x346>
80008aae:	95 06       	st.w	r10[0x0],r6
      sbrk_base = brk;
80008ab0:	c0 78       	rjmp	80008abe <_malloc_r+0x352>
80008ab2:	ec 09 00 09 	add	r9,r6,r9
    else  /* Someone else called sbrk().  Count those bytes as sbrked_mem. */
      sbrked_mem += brk - (char*)old_end;
80008ab6:	e0 6a 09 a8 	mov	r10,2472
80008aba:	10 19       	sub	r9,r8
80008abc:	95 09       	st.w	r10[0x0],r9

    /* Guarantee alignment of first new chunk made from this space */
    front_misalign = (POINTER_UINT)chunk2mem(brk) & MALLOC_ALIGN_MASK;
80008abe:	f1 d6 c0 03 	bfextu	r8,r6,0x0,0x3
    if (front_misalign > 0) 
80008ac2:	c0 40       	breq	80008aca <_malloc_r+0x35e>
    {
      correction = (MALLOC_ALIGNMENT) - front_misalign;
80008ac4:	f0 08 11 08 	rsub	r8,r8,8
      brk += correction;
80008ac8:	10 06       	add	r6,r8
    }
    else
      correction = 0;

    /* Guarantee the next brk will be at a page boundary */
    correction += pagesz - ((POINTER_UINT)(brk + sbrk_size) & (pagesz - 1));
80008aca:	28 08       	sub	r8,-128
80008acc:	ec 01 00 01 	add	r1,r6,r1

    /* Allocate correction */
    new_brk = (char*)(MORECORE (correction));
80008ad0:	0a 9c       	mov	r12,r5
    }
    else
      correction = 0;

    /* Guarantee the next brk will be at a page boundary */
    correction += pagesz - ((POINTER_UINT)(brk + sbrk_size) & (pagesz - 1));
80008ad2:	e3 d1 c0 07 	bfextu	r1,r1,0x0,0x7
80008ad6:	f0 01 01 01 	sub	r1,r8,r1

    /* Allocate correction */
    new_brk = (char*)(MORECORE (correction));
80008ada:	02 9b       	mov	r11,r1
80008adc:	c4 2d       	rcall	80008d60 <_sbrk_r>
80008ade:	30 08       	mov	r8,0
    if (new_brk == (char*)(MORECORE_FAILURE))
80008ae0:	5b fc       	cp.w	r12,-1
80008ae2:	c0 31       	brne	80008ae8 <_malloc_r+0x37c>
80008ae4:	0c 9c       	mov	r12,r6
80008ae6:	10 91       	mov	r1,r8
80008ae8:	e0 68 09 a8 	mov	r8,2472

    sbrked_mem += correction;

    top = (mchunkptr)brk;
    top_size = new_brk - brk + correction;
    set_head(top, top_size | PREV_INUSE);
80008aec:	0c 1c       	sub	r12,r6
	correction = 0;
	correction_failed = 1;
	new_brk = brk;
      }

    sbrked_mem += correction;
80008aee:	70 09       	ld.w	r9,r8[0x0]

    top = (mchunkptr)brk;
    top_size = new_brk - brk + correction;
    set_head(top, top_size | PREV_INUSE);
80008af0:	02 0c       	add	r12,r1
	new_brk = brk;
      }

    sbrked_mem += correction;

    top = (mchunkptr)brk;
80008af2:	89 26       	st.w	r4[0x8],r6
    top_size = new_brk - brk + correction;
    set_head(top, top_size | PREV_INUSE);
80008af4:	a1 ac       	sbr	r12,0x0
	correction = 0;
	correction_failed = 1;
	new_brk = brk;
      }

    sbrked_mem += correction;
80008af6:	12 01       	add	r1,r9

    top = (mchunkptr)brk;
    top_size = new_brk - brk + correction;
    set_head(top, top_size | PREV_INUSE);
80008af8:	8d 1c       	st.w	r6[0x4],r12
	correction = 0;
	correction_failed = 1;
	new_brk = brk;
      }

    sbrked_mem += correction;
80008afa:	91 01       	st.w	r8[0x0],r1

    top = (mchunkptr)brk;
    top_size = new_brk - brk + correction;
    set_head(top, top_size | PREV_INUSE);

    if (old_top != initial_top)
80008afc:	08 33       	cp.w	r3,r4
80008afe:	c1 d0       	breq	80008b38 <_malloc_r+0x3cc>

      /* There must have been an intervening foreign sbrk call. */
      /* A double fencepost is necessary to prevent consolidation */

      /* If not enough space to do this, then user did something very wrong */
      if (old_top_size < MINSIZE) 
80008b00:	58 f2       	cp.w	r2,15
80008b02:	e0 8b 00 05 	brhi	80008b0c <_malloc_r+0x3a0>
      {
        set_head(top, PREV_INUSE); /* will force null return from malloc */
80008b06:	30 18       	mov	r8,1
80008b08:	8d 18       	st.w	r6[0x4],r8
80008b0a:	c2 88       	rjmp	80008b5a <_malloc_r+0x3ee>
        return;
      }

      /* Also keep size a multiple of MALLOC_ALIGNMENT */
      old_top_size = (old_top_size - 3*SIZE_SZ) & ~MALLOC_ALIGN_MASK;
      chunk_at_offset(old_top, old_top_size          )->size =
80008b0c:	30 59       	mov	r9,5
        set_head(top, PREV_INUSE); /* will force null return from malloc */
        return;
      }

      /* Also keep size a multiple of MALLOC_ALIGNMENT */
      old_top_size = (old_top_size - 3*SIZE_SZ) & ~MALLOC_ALIGN_MASK;
80008b0e:	20 c2       	sub	r2,12
80008b10:	e0 12 ff f8 	andl	r2,0xfff8
      chunk_at_offset(old_top, old_top_size          )->size =
80008b14:	e6 02 00 08 	add	r8,r3,r2
        SIZE_SZ|PREV_INUSE;
      chunk_at_offset(old_top, old_top_size + SIZE_SZ)->size =
80008b18:	91 29       	st.w	r8[0x8],r9
        return;
      }

      /* Also keep size a multiple of MALLOC_ALIGNMENT */
      old_top_size = (old_top_size - 3*SIZE_SZ) & ~MALLOC_ALIGN_MASK;
      chunk_at_offset(old_top, old_top_size          )->size =
80008b1a:	91 19       	st.w	r8[0x4],r9
        SIZE_SZ|PREV_INUSE;
      chunk_at_offset(old_top, old_top_size + SIZE_SZ)->size =
        SIZE_SZ|PREV_INUSE;
      set_head_size(old_top, old_top_size);
80008b1c:	66 18       	ld.w	r8,r3[0x4]
80008b1e:	f1 d8 c0 01 	bfextu	r8,r8,0x0,0x1
80008b22:	e5 e8 10 08 	or	r8,r2,r8
80008b26:	87 18       	st.w	r3[0x4],r8
      /* If possible, release the rest. */
      if (old_top_size >= MINSIZE) 
80008b28:	58 f2       	cp.w	r2,15
80008b2a:	e0 88 00 07 	brls	80008b38 <_malloc_r+0x3cc>
        fREe(RCALL chunk2mem(old_top));
80008b2e:	e6 cb ff f8 	sub	r11,r3,-8
80008b32:	0a 9c       	mov	r12,r5
80008b34:	e0 a0 02 64 	rcall	80008ffc <_free_r>
    }
  }

  if ((unsigned long)sbrked_mem > (unsigned long)max_sbrked_mem) 
80008b38:	e0 68 09 a8 	mov	r8,2472
80008b3c:	e0 69 09 a0 	mov	r9,2464
80008b40:	70 08       	ld.w	r8,r8[0x0]
80008b42:	72 0a       	ld.w	r10,r9[0x0]
80008b44:	14 38       	cp.w	r8,r10
    max_sbrked_mem = sbrked_mem;
80008b46:	e0 88 00 03 	brls	80008b4c <_malloc_r+0x3e0>
#if HAVE_MMAP
  if ((unsigned long)(mmapped_mem + sbrked_mem) > (unsigned long)max_total_mem) 
    max_total_mem = mmapped_mem + sbrked_mem;
#else
  if ((unsigned long)(sbrked_mem) > (unsigned long)max_total_mem) 
80008b4a:	93 08       	st.w	r9[0x0],r8
80008b4c:	e0 69 09 9c 	mov	r9,2460
80008b50:	72 0a       	ld.w	r10,r9[0x0]
    max_total_mem = sbrked_mem;
80008b52:	14 38       	cp.w	r8,r10
    }
#endif

    /* Try to extend */
    malloc_extend_top(RCALL nb);
    remainder_size = long_sub_size_t(chunksize(top), nb);
80008b54:	e0 88 00 03 	brls	80008b5a <_malloc_r+0x3ee>
80008b58:	93 08       	st.w	r9[0x0],r8
80008b5a:	68 28       	ld.w	r8,r4[0x8]
    if (chunksize(top) < nb || remainder_size < (long)MINSIZE)
80008b5c:	70 18       	ld.w	r8,r8[0x4]
80008b5e:	e0 18 ff fc 	andl	r8,0xfffc
80008b62:	0e 38       	cp.w	r8,r7
80008b64:	5f 39       	srlo	r9
80008b66:	0e 18       	sub	r8,r7
80008b68:	58 f8       	cp.w	r8,15
80008b6a:	5f aa       	srle	r10
    {
      MALLOC_UNLOCK;
80008b6c:	f5 e9 10 09 	or	r9,r10,r9
80008b70:	c0 40       	breq	80008b78 <_malloc_r+0x40c>
80008b72:	0a 9c       	mov	r12,r5
80008b74:	cb 5c       	rcall	80008cde <__malloc_unlock>
80008b76:	d8 3a       	popm	r0-r7,pc,r12=0
80008b78:	68 26       	ld.w	r6,r4[0x8]
80008b7a:	a1 a8       	sbr	r8,0x0
80008b7c:	0e 99       	mov	r9,r7
80008b7e:	a1 a9       	sbr	r9,0x0
80008b80:	8d 19       	st.w	r6[0x4],r9
80008b82:	ec 07 00 07 	add	r7,r6,r7
80008b86:	0a 9c       	mov	r12,r5
80008b88:	89 27       	st.w	r4[0x8],r7
80008b8a:	8f 18       	st.w	r7[0x4],r8
80008b8c:	ca 9c       	rcall	80008cde <__malloc_unlock>
80008b8e:	ec cc ff f8 	sub	r12,r6,-8
80008b92:	d8 32       	popm	r0-r7,pc

80008b94 <memcpy>:
      return 0; /* propagate failure */
    }
  }

  victim = top;
80008b94:	58 8a       	cp.w	r10,8
  set_head(victim, nb | PREV_INUSE);
  top = chunk_at_offset(victim, nb);
  set_head(top, remainder_size | PREV_INUSE);
80008b96:	c2 f5       	brlt	80008bf4 <memcpy+0x60>
      return 0; /* propagate failure */
    }
  }

  victim = top;
  set_head(victim, nb | PREV_INUSE);
80008b98:	f9 eb 10 09 	or	r9,r12,r11
80008b9c:	e2 19 00 03 	andl	r9,0x3,COH
  top = chunk_at_offset(victim, nb);
80008ba0:	e0 81 00 97 	brne	80008cce <memcpy+0x13a>
80008ba4:	e0 4a 00 20 	cp.w	r10,32
  set_head(top, remainder_size | PREV_INUSE);
  check_malloced_chunk(victim, nb);
  MALLOC_UNLOCK;
80008ba8:	c3 b4       	brge	80008c1e <memcpy+0x8a>
80008baa:	f4 08 14 02 	asr	r8,r10,0x2
  return chunk2mem(victim);
80008bae:	f0 09 11 08 	rsub	r9,r8,8

#endif /* MALLOC_PROVIDED */
}
80008bb2:	fe 09 00 2f 	add	pc,pc,r9<<0x2
80008bb6:	76 69       	ld.w	r9,r11[0x18]
80008bb8:	99 69       	st.w	r12[0x18],r9
80008bba:	76 59       	ld.w	r9,r11[0x14]
80008bbc:	99 59       	st.w	r12[0x14],r9
80008bbe:	76 49       	ld.w	r9,r11[0x10]
80008bc0:	99 49       	st.w	r12[0x10],r9
80008bc2:	76 39       	ld.w	r9,r11[0xc]
80008bc4:	99 39       	st.w	r12[0xc],r9
80008bc6:	76 29       	ld.w	r9,r11[0x8]
80008bc8:	99 29       	st.w	r12[0x8],r9
80008bca:	76 19       	ld.w	r9,r11[0x4]
80008bcc:	99 19       	st.w	r12[0x4],r9
80008bce:	76 09       	ld.w	r9,r11[0x0]
80008bd0:	99 09       	st.w	r12[0x0],r9
80008bd2:	f6 08 00 2b 	add	r11,r11,r8<<0x2
80008bd6:	f8 08 00 28 	add	r8,r12,r8<<0x2
80008bda:	e0 1a 00 03 	andl	r10,0x3
80008bde:	f4 0a 11 04 	rsub	r10,r10,4
80008be2:	fe 0a 00 2f 	add	pc,pc,r10<<0x2
80008be6:	17 a9       	ld.ub	r9,r11[0x2]
80008be8:	b0 a9       	st.b	r8[0x2],r9
80008bea:	17 99       	ld.ub	r9,r11[0x1]
80008bec:	b0 99       	st.b	r8[0x1],r9
80008bee:	17 89       	ld.ub	r9,r11[0x0]
80008bf0:	b0 89       	st.b	r8[0x0],r9
80008bf2:	5e fc       	retal	r12
80008bf4:	f4 0a 11 09 	rsub	r10,r10,9
80008bf8:	fe 0a 00 2f 	add	pc,pc,r10<<0x2
80008bfc:	17 f9       	ld.ub	r9,r11[0x7]
80008bfe:	b8 f9       	st.b	r12[0x7],r9
80008c00:	17 e9       	ld.ub	r9,r11[0x6]
80008c02:	b8 e9       	st.b	r12[0x6],r9
80008c04:	17 d9       	ld.ub	r9,r11[0x5]
80008c06:	b8 d9       	st.b	r12[0x5],r9
80008c08:	17 c9       	ld.ub	r9,r11[0x4]
80008c0a:	b8 c9       	st.b	r12[0x4],r9
80008c0c:	17 b9       	ld.ub	r9,r11[0x3]
80008c0e:	b8 b9       	st.b	r12[0x3],r9
80008c10:	17 a9       	ld.ub	r9,r11[0x2]
80008c12:	b8 a9       	st.b	r12[0x2],r9
80008c14:	17 99       	ld.ub	r9,r11[0x1]
80008c16:	b8 99       	st.b	r12[0x1],r9
80008c18:	17 89       	ld.ub	r9,r11[0x0]
80008c1a:	b8 89       	st.b	r12[0x0],r9
80008c1c:	5e fc       	retal	r12
80008c1e:	eb cd 40 c0 	pushm	r6-r7,lr
80008c22:	18 99       	mov	r9,r12
80008c24:	22 0a       	sub	r10,32
80008c26:	b7 07       	ld.d	r6,r11++
80008c28:	b3 26       	st.d	r9++,r6
80008c2a:	b7 07       	ld.d	r6,r11++
80008c2c:	b3 26       	st.d	r9++,r6
80008c2e:	b7 07       	ld.d	r6,r11++
80008c30:	b3 26       	st.d	r9++,r6
80008c32:	b7 07       	ld.d	r6,r11++
80008c34:	b3 26       	st.d	r9++,r6
80008c36:	22 0a       	sub	r10,32
80008c38:	cf 74       	brge	80008c26 <memcpy+0x92>
80008c3a:	2f 0a       	sub	r10,-16
80008c3c:	c0 65       	brlt	80008c48 <memcpy+0xb4>
80008c3e:	b7 07       	ld.d	r6,r11++
80008c40:	b3 26       	st.d	r9++,r6
80008c42:	b7 07       	ld.d	r6,r11++
80008c44:	b3 26       	st.d	r9++,r6
80008c46:	21 0a       	sub	r10,16
80008c48:	5c 3a       	neg	r10
80008c4a:	fe 0a 00 3f 	add	pc,pc,r10<<0x3
80008c4e:	d7 03       	nop
80008c50:	d7 03       	nop
80008c52:	f7 36 00 0e 	ld.ub	r6,r11[14]
80008c56:	f3 66 00 0e 	st.b	r9[14],r6
80008c5a:	f7 36 00 0d 	ld.ub	r6,r11[13]
80008c5e:	f3 66 00 0d 	st.b	r9[13],r6
80008c62:	f7 36 00 0c 	ld.ub	r6,r11[12]
80008c66:	f3 66 00 0c 	st.b	r9[12],r6
80008c6a:	f7 36 00 0b 	ld.ub	r6,r11[11]
80008c6e:	f3 66 00 0b 	st.b	r9[11],r6
80008c72:	f7 36 00 0a 	ld.ub	r6,r11[10]
80008c76:	f3 66 00 0a 	st.b	r9[10],r6
80008c7a:	f7 36 00 09 	ld.ub	r6,r11[9]
80008c7e:	f3 66 00 09 	st.b	r9[9],r6
80008c82:	f7 36 00 08 	ld.ub	r6,r11[8]
80008c86:	f3 66 00 08 	st.b	r9[8],r6
80008c8a:	f7 36 00 07 	ld.ub	r6,r11[7]
80008c8e:	f3 66 00 07 	st.b	r9[7],r6
80008c92:	f7 36 00 06 	ld.ub	r6,r11[6]
80008c96:	f3 66 00 06 	st.b	r9[6],r6
80008c9a:	f7 36 00 05 	ld.ub	r6,r11[5]
80008c9e:	f3 66 00 05 	st.b	r9[5],r6
80008ca2:	f7 36 00 04 	ld.ub	r6,r11[4]
80008ca6:	f3 66 00 04 	st.b	r9[4],r6
80008caa:	f7 36 00 03 	ld.ub	r6,r11[3]
80008cae:	f3 66 00 03 	st.b	r9[3],r6
80008cb2:	f7 36 00 02 	ld.ub	r6,r11[2]
80008cb6:	f3 66 00 02 	st.b	r9[2],r6
80008cba:	f7 36 00 01 	ld.ub	r6,r11[1]
80008cbe:	f3 66 00 01 	st.b	r9[1],r6
80008cc2:	f7 36 00 00 	ld.ub	r6,r11[0]
80008cc6:	f3 66 00 00 	st.b	r9[0],r6
80008cca:	e3 cd 80 c0 	ldm	sp++,r6-r7,pc
80008cce:	20 1a       	sub	r10,1
80008cd0:	f6 0a 07 09 	ld.ub	r9,r11[r10]
80008cd4:	f8 0a 0b 09 	st.b	r12[r10],r9
80008cd8:	cf b1       	brne	80008cce <memcpy+0x13a>
80008cda:	5e fc       	retal	r12

80008cdc <__malloc_lock>:
     struct _reent *ptr;
{
#ifndef __SINGLE_THREAD__
  __lock_acquire_recursive (__malloc_lock_object);
#endif
}
80008cdc:	5e fc       	retal	r12

80008cde <__malloc_unlock>:
     struct _reent *ptr;
{
#ifndef __SINGLE_THREAD__
  __lock_release_recursive (__malloc_lock_object);
#endif
}
80008cde:	5e fc       	retal	r12

80008ce0 <rand>:
  _REENT_RAND_NEXT(_REENT) = seed;
}

int
_DEFUN_VOID (rand)
{
80008ce0:	d4 21       	pushm	r4-r7,lr
  /* This multiplier was obtained from Knuth, D.E., "The Art of
     Computer Programming," Vol 2, Seminumerical Algorithms, Third
     Edition, Addison-Wesley, 1998, p. 106 (line 26) & p. 108 */
  _REENT_CHECK_RAND48(_REENT);
80008ce2:	e0 67 01 30 	mov	r7,304
80008ce6:	6e 06       	ld.w	r6,r7[0x0]
80008ce8:	6c e8       	ld.w	r8,r6[0x38]
80008cea:	58 08       	cp.w	r8,0
80008cec:	c1 a1       	brne	80008d20 <rand+0x40>
80008cee:	31 8c       	mov	r12,24
80008cf0:	fe b0 fd 36 	rcall	8000875c <malloc>
80008cf4:	e0 69 33 0e 	mov	r9,13070
80008cf8:	8d ec       	st.w	r6[0x38],r12
80008cfa:	6e 08       	ld.w	r8,r7[0x0]
80008cfc:	70 e8       	ld.w	r8,r8[0x38]
80008cfe:	b0 09       	st.h	r8[0x0],r9
80008d00:	fe 79 ab cd 	mov	r9,-21555
80008d04:	b0 19       	st.h	r8[0x2],r9
80008d06:	e0 69 12 34 	mov	r9,4660
80008d0a:	b0 29       	st.h	r8[0x4],r9
80008d0c:	fe 79 e6 6d 	mov	r9,-6547
80008d10:	b0 39       	st.h	r8[0x6],r9
80008d12:	fe 79 de ec 	mov	r9,-8468
80008d16:	b0 49       	st.h	r8[0x8],r9
80008d18:	30 59       	mov	r9,5
80008d1a:	b0 59       	st.h	r8[0xa],r9
80008d1c:	30 b9       	mov	r9,11
  _REENT_RAND_NEXT(_REENT) = 
     _REENT_RAND_NEXT(_REENT) * __extension__ 6364136223846793005LL + 1;
80008d1e:	b0 69       	st.h	r8[0xc],r9
80008d20:	e0 68 01 30 	mov	r8,304
80008d24:	70 08       	ld.w	r8,r8[0x0]
80008d26:	70 e8       	ld.w	r8,r8[0x38]
80008d28:	70 47       	ld.w	r7,r8[0x10]
80008d2a:	70 5c       	ld.w	r12,r8[0x14]
80008d2c:	e0 69 7f 2d 	mov	r9,32557
80008d30:	ea 19 4c 95 	orh	r9,0x4c95
80008d34:	f8 09 06 4a 	mulu.d	r10,r12,r9
80008d38:	ee 09 02 49 	mul	r9,r7,r9
80008d3c:	e0 67 f4 2d 	mov	r7,62509
80008d40:	ea 17 58 51 	orh	r7,0x5851
80008d44:	30 16       	mov	r6,1
80008d46:	f8 07 03 49 	mac	r9,r12,r7
80008d4a:	30 07       	mov	r7,0
80008d4c:	f2 0b 00 0b 	add	r11,r9,r11
80008d50:	0c 0a       	add	r10,r6
{
  /* This multiplier was obtained from Knuth, D.E., "The Art of
     Computer Programming," Vol 2, Seminumerical Algorithms, Third
     Edition, Addison-Wesley, 1998, p. 106 (line 26) & p. 108 */
  _REENT_CHECK_RAND48(_REENT);
  _REENT_RAND_NEXT(_REENT) = 
80008d52:	f6 07 00 4b 	adc	r11,r11,r7
     _REENT_RAND_NEXT(_REENT) * __extension__ 6364136223846793005LL + 1;
  return (int)((_REENT_RAND_NEXT(_REENT) >> 32) & RAND_MAX);
}
80008d56:	f0 eb 00 10 	st.d	r8[16],r10
80008d5a:	f9 db c0 1f 	bfextu	r12,r11,0x0,0x1f
80008d5e:	d8 22       	popm	r4-r7,pc

80008d60 <_sbrk_r>:

void *
_DEFUN (_sbrk_r, (ptr, incr),
     struct _reent *ptr _AND
     ptrdiff_t incr)
{
80008d60:	d4 21       	pushm	r4-r7,lr
  char *ret;
  void *_sbrk(ptrdiff_t);

  errno = 0;
80008d62:	30 08       	mov	r8,0

void *
_DEFUN (_sbrk_r, (ptr, incr),
     struct _reent *ptr _AND
     ptrdiff_t incr)
{
80008d64:	18 97       	mov	r7,r12
  char *ret;
  void *_sbrk(ptrdiff_t);

  errno = 0;
80008d66:	e0 66 1c b8 	mov	r6,7352
80008d6a:	16 9c       	mov	r12,r11
  if ((ret = (char *)(_sbrk (incr))) == (void *) -1 && errno != 0)
80008d6c:	8d 08       	st.w	r6[0x0],r8
80008d6e:	c2 7c       	rcall	80008dbc <_sbrk>
80008d70:	5b fc       	cp.w	r12,-1
80008d72:	c0 51       	brne	80008d7c <_sbrk_r+0x1c>
80008d74:	6c 08       	ld.w	r8,r6[0x0]
80008d76:	58 08       	cp.w	r8,0
80008d78:	c0 20       	breq	80008d7c <_sbrk_r+0x1c>
    ptr->_errno = errno;
80008d7a:	8f 38       	st.w	r7[0xc],r8
  return ret;
}
80008d7c:	d8 22       	popm	r4-r7,pc
80008d7e:	d7 03       	nop

80008d80 <strncmp>:
	_CONST char *s1 _AND
	_CONST char *s2 _AND
	size_t n)
{
#if defined(PREFER_SIZE_OVER_SPEED) || defined(__OPTIMIZE_SIZE__)
  if (n == 0)
80008d80:	58 0a       	cp.w	r10,0
80008d82:	c0 81       	brne	80008d92 <strncmp+0x12>
80008d84:	5e fa       	retal	r10
    return 0;

  while (n-- != 0 && *s1 == *s2)
    {
      if (n == 0 || *s1 == '\0')
80008d86:	58 0a       	cp.w	r10,0
80008d88:	c0 b0       	breq	80008d9e <strncmp+0x1e>
80008d8a:	58 08       	cp.w	r8,0
80008d8c:	c0 90       	breq	80008d9e <strncmp+0x1e>
	break;
      s1++;
80008d8e:	2f fc       	sub	r12,-1
      s2++;
80008d90:	2f fb       	sub	r11,-1
{
#if defined(PREFER_SIZE_OVER_SPEED) || defined(__OPTIMIZE_SIZE__)
  if (n == 0)
    return 0;

  while (n-- != 0 && *s1 == *s2)
80008d92:	20 1a       	sub	r10,1
80008d94:	19 88       	ld.ub	r8,r12[0x0]
80008d96:	17 89       	ld.ub	r9,r11[0x0]
80008d98:	f0 09 18 00 	cp.b	r9,r8
80008d9c:	cf 50       	breq	80008d86 <strncmp+0x6>
	break;
      s1++;
      s2++;
    }

  return (*(unsigned char *) s1) - (*(unsigned char *) s2);
80008d9e:	19 8c       	ld.ub	r12,r12[0x0]
80008da0:	17 88       	ld.ub	r8,r11[0x0]
80008da2:	10 1c       	sub	r12,r8
      s1++;
      s2++;
    }
  return (*(unsigned char *) s1) - (*(unsigned char *) s2);
#endif /* not PREFER_SIZE_OVER_SPEED */
}
80008da4:	5e fc       	retal	r12

80008da6 <_init_startup>:

int  __attribute__((weak))
     _init_startup ()
{
  return 0;
}
80008da6:	5e fd       	retal	0

80008da8 <_init_argv>:
}
  
void __attribute__((weak,naked))
     _init_argv (void *arg_mem_top)
{
  T2H_SYSCALL(T2H_SYSCALL_INIT_ARGV);
80008da8:	30 e8       	mov	r8,14
80008daa:	d6 73       	breakpoint
80008dac:	3f fc       	mov	r12,-1
80008dae:	35 8b       	mov	r11,88
  T2H_SYSCALL_RETURN();
80008db0:	5e fc       	retal	r12

80008db2 <_exit>:
}

void __attribute__((weak,naked))
     _exit( int code )
{
  T2H_SYSCALL(T2H_SYSCALL_EXIT);
80008db2:	30 d8       	mov	r8,13
80008db4:	d6 73       	breakpoint
80008db6:	3f fc       	mov	r12,-1
80008db8:	35 8b       	mov	r11,88
80008dba:	c0 08       	rjmp	80008dba <_exit+0x8>

80008dbc <_sbrk>:
 
extern void __heap_start__, __heap_end__;

void * __attribute__((weak))
     _sbrk(int increment)
{
80008dbc:	d4 01       	pushm	lr
  static void *cur_heap_pos = 0;

  //Initialize cur_heap_pos
  if ( cur_heap_pos == 0 )
80008dbe:	e0 68 09 d0 	mov	r8,2512
80008dc2:	70 09       	ld.w	r9,r8[0x0]
80008dc4:	58 09       	cp.w	r9,0
    cur_heap_pos = &__heap_start__;
80008dc6:	c0 41       	brne	80008dce <_sbrk+0x12>
80008dc8:	e0 69 1c c0 	mov	r9,7360
  
  if ( (cur_heap_pos + increment) <= &__heap_end__ ){
80008dcc:	91 09       	st.w	r8[0x0],r9
80008dce:	e0 69 09 d0 	mov	r9,2512
80008dd2:	e0 6a 70 00 	mov	r10,28672
80008dd6:	72 08       	ld.w	r8,r9[0x0]
80008dd8:	f0 0c 00 0c 	add	r12,r8,r12
    void *heap_pos = cur_heap_pos;
    cur_heap_pos += increment;
    return heap_pos;
80008ddc:	14 3c       	cp.w	r12,r10
    fprintf(stderr, "\tHeap start address\t= 0x%x\n", &__heap_start__);
    fprintf(stderr, "\tHeap end address\t= 0x%x\n", &__heap_end__);
    fprintf(stderr, "\tCurrent heap address\t= 0x%x\n", cur_heap_pos);
    fflush(stderr);
#endif
    errno = ENOMEM;
80008dde:	e0 8b 00 04 	brhi	80008de6 <_sbrk+0x2a>
80008de2:	93 0c       	st.w	r9[0x0],r12
80008de4:	c0 58       	rjmp	80008dee <_sbrk+0x32>
80008de6:	cb fc       	rcall	80008f64 <__errno>
    return (void *)-1;
  }  
  return (void *)-1;
}
80008de8:	30 c8       	mov	r8,12
80008dea:	99 08       	st.w	r12[0x0],r8
80008dec:	3f f8       	mov	r8,-1
80008dee:	10 9c       	mov	r12,r8
80008df0:	d8 02       	popm	pc
80008df2:	d7 03       	nop

80008df4 <__register_exitproc>:
	(type, fn, arg, d),
	int type _AND
	void (*fn) (void) _AND
	void *arg _AND
	void *d)
{
80008df4:	d4 31       	pushm	r0-r7,lr
  __LOCK_INIT(static, lock);

  __lock_acquire(lock);
#endif

  p = _GLOBAL_REENT->_atexit;
80008df6:	fe c8 f4 3e 	sub	r8,pc,-3010
80008dfa:	18 97       	mov	r7,r12
	(type, fn, arg, d),
	int type _AND
	void (*fn) (void) _AND
	void *arg _AND
	void *d)
{
80008dfc:	70 03       	ld.w	r3,r8[0x0]
80008dfe:	16 96       	mov	r6,r11
80008e00:	14 95       	mov	r5,r10
  __LOCK_INIT(static, lock);

  __lock_acquire(lock);
#endif

  p = _GLOBAL_REENT->_atexit;
80008e02:	12 92       	mov	r2,r9
  if (p == NULL)
80008e04:	67 24       	ld.w	r4,r3[0x48]
80008e06:	58 04       	cp.w	r4,0
    _GLOBAL_REENT->_atexit = p = &_GLOBAL_REENT->_atexit0;
80008e08:	c0 51       	brne	80008e12 <__register_exitproc+0x1e>
80008e0a:	e6 c4 ff b4 	sub	r4,r3,-76
80008e0e:	e7 44 00 48 	st.w	r3[72],r4
  if (p->_ind >= _ATEXIT_SIZE)
80008e12:	68 18       	ld.w	r8,r4[0x4]
80008e14:	59 f8       	cp.w	r8,31
80008e16:	e0 8a 00 0e 	brle	80008e32 <__register_exitproc+0x3e>
    {
#ifndef _ATEXIT_DYNAMIC_ALLOC
      return -1;
#else
      p = (struct _atexit *) malloc (sizeof *p);
80008e1a:	e0 6c 00 8c 	mov	r12,140
80008e1e:	fe b0 fc 9f 	rcall	8000875c <malloc>
      if (p == NULL)
80008e22:	18 94       	mov	r4,r12
	  __lock_release(lock);
#endif
	  return -1;
	}
      p->_ind = 0;
      p->_next = _GLOBAL_REENT->_atexit;
80008e24:	c3 90       	breq	80008e96 <__register_exitproc+0xa2>
80008e26:	67 28       	ld.w	r8,r3[0x48]
      _GLOBAL_REENT->_atexit = p;
80008e28:	99 08       	st.w	r12[0x0],r8
80008e2a:	e7 4c 00 48 	st.w	r3[72],r12
#ifndef __SINGLE_THREAD__
	  __lock_release(lock);
#endif
	  return -1;
	}
      p->_ind = 0;
80008e2e:	30 08       	mov	r8,0
      p->_on_exit_args._is_cxa = 0;
#endif
#endif
    }

  if (type != __et_atexit)
80008e30:	99 18       	st.w	r12[0x4],r8
80008e32:	58 07       	cp.w	r7,0
    {
#ifdef _REENT_SMALL
      args = p->_on_exit_args_ptr;
80008e34:	c2 80       	breq	80008e84 <__register_exitproc+0x90>
80008e36:	e8 fc 00 88 	ld.w	r12,r4[136]
      if (args == NULL)
80008e3a:	58 0c       	cp.w	r12,0
	{
	  args = malloc (sizeof * p->_on_exit_args_ptr);
80008e3c:	c0 d1       	brne	80008e56 <__register_exitproc+0x62>
80008e3e:	e0 6c 01 08 	mov	r12,264
80008e42:	fe b0 fc 8d 	rcall	8000875c <malloc>
#ifndef __SINGLE_THREAD__
	      __lock_release(lock);
#endif
	      return -1;
	    }
	  args->_fntypes = 0;
80008e46:	c2 80       	breq	80008e96 <__register_exitproc+0xa2>
	  args->_is_cxa = 0;
	  p->_on_exit_args_ptr = args;
80008e48:	30 08       	mov	r8,0
80008e4a:	e9 4c 00 88 	st.w	r4[136],r12
	      __lock_release(lock);
#endif
	      return -1;
	    }
	  args->_fntypes = 0;
	  args->_is_cxa = 0;
80008e4e:	f9 48 01 04 	st.w	r12[260],r8
#ifndef __SINGLE_THREAD__
	      __lock_release(lock);
#endif
	      return -1;
	    }
	  args->_fntypes = 0;
80008e52:	f9 48 01 00 	st.w	r12[256],r8
#else
      args = &p->_on_exit_args;
#endif
      args->_fnargs[p->_ind] = arg;
      args->_fntypes |= (1 << p->_ind);
      args->_dso_handle[p->_ind] = d;
80008e56:	68 18       	ld.w	r8,r4[0x4]
80008e58:	f0 c9 ff e0 	sub	r9,r8,-32
	  p->_on_exit_args_ptr = args;
	}
#else
      args = &p->_on_exit_args;
#endif
      args->_fnargs[p->_ind] = arg;
80008e5c:	f8 08 09 25 	st.w	r12[r8<<0x2],r5
      args->_fntypes |= (1 << p->_ind);
      args->_dso_handle[p->_ind] = d;
80008e60:	f8 09 09 22 	st.w	r12[r9<<0x2],r2
	}
#else
      args = &p->_on_exit_args;
#endif
      args->_fnargs[p->_ind] = arg;
      args->_fntypes |= (1 << p->_ind);
80008e64:	30 1a       	mov	r10,1
80008e66:	f8 f9 01 00 	ld.w	r9,r12[256]
80008e6a:	f4 08 09 48 	lsl	r8,r10,r8
80008e6e:	10 49       	or	r9,r8
80008e70:	f9 49 01 00 	st.w	r12[256],r9
      args->_dso_handle[p->_ind] = d;
      if (type == __et_cxa)
80008e74:	58 27       	cp.w	r7,2
	args->_is_cxa |= (1 << p->_ind);
80008e76:	c0 71       	brne	80008e84 <__register_exitproc+0x90>
80008e78:	f8 f9 01 04 	ld.w	r9,r12[260]
80008e7c:	f3 e8 10 08 	or	r8,r9,r8
80008e80:	f9 48 01 04 	st.w	r12[260],r8
    }
  p->_fns[p->_ind++] = fn;
80008e84:	68 18       	ld.w	r8,r4[0x4]
80008e86:	30 0c       	mov	r12,0
80008e88:	f0 c9 ff ff 	sub	r9,r8,-1
80008e8c:	2f e8       	sub	r8,-2
80008e8e:	89 19       	st.w	r4[0x4],r9
80008e90:	e8 08 09 26 	st.w	r4[r8<<0x2],r6
#ifndef __SINGLE_THREAD__
  __lock_release(lock);
#endif
  return 0;
80008e94:	d8 32       	popm	r0-r7,pc
80008e96:	dc 3a       	popm	r0-r7,pc,r12=-1

80008e98 <__call_exitprocs>:
 */

void 
_DEFUN (__call_exitprocs, (code, d),
	int code _AND _PTR d)
{
80008e98:	d4 31       	pushm	r0-r7,lr
80008e9a:	20 3d       	sub	sp,12
  int i;
  void (*fn) (void);

 restart:

  p = _GLOBAL_REENT->_atexit;
80008e9c:	fe c8 f4 e4 	sub	r8,pc,-2844
80008ea0:	50 2c       	stdsp	sp[0x8],r12
 */

void 
_DEFUN (__call_exitprocs, (code, d),
	int code _AND _PTR d)
{
80008ea2:	70 08       	ld.w	r8,r8[0x0]
  int i;
  void (*fn) (void);

 restart:

  p = _GLOBAL_REENT->_atexit;
80008ea4:	16 91       	mov	r1,r11
  lastp = &_GLOBAL_REENT->_atexit;
80008ea6:	50 08       	stdsp	sp[0x0],r8
80008ea8:	2b 88       	sub	r8,-72
  int i;
  void (*fn) (void);

 restart:

  p = _GLOBAL_REENT->_atexit;
80008eaa:	50 18       	stdsp	sp[0x4],r8
80008eac:	40 0a       	lddsp	r10,sp[0x0]
80008eae:	40 14       	lddsp	r4,sp[0x4]
  lastp = &_GLOBAL_REENT->_atexit;
  while (p)
80008eb0:	75 27       	ld.w	r7,r10[0x48]
#ifdef _REENT_SMALL
      args = p->_on_exit_args_ptr;
#else
      args = &p->_on_exit_args;
#endif
      for (n = p->_ind - 1; n >= 0; n--)
80008eb2:	c5 48       	rjmp	80008f5a <__call_exitprocs+0xc2>
  p = _GLOBAL_REENT->_atexit;
  lastp = &_GLOBAL_REENT->_atexit;
  while (p)
    {
#ifdef _REENT_SMALL
      args = p->_on_exit_args_ptr;
80008eb4:	6e 15       	ld.w	r5,r7[0x4]
80008eb6:	ee f6 00 88 	ld.w	r6,r7[136]
#else
      args = &p->_on_exit_args;
#endif
      for (n = p->_ind - 1; n >= 0; n--)
80008eba:	ea c2 ff ff 	sub	r2,r5,-1
80008ebe:	20 15       	sub	r5,1
80008ec0:	ee 02 00 22 	add	r2,r7,r2<<0x2
80008ec4:	ec 05 00 23 	add	r3,r6,r5<<0x2
	  int ind;

	  i = 1 << n;

	  /* Skip functions not from this dso.  */
	  if (d && (!args || args->_dso_handle[n] != d))
80008ec8:	c3 48       	rjmp	80008f30 <__call_exitprocs+0x98>
80008eca:	58 01       	cp.w	r1,0
80008ecc:	c0 70       	breq	80008eda <__call_exitprocs+0x42>
80008ece:	58 06       	cp.w	r6,0
80008ed0:	c2 d0       	breq	80008f2a <__call_exitprocs+0x92>
80008ed2:	e6 f8 00 80 	ld.w	r8,r3[128]
80008ed6:	02 38       	cp.w	r8,r1
	    continue;

	  /* Remove the function now to protect against the
	     function calling exit recursively.  */
	  fn = p->_fns[n];
	  if (n == p->_ind - 1)
80008ed8:	c2 91       	brne	80008f2a <__call_exitprocs+0x92>
	  if (d && (!args || args->_dso_handle[n] != d))
	    continue;

	  /* Remove the function now to protect against the
	     function calling exit recursively.  */
	  fn = p->_fns[n];
80008eda:	6e 19       	ld.w	r9,r7[0x4]
	  if (n == p->_ind - 1)
80008edc:	64 08       	ld.w	r8,r2[0x0]
80008ede:	20 19       	sub	r9,1
80008ee0:	12 35       	cp.w	r5,r9
	    p->_ind--;
80008ee2:	c0 31       	brne	80008ee8 <__call_exitprocs+0x50>
80008ee4:	8f 15       	st.w	r7[0x4],r5
	  else
	    p->_fns[n] = NULL;
80008ee6:	c0 38       	rjmp	80008eec <__call_exitprocs+0x54>
80008ee8:	30 09       	mov	r9,0

	  /* Skip functions that have already been called.  */
	  if (!fn)
80008eea:	85 09       	st.w	r2[0x0],r9
80008eec:	58 08       	cp.w	r8,0
	    continue;

	  ind = p->_ind;
80008eee:	c1 e0       	breq	80008f2a <__call_exitprocs+0x92>

	  /* Call the function.  */
	  if (!args || (args->_fntypes & i) == 0)
80008ef0:	6e 10       	ld.w	r0,r7[0x4]
80008ef2:	58 06       	cp.w	r6,0
80008ef4:	c0 90       	breq	80008f06 <__call_exitprocs+0x6e>
80008ef6:	30 1a       	mov	r10,1
80008ef8:	f4 05 09 49 	lsl	r9,r10,r5
80008efc:	ec fa 01 00 	ld.w	r10,r6[256]
80008f00:	f3 ea 00 0a 	and	r10,r9,r10
	    fn ();
80008f04:	c0 31       	brne	80008f0a <__call_exitprocs+0x72>
	    continue;

	  ind = p->_ind;

	  /* Call the function.  */
	  if (!args || (args->_fntypes & i) == 0)
80008f06:	5d 18       	icall	r8
	    fn ();
	  else if ((args->_is_cxa & i) == 0)
80008f08:	c0 b8       	rjmp	80008f1e <__call_exitprocs+0x86>
80008f0a:	ec fa 01 04 	ld.w	r10,r6[260]
80008f0e:	66 0b       	ld.w	r11,r3[0x0]
80008f10:	14 69       	and	r9,r10
	    (*((void (*)(int, _PTR)) fn))(code, args->_fnargs[n]);
80008f12:	c0 41       	brne	80008f1a <__call_exitprocs+0x82>
80008f14:	40 2c       	lddsp	r12,sp[0x8]
80008f16:	5d 18       	icall	r8
	  else
	    (*((void (*)(_PTR)) fn))(args->_fnargs[n]);
80008f18:	c0 38       	rjmp	80008f1e <__call_exitprocs+0x86>
80008f1a:	16 9c       	mov	r12,r11

	  /* The function we called call atexit and registered another
	     function (or functions).  Call these new functions before
	     continuing with the already registered functions.  */
	  if (ind != p->_ind || *lastp != p)
80008f1c:	5d 18       	icall	r8
80008f1e:	6e 18       	ld.w	r8,r7[0x4]
80008f20:	10 30       	cp.w	r0,r8
80008f22:	cc 51       	brne	80008eac <__call_exitprocs+0x14>
80008f24:	68 08       	ld.w	r8,r4[0x0]
80008f26:	0e 38       	cp.w	r8,r7
#ifdef _REENT_SMALL
      args = p->_on_exit_args_ptr;
#else
      args = &p->_on_exit_args;
#endif
      for (n = p->_ind - 1; n >= 0; n--)
80008f28:	cc 21       	brne	80008eac <__call_exitprocs+0x14>
80008f2a:	20 15       	sub	r5,1
80008f2c:	20 43       	sub	r3,4
80008f2e:	20 42       	sub	r2,4
80008f30:	58 05       	cp.w	r5,0
#ifndef _ATEXIT_DYNAMIC_ALLOC
      break;
#else
      /* Move to the next block.  Free empty blocks except the last one,
	 which is part of _GLOBAL_REENT.  */
      if (p->_ind == 0 && p->_next)
80008f32:	cc c4       	brge	80008eca <__call_exitprocs+0x32>
80008f34:	6e 18       	ld.w	r8,r7[0x4]
80008f36:	58 08       	cp.w	r8,0
80008f38:	c0 f1       	brne	80008f56 <__call_exitprocs+0xbe>
80008f3a:	6e 08       	ld.w	r8,r7[0x0]
80008f3c:	58 08       	cp.w	r8,0
	{
	  /* Remove empty block from the list.  */
	  *lastp = p->_next;
80008f3e:	c0 c0       	breq	80008f56 <__call_exitprocs+0xbe>
#ifdef _REENT_SMALL
	  if (args)
80008f40:	89 08       	st.w	r4[0x0],r8
80008f42:	58 06       	cp.w	r6,0
	    free (args);
80008f44:	c0 40       	breq	80008f4c <__call_exitprocs+0xb4>
80008f46:	0c 9c       	mov	r12,r6
80008f48:	fe b0 fc 02 	rcall	8000874c <free>
#endif
	  free (p);
80008f4c:	0e 9c       	mov	r12,r7
80008f4e:	fe b0 fb ff 	rcall	8000874c <free>
#ifndef _ATEXIT_DYNAMIC_ALLOC
      break;
#else
      /* Move to the next block.  Free empty blocks except the last one,
	 which is part of _GLOBAL_REENT.  */
      if (p->_ind == 0 && p->_next)
80008f52:	68 07       	ld.w	r7,r4[0x0]
	  free (p);
	  p = *lastp;
	}
      else
	{
	  lastp = &p->_next;
80008f54:	c0 38       	rjmp	80008f5a <__call_exitprocs+0xc2>
	  p = p->_next;
80008f56:	0e 94       	mov	r4,r7

 restart:

  p = _GLOBAL_REENT->_atexit;
  lastp = &_GLOBAL_REENT->_atexit;
  while (p)
80008f58:	6e 07       	ld.w	r7,r7[0x0]
80008f5a:	58 07       	cp.w	r7,0
	  lastp = &p->_next;
	  p = p->_next;
	}
#endif
    }
}
80008f5c:	ca c1       	brne	80008eb4 <__call_exitprocs+0x1c>
80008f5e:	2f dd       	sub	sp,-12
80008f60:	d8 32       	popm	r0-r7,pc
80008f62:	d7 03       	nop

80008f64 <__errno>:

#ifndef _REENT_ONLY

int *
__errno ()
{
80008f64:	e0 68 01 30 	mov	r8,304
  return &_REENT->_errno;
}
80008f68:	70 0c       	ld.w	r12,r8[0x0]
80008f6a:	2f 4c       	sub	r12,-12
80008f6c:	5e fc       	retal	r12
80008f6e:	d7 03       	nop

80008f70 <_malloc_trim_r>:
#if __STD_C
int malloc_trim(RARG size_t pad)
#else
int malloc_trim(RARG pad) RDECL size_t pad;
#endif
{
80008f70:	d4 21       	pushm	r4-r7,lr
80008f72:	16 95       	mov	r5,r11
80008f74:	18 97       	mov	r7,r12
  char* current_brk;     /* address returned by pre-check sbrk call */
  char* new_brk;         /* address returned by negative sbrk call */

  unsigned long pagesz = malloc_getpagesize;

  MALLOC_LOCK;
80008f76:	cb 3e       	rcall	80008cdc <__malloc_lock>
80008f78:	e0 64 01 34 	mov	r4,308

  top_size = chunksize(top);
80008f7c:	68 28       	ld.w	r8,r4[0x8]
80008f7e:	70 16       	ld.w	r6,r8[0x4]
80008f80:	e0 16 ff fc 	andl	r6,0xfffc
  extra = ((top_size - pad - MINSIZE + (pagesz-1)) / pagesz - 1) * pagesz;
80008f84:	ec c8 ff 91 	sub	r8,r6,-111
80008f88:	f0 05 01 05 	sub	r5,r8,r5
80008f8c:	e0 15 ff 80 	andl	r5,0xff80
80008f90:	ea c5 00 80 	sub	r5,r5,128

  if (extra < (long)pagesz)  /* Not enough memory to release */
80008f94:	e0 45 00 7f 	cp.w	r5,127
80008f98:	e0 8a 00 22 	brle	80008fdc <_malloc_trim_r+0x6c>
  }

  else
  {
    /* Test to make sure no one else called sbrk */
    current_brk = (char*)(MORECORE (0));
80008f9c:	30 0b       	mov	r11,0
80008f9e:	0e 9c       	mov	r12,r7
80008fa0:	ce 0e       	rcall	80008d60 <_sbrk_r>
80008fa2:	68 28       	ld.w	r8,r4[0x8]
    if (current_brk != (char*)(top) + top_size)
80008fa4:	0c 08       	add	r8,r6
80008fa6:	10 3c       	cp.w	r12,r8
80008fa8:	c1 a1       	brne	80008fdc <_malloc_trim_r+0x6c>
80008faa:	ea 0b 11 00 	rsub	r11,r5,0
      return 0;     /* Apparently we don't own memory; must fail */
    }

    else
    {
      new_brk = (char*)(MORECORE (-extra));
80008fae:	0e 9c       	mov	r12,r7
80008fb0:	cd 8e       	rcall	80008d60 <_sbrk_r>
80008fb2:	5b fc       	cp.w	r12,-1
80008fb4:	c1 71       	brne	80008fe2 <_malloc_trim_r+0x72>
      
      if (new_brk == (char*)(MORECORE_FAILURE)) /* sbrk failed? */
80008fb6:	30 0b       	mov	r11,0
80008fb8:	0e 9c       	mov	r12,r7
      {
        /* Try to figure out what we have */
        current_brk = (char*)(MORECORE (0));
80008fba:	cd 3e       	rcall	80008d60 <_sbrk_r>
80008fbc:	68 28       	ld.w	r8,r4[0x8]
80008fbe:	f8 08 01 09 	sub	r9,r12,r8
        top_size = current_brk - (char*)top;
80008fc2:	58 f9       	cp.w	r9,15
80008fc4:	e0 8a 00 0c 	brle	80008fdc <_malloc_trim_r+0x6c>
        if (top_size >= (long)MINSIZE) /* if not, we are very very dead! */
80008fc8:	a1 a9       	sbr	r9,0x0
80008fca:	91 19       	st.w	r8[0x4],r9
80008fcc:	e0 68 05 40 	mov	r8,1344
        {
          sbrked_mem = current_brk - sbrk_base;
          set_head(top, top_size | PREV_INUSE);
80008fd0:	70 09       	ld.w	r9,r8[0x0]
        /* Try to figure out what we have */
        current_brk = (char*)(MORECORE (0));
        top_size = current_brk - (char*)top;
        if (top_size >= (long)MINSIZE) /* if not, we are very very dead! */
        {
          sbrked_mem = current_brk - sbrk_base;
80008fd2:	e0 68 09 a8 	mov	r8,2472
80008fd6:	f8 09 01 09 	sub	r9,r12,r9
80008fda:	91 09       	st.w	r8[0x0],r9
80008fdc:	0e 9c       	mov	r12,r7
          set_head(top, top_size | PREV_INUSE);
        }
        check_chunk(top);
	MALLOC_UNLOCK;
80008fde:	c8 0e       	rcall	80008cde <__malloc_unlock>
80008fe0:	d8 2a       	popm	r4-r7,pc,r12=0
80008fe2:	68 28       	ld.w	r8,r4[0x8]
80008fe4:	0a 16       	sub	r6,r5
      }

      else
      {
        /* Success. Adjust top accordingly. */
        set_head(top, (top_size - extra) | PREV_INUSE);
80008fe6:	a1 a6       	sbr	r6,0x0
80008fe8:	91 16       	st.w	r8[0x4],r6
80008fea:	e0 68 09 a8 	mov	r8,2472
        sbrked_mem -= extra;
80008fee:	70 09       	ld.w	r9,r8[0x0]
80008ff0:	0a 19       	sub	r9,r5
80008ff2:	0e 9c       	mov	r12,r7
        check_chunk(top);
	MALLOC_UNLOCK;
80008ff4:	91 09       	st.w	r8[0x0],r9

      else
      {
        /* Success. Adjust top accordingly. */
        set_head(top, (top_size - extra) | PREV_INUSE);
        sbrked_mem -= extra;
80008ff6:	c7 4e       	rcall	80008cde <__malloc_unlock>
        check_chunk(top);
	MALLOC_UNLOCK;
80008ff8:	da 2a       	popm	r4-r7,pc,r12=1
80008ffa:	d7 03       	nop

80008ffc <_free_r>:
80008ffc:	d4 21       	pushm	r4-r7,lr
80008ffe:	16 96       	mov	r6,r11
80009000:	18 97       	mov	r7,r12
80009002:	58 0b       	cp.w	r11,0
80009004:	e0 80 00 bc 	breq	8000917c <_free_r+0x180>
80009008:	c6 ae       	rcall	80008cdc <__malloc_lock>
8000900a:	20 86       	sub	r6,8
8000900c:	e0 6a 01 34 	mov	r10,308
80009010:	6c 18       	ld.w	r8,r6[0x4]
80009012:	74 2e       	ld.w	lr,r10[0x8]
80009014:	f9 d8 c0 01 	bfextu	r12,r8,0x0,0x1
  }
#endif
  
  check_inuse_chunk(p);
  
  sz = hd & ~PREV_INUSE;
80009018:	a1 c8       	cbr	r8,0x0
  next = chunk_at_offset(p, sz);
8000901a:	ec 08 00 09 	add	r9,r6,r8
  nextsz = chunksize(next);
8000901e:	72 1b       	ld.w	r11,r9[0x4]
80009020:	e0 1b ff fc 	andl	r11,0xfffc
  
  if (next == top)                            /* merge with top */
80009024:	1c 39       	cp.w	r9,lr
80009026:	c1 d1       	brne	80009060 <_free_r+0x64>
  {
    sz += nextsz;
80009028:	f6 08 00 08 	add	r8,r11,r8

    if (!(hd & PREV_INUSE))                    /* consolidate backward */
8000902c:	58 0c       	cp.w	r12,0
8000902e:	c0 81       	brne	8000903e <_free_r+0x42>
    {
      prevsz = p->prev_size;
80009030:	6c 09       	ld.w	r9,r6[0x0]
      p = chunk_at_offset(p, -prevsz);
80009032:	12 16       	sub	r6,r9
      sz += prevsz;
80009034:	12 08       	add	r8,r9
      unlink(p, bck, fwd);
80009036:	6c 3b       	ld.w	r11,r6[0xc]
80009038:	6c 29       	ld.w	r9,r6[0x8]
8000903a:	97 29       	st.w	r11[0x8],r9
8000903c:	93 3b       	st.w	r9[0xc],r11
    }

    set_head(p, sz | PREV_INUSE);
8000903e:	10 99       	mov	r9,r8
    top = p;
80009040:	95 26       	st.w	r10[0x8],r6
      p = chunk_at_offset(p, -prevsz);
      sz += prevsz;
      unlink(p, bck, fwd);
    }

    set_head(p, sz | PREV_INUSE);
80009042:	a1 a9       	sbr	r9,0x0
80009044:	8d 19       	st.w	r6[0x4],r9
    top = p;
    if ((unsigned long)(sz) >= (unsigned long)trim_threshold) 
80009046:	e0 69 05 3c 	mov	r9,1340
8000904a:	72 09       	ld.w	r9,r9[0x0]
8000904c:	12 38       	cp.w	r8,r9
      malloc_trim(RCALL top_pad); 
8000904e:	c0 63       	brcs	8000905a <_free_r+0x5e>
80009050:	e0 68 09 a4 	mov	r8,2468
80009054:	0e 9c       	mov	r12,r7
80009056:	70 0b       	ld.w	r11,r8[0x0]
    MALLOC_UNLOCK;
80009058:	c8 cf       	rcall	80008f70 <_malloc_trim_r>
8000905a:	0e 9c       	mov	r12,r7
8000905c:	c4 1e       	rcall	80008cde <__malloc_unlock>
    return;
8000905e:	d8 22       	popm	r4-r7,pc
  }

  set_head(next, nextsz);                    /* clear inuse bit */
80009060:	93 1b       	st.w	r9[0x4],r11

  islr = 0;

  if (!(hd & PREV_INUSE))                    /* consolidate backward */
80009062:	58 0c       	cp.w	r12,0
80009064:	c0 30       	breq	8000906a <_free_r+0x6e>
80009066:	30 0c       	mov	r12,0
80009068:	c0 e8       	rjmp	80009084 <_free_r+0x88>
  {
    prevsz = p->prev_size;
8000906a:	6c 0e       	ld.w	lr,r6[0x0]
    p = chunk_at_offset(p, -prevsz);
    sz += prevsz;
    
    if (p->fd == last_remainder)             /* keep as last_remainder */
8000906c:	f4 c5 ff f8 	sub	r5,r10,-8

  if (!(hd & PREV_INUSE))                    /* consolidate backward */
  {
    prevsz = p->prev_size;
    p = chunk_at_offset(p, -prevsz);
    sz += prevsz;
80009070:	1c 08       	add	r8,lr
  islr = 0;

  if (!(hd & PREV_INUSE))                    /* consolidate backward */
  {
    prevsz = p->prev_size;
    p = chunk_at_offset(p, -prevsz);
80009072:	1c 16       	sub	r6,lr
    sz += prevsz;
    
    if (p->fd == last_remainder)             /* keep as last_remainder */
80009074:	6c 2e       	ld.w	lr,r6[0x8]
80009076:	0a 3e       	cp.w	lr,r5
80009078:	c0 31       	brne	8000907e <_free_r+0x82>
8000907a:	30 1c       	mov	r12,1
8000907c:	c0 48       	rjmp	80009084 <_free_r+0x88>
      islr = 1;
    else
      unlink(p, bck, fwd);
8000907e:	6c 35       	ld.w	r5,r6[0xc]
80009080:	8b 2e       	st.w	r5[0x8],lr
80009082:	9d 35       	st.w	lr[0xc],r5
  }
  
  if (!(inuse_bit_at_offset(next, nextsz)))   /* consolidate forward */
80009084:	f2 0b 00 0e 	add	lr,r9,r11
80009088:	7c 1e       	ld.w	lr,lr[0x4]
8000908a:	ed be 00 00 	bld	lr,0x0
8000908e:	c1 40       	breq	800090b6 <_free_r+0xba>
  {
    sz += nextsz;
80009090:	16 08       	add	r8,r11
    
    if (!islr && next->fd == last_remainder)  /* re-insert last_remainder */
80009092:	58 0c       	cp.w	r12,0
80009094:	c0 d1       	brne	800090ae <_free_r+0xb2>
80009096:	e0 6e 01 34 	mov	lr,308
8000909a:	72 2b       	ld.w	r11,r9[0x8]
8000909c:	2f 8e       	sub	lr,-8
8000909e:	1c 3b       	cp.w	r11,lr
    {
      islr = 1;
      link_last_remainder(p);   
800090a0:	c0 71       	brne	800090ae <_free_r+0xb2>
800090a2:	97 36       	st.w	r11[0xc],r6
800090a4:	97 26       	st.w	r11[0x8],r6
800090a6:	8d 2b       	st.w	r6[0x8],r11
800090a8:	8d 3b       	st.w	r6[0xc],r11
  
  if (!(inuse_bit_at_offset(next, nextsz)))   /* consolidate forward */
  {
    sz += nextsz;
    
    if (!islr && next->fd == last_remainder)  /* re-insert last_remainder */
800090aa:	30 1c       	mov	r12,1
    {
      islr = 1;
      link_last_remainder(p);   
    }
    else
      unlink(next, bck, fwd);
800090ac:	c0 58       	rjmp	800090b6 <_free_r+0xba>
800090ae:	72 2b       	ld.w	r11,r9[0x8]
800090b0:	72 39       	ld.w	r9,r9[0xc]
800090b2:	93 2b       	st.w	r9[0x8],r11
  }


  set_head(p, sz | PREV_INUSE);
800090b4:	97 39       	st.w	r11[0xc],r9
  set_foot(p, sz);
800090b6:	10 99       	mov	r9,r8
800090b8:	ec 08 09 08 	st.w	r6[r8],r8
    else
      unlink(next, bck, fwd);
  }


  set_head(p, sz | PREV_INUSE);
800090bc:	a1 a9       	sbr	r9,0x0
  set_foot(p, sz);
  if (!islr)
800090be:	8d 19       	st.w	r6[0x4],r9
800090c0:	58 0c       	cp.w	r12,0
    frontlink(p, sz, idx, bck, fwd);  
800090c2:	c5 a1       	brne	80009176 <_free_r+0x17a>
800090c4:	e0 48 01 ff 	cp.w	r8,511
800090c8:	e0 8b 00 13 	brhi	800090ee <_free_r+0xf2>
800090cc:	a3 98       	lsr	r8,0x3
800090ce:	f4 08 00 39 	add	r9,r10,r8<<0x3
800090d2:	72 2b       	ld.w	r11,r9[0x8]
800090d4:	8d 39       	st.w	r6[0xc],r9
800090d6:	8d 2b       	st.w	r6[0x8],r11
800090d8:	97 36       	st.w	r11[0xc],r6
800090da:	93 26       	st.w	r9[0x8],r6
800090dc:	a3 48       	asr	r8,0x2
800090de:	74 19       	ld.w	r9,r10[0x4]
800090e0:	30 1b       	mov	r11,1
800090e2:	f6 08 09 48 	lsl	r8,r11,r8
800090e6:	f3 e8 10 08 	or	r8,r9,r8
800090ea:	95 18       	st.w	r10[0x4],r8
800090ec:	c4 58       	rjmp	80009176 <_free_r+0x17a>
800090ee:	f0 0b 16 09 	lsr	r11,r8,0x9
800090f2:	58 4b       	cp.w	r11,4
800090f4:	e0 8b 00 06 	brhi	80009100 <_free_r+0x104>
800090f8:	f0 0b 16 06 	lsr	r11,r8,0x6
800090fc:	2c 8b       	sub	r11,-56
800090fe:	c2 08       	rjmp	8000913e <_free_r+0x142>
80009100:	59 4b       	cp.w	r11,20
80009102:	e0 8b 00 04 	brhi	8000910a <_free_r+0x10e>
80009106:	2a 5b       	sub	r11,-91
80009108:	c1 b8       	rjmp	8000913e <_free_r+0x142>
8000910a:	e0 4b 00 54 	cp.w	r11,84
8000910e:	e0 8b 00 06 	brhi	8000911a <_free_r+0x11e>
80009112:	f0 0b 16 0c 	lsr	r11,r8,0xc
80009116:	29 2b       	sub	r11,-110
80009118:	c1 38       	rjmp	8000913e <_free_r+0x142>
8000911a:	e0 4b 01 54 	cp.w	r11,340
8000911e:	e0 8b 00 06 	brhi	8000912a <_free_r+0x12e>
80009122:	f0 0b 16 0f 	lsr	r11,r8,0xf
80009126:	28 9b       	sub	r11,-119
80009128:	c0 b8       	rjmp	8000913e <_free_r+0x142>
8000912a:	e0 4b 05 54 	cp.w	r11,1364
8000912e:	e0 88 00 05 	brls	80009138 <_free_r+0x13c>
80009132:	37 eb       	mov	r11,126
80009134:	c0 58       	rjmp	8000913e <_free_r+0x142>
80009136:	d7 03       	nop
80009138:	f0 0b 16 12 	lsr	r11,r8,0x12
8000913c:	28 4b       	sub	r11,-124
8000913e:	f4 0b 00 3c 	add	r12,r10,r11<<0x3
80009142:	78 29       	ld.w	r9,r12[0x8]
80009144:	18 39       	cp.w	r9,r12
80009146:	c0 e1       	brne	80009162 <_free_r+0x166>
80009148:	74 18       	ld.w	r8,r10[0x4]
8000914a:	a3 4b       	asr	r11,0x2
8000914c:	30 1c       	mov	r12,1
8000914e:	f8 0b 09 4b 	lsl	r11,r12,r11
80009152:	f1 eb 10 0b 	or	r11,r8,r11
80009156:	12 98       	mov	r8,r9
80009158:	95 1b       	st.w	r10[0x4],r11
8000915a:	c0 a8       	rjmp	8000916e <_free_r+0x172>
8000915c:	72 29       	ld.w	r9,r9[0x8]
8000915e:	18 39       	cp.w	r9,r12
80009160:	c0 60       	breq	8000916c <_free_r+0x170>
80009162:	72 1a       	ld.w	r10,r9[0x4]
80009164:	e0 1a ff fc 	andl	r10,0xfffc
80009168:	14 38       	cp.w	r8,r10
8000916a:	cf 93       	brcs	8000915c <_free_r+0x160>
8000916c:	72 38       	ld.w	r8,r9[0xc]
8000916e:	8d 38       	st.w	r6[0xc],r8
80009170:	8d 29       	st.w	r6[0x8],r9
80009172:	93 36       	st.w	r9[0xc],r6
80009174:	91 26       	st.w	r8[0x8],r6
80009176:	0e 9c       	mov	r12,r7
80009178:	fe b0 fd b3 	rcall	80008cde <__malloc_unlock>
8000917c:	d8 22       	popm	r4-r7,pc
8000917e:	d7 03       	nop

80009180 <__do_global_ctors_aux>:
80009180:	d4 21       	pushm	r4-r7,lr
80009182:	30 c7       	mov	r7,12
80009184:	c0 28       	rjmp	80009188 <__do_global_ctors_aux+0x8>
80009186:	5d 18       	icall	r8
80009188:	20 47       	sub	r7,4

  MALLOC_UNLOCK;
8000918a:	6e 08       	ld.w	r8,r7[0x0]
8000918c:	5b f8       	cp.w	r8,-1
8000918e:	cf c1       	brne	80009186 <__do_global_ctors_aux+0x6>
80009190:	d8 22       	popm	r4-r7,pc
80009192:	d7 03       	nop

Disassembly of section .exception:

80009200 <_evba>:
80009200:	c0 08       	rjmp	80009200 <_evba>
	...

80009204 <_handle_TLB_Multiple_Hit>:
80009204:	c0 08       	rjmp	80009204 <_handle_TLB_Multiple_Hit>
	...

80009208 <_handle_Bus_Error_Data_Fetch>:
80009208:	c0 08       	rjmp	80009208 <_handle_Bus_Error_Data_Fetch>
	...

8000920c <_handle_Bus_Error_Instruction_Fetch>:
8000920c:	c0 08       	rjmp	8000920c <_handle_Bus_Error_Instruction_Fetch>
	...

80009210 <_handle_NMI>:
80009210:	c0 08       	rjmp	80009210 <_handle_NMI>
	...

80009214 <_handle_Instruction_Address>:
80009214:	c0 08       	rjmp	80009214 <_handle_Instruction_Address>
	...

80009218 <_handle_ITLB_Protection>:
80009218:	c0 08       	rjmp	80009218 <_handle_ITLB_Protection>
	...

8000921c <_handle_Breakpoint>:
8000921c:	c0 08       	rjmp	8000921c <_handle_Breakpoint>
	...

80009220 <_handle_Illegal_Opcode>:
80009220:	c0 08       	rjmp	80009220 <_handle_Illegal_Opcode>
	...

80009224 <_handle_Unimplemented_Instruction>:
80009224:	c0 08       	rjmp	80009224 <_handle_Unimplemented_Instruction>
	...

80009228 <_handle_Privilege_Violation>:
80009228:	c0 08       	rjmp	80009228 <_handle_Privilege_Violation>
	...

8000922c <_handle_Floating_Point>:
8000922c:	c0 08       	rjmp	8000922c <_handle_Floating_Point>
	...

80009230 <_handle_Coprocessor_Absent>:
80009230:	c0 08       	rjmp	80009230 <_handle_Coprocessor_Absent>
	...

80009234 <_handle_Data_Address_Read>:
80009234:	c0 08       	rjmp	80009234 <_handle_Data_Address_Read>
	...

80009238 <_handle_Data_Address_Write>:
80009238:	c0 08       	rjmp	80009238 <_handle_Data_Address_Write>
	...

8000923c <_handle_DTLB_Protection_Read>:
8000923c:	c0 08       	rjmp	8000923c <_handle_DTLB_Protection_Read>
	...

80009240 <_handle_DTLB_Protection_Write>:
80009240:	c0 08       	rjmp	80009240 <_handle_DTLB_Protection_Write>
	...

80009244 <_handle_DTLB_Modified>:
80009244:	c0 08       	rjmp	80009244 <_handle_DTLB_Modified>
	...

80009250 <_handle_ITLB_Miss>:
80009250:	c0 08       	rjmp	80009250 <_handle_ITLB_Miss>
	...

80009260 <_handle_DTLB_Miss_Read>:
80009260:	c0 08       	rjmp	80009260 <_handle_DTLB_Miss_Read>
	...

80009270 <_handle_DTLB_Miss_Write>:
80009270:	c0 08       	rjmp	80009270 <_handle_DTLB_Miss_Write>
	...

80009300 <_handle_Supervisor_Call>:
80009300:	c0 08       	rjmp	80009300 <_handle_Supervisor_Call>
80009302:	d7 03       	nop

80009304 <_int0>:
80009304:	30 0c       	mov	r12,0
80009306:	fe b0 e9 29 	rcall	80006558 <_get_interrupt_handler>
8000930a:	58 0c       	cp.w	r12,0
8000930c:	f8 0f 17 10 	movne	pc,r12
80009310:	d6 03       	rete

80009312 <_int1>:
80009312:	30 1c       	mov	r12,1
80009314:	fe b0 e9 22 	rcall	80006558 <_get_interrupt_handler>
80009318:	58 0c       	cp.w	r12,0
8000931a:	f8 0f 17 10 	movne	pc,r12
8000931e:	d6 03       	rete

80009320 <_int2>:
80009320:	30 2c       	mov	r12,2
80009322:	fe b0 e9 1b 	rcall	80006558 <_get_interrupt_handler>
80009326:	58 0c       	cp.w	r12,0
80009328:	f8 0f 17 10 	movne	pc,r12
8000932c:	d6 03       	rete

8000932e <_int3>:
8000932e:	30 3c       	mov	r12,3
80009330:	fe b0 e9 14 	rcall	80006558 <_get_interrupt_handler>
80009334:	58 0c       	cp.w	r12,0
80009336:	f8 0f 17 10 	movne	pc,r12
8000933a:	d6 03       	rete
8000933c:	d7 03       	nop
8000933e:	d7 03       	nop
80009340:	d7 03       	nop
80009342:	d7 03       	nop
80009344:	d7 03       	nop
80009346:	d7 03       	nop
80009348:	d7 03       	nop
8000934a:	d7 03       	nop
8000934c:	d7 03       	nop
8000934e:	d7 03       	nop
80009350:	d7 03       	nop
80009352:	d7 03       	nop
80009354:	d7 03       	nop
80009356:	d7 03       	nop
80009358:	d7 03       	nop
8000935a:	d7 03       	nop
8000935c:	d7 03       	nop
8000935e:	d7 03       	nop
80009360:	d7 03       	nop
80009362:	d7 03       	nop
80009364:	d7 03       	nop
80009366:	d7 03       	nop
80009368:	d7 03       	nop
8000936a:	d7 03       	nop
8000936c:	d7 03       	nop
8000936e:	d7 03       	nop
80009370:	d7 03       	nop
80009372:	d7 03       	nop
80009374:	d7 03       	nop
80009376:	d7 03       	nop
80009378:	d7 03       	nop
8000937a:	d7 03       	nop
8000937c:	d7 03       	nop
8000937e:	d7 03       	nop
80009380:	d7 03       	nop
80009382:	d7 03       	nop
80009384:	d7 03       	nop
80009386:	d7 03       	nop
80009388:	d7 03       	nop
8000938a:	d7 03       	nop
8000938c:	d7 03       	nop
8000938e:	d7 03       	nop
80009390:	d7 03       	nop
80009392:	d7 03       	nop
80009394:	d7 03       	nop
80009396:	d7 03       	nop
80009398:	d7 03       	nop
8000939a:	d7 03       	nop
8000939c:	d7 03       	nop
8000939e:	d7 03       	nop
800093a0:	d7 03       	nop
800093a2:	d7 03       	nop
800093a4:	d7 03       	nop
800093a6:	d7 03       	nop
800093a8:	d7 03       	nop
800093aa:	d7 03       	nop
800093ac:	d7 03       	nop
800093ae:	d7 03       	nop
800093b0:	d7 03       	nop
800093b2:	d7 03       	nop
800093b4:	d7 03       	nop
800093b6:	d7 03       	nop
800093b8:	d7 03       	nop
800093ba:	d7 03       	nop
800093bc:	d7 03       	nop
800093be:	d7 03       	nop
800093c0:	d7 03       	nop
800093c2:	d7 03       	nop
800093c4:	d7 03       	nop
800093c6:	d7 03       	nop
800093c8:	d7 03       	nop
800093ca:	d7 03       	nop
800093cc:	d7 03       	nop
800093ce:	d7 03       	nop
800093d0:	d7 03       	nop
800093d2:	d7 03       	nop
800093d4:	d7 03       	nop
800093d6:	d7 03       	nop
800093d8:	d7 03       	nop
800093da:	d7 03       	nop
800093dc:	d7 03       	nop
800093de:	d7 03       	nop
800093e0:	d7 03       	nop
800093e2:	d7 03       	nop
800093e4:	d7 03       	nop
800093e6:	d7 03       	nop
800093e8:	d7 03       	nop
800093ea:	d7 03       	nop
800093ec:	d7 03       	nop
800093ee:	d7 03       	nop
800093f0:	d7 03       	nop
800093f2:	d7 03       	nop
800093f4:	d7 03       	nop
800093f6:	d7 03       	nop
800093f8:	d7 03       	nop
800093fa:	d7 03       	nop
800093fc:	d7 03       	nop
800093fe:	d7 03       	nop

Disassembly of section .fini:

80009400 <_fini>:
80009400:	eb cd 40 40 	pushm	r6,lr
80009404:	48 26       	lddpc	r6,8000940c <_fini+0xc>
80009406:	1e 26       	rsub	r6,pc
80009408:	c0 48       	rjmp	80009410 <_fini+0x10>
8000940a:	d7 03       	nop
8000940c:	80 00       	ld.sh	r0,r0[0x0]
8000940e:	93 ea       	st.w	r9[0x38],r10
80009410:	fe b0 c6 38 	rcall	80002080 <__do_global_dtors_aux>
80009414:	e3 cd 80 40 	ldm	sp++,r6,pc
